 bloodmap

 Timestamp is 573a4950 (Tue May 17 01:27:28 2016)

 Preferred load address is 0000000140000000

 Start         Length     Name                   Class
 0001:00000000 00097d48H .text                   CODE
 0001:00097d50 0000005eH .text$00                CODE
 0001:00097db0 00000061H .text$x                 CODE
 0002:00000000 00000528H .idata$5                DATA
 0002:00000528 00000008H .CRT$XCA                DATA
 0002:00000530 00000008H .CRT$XCAA               DATA
 0002:00000538 00000008H .CRT$XCZ                DATA
 0002:00000540 00000008H .CRT$XIA                DATA
 0002:00000548 00000008H .CRT$XIAA               DATA
 0002:00000550 00000008H .CRT$XIY                DATA
 0002:00000558 00000008H .CRT$XIZ                DATA
 0002:00000560 00011a08H .rdata                  DATA
 0002:00011f68 00000042H .rdata$debug            DATA
 0002:00011fb0 00000008H .rtc$IAA                DATA
 0002:00011fb8 00000008H .rtc$IZZ                DATA
 0002:00011fc0 00000008H .rtc$TAA                DATA
 0002:00011fc8 00000008H .rtc$TZZ                DATA
 0002:00011fd0 00009fa0H .xdata                  DATA
 0002:0001bf70 00000078H .idata$2                DATA
 0002:0001bfe8 00000014H .idata$3                DATA
 0002:0001c000 00000528H .idata$4                DATA
 0002:0001c528 00000842H .idata$6                DATA
 0002:0001cd6a 00000000H .edata                  DATA
 0003:00000000 00019a68H .data                   DATA
 0003:00019a80 105d3740H .bss                    DATA
 0004:00000000 000066fcH .pdata                  DATA
 0005:00000000 00000250H .rsrc$01                DATA
 0005:00000250 000102f8H .rsrc$02                DATA

  Address         Publics by Value              Rva+Base               Lib:Object

 0000:00000000       ___safe_se_handler_count   0000000000000000     <absolute>
 0000:00000000       ___safe_se_handler_table   0000000000000000     <absolute>
 0000:00000000       __ImageBase                0000000140000000     <linker-defined>
 0001:00000000       ?IncDrawVerts@@YAXXZ       0000000140001000 f   bspfile_abstract.obj
 0001:000000d0       ?SetDrawVerts@@YAXH@Z      00000001400010d0 f   bspfile_abstract.obj
 0001:00000190       ?SetDrawSurfaces@@YAXH@Z   0000000140001190 f   bspfile_abstract.obj
 0001:00000250       ?SwapBSPFile@@YAXXZ        0000000140001250 f   bspfile_abstract.obj
 0001:00000400       ?WriteBSPFile@@YAXPEBD@Z   0000000140001400 f   bspfile_abstract.obj
 0001:000004a0       ?PrintBSPFileSizes@@YAXXZ  00000001400014a0 f   bspfile_abstract.obj
 0001:00000740       ?ParseEPair@@YAPEAUepair_s@@XZ 0000000140001740 f   bspfile_abstract.obj
 0001:000008b0       ?ParseEntity@@YA?AW4qboolean@@XZ 00000001400018b0 f   bspfile_abstract.obj
 0001:000009d0       ?ParseEntities@@YAXXZ      00000001400019d0 f   bspfile_abstract.obj
 0001:00000a70       ?UnparseEntities@@YAXW4qboolean@@@Z 0000000140001a70 f   bspfile_abstract.obj
 0001:00000db0       ?SetKeyValue@@YAXPEAUentity_t@@PEBD1@Z 0000000140001db0 f   bspfile_abstract.obj
 0001:00000f00       ?KeyExists@@YA?AW4qboolean@@PEBUentity_t@@PEBD@Z 0000000140001f00 f   bspfile_abstract.obj
 0001:00000f60       ?ValueForKey@@YAPEBDPEBUentity_t@@PEBD@Z 0000000140001f60 f   bspfile_abstract.obj
 0001:00000fd0       ?IntForKey@@YAHPEBUentity_t@@PEBD@Z 0000000140001fd0 f   bspfile_abstract.obj
 0001:00001050       ?FloatForKey@@YAMPEBUentity_t@@PEBD@Z 0000000140002050 f   bspfile_abstract.obj
 0001:000010c0       ?GetVectorForKey@@YAXPEBUentity_t@@PEBDQEAM@Z 00000001400020c0 f   bspfile_abstract.obj
 0001:00001180       ?FindTargetEntity@@YAPEAUentity_t@@PEBD@Z 0000000140002180 f   bspfile_abstract.obj
 0001:00001250       ?GetEntityShadowFlags@@YAXPEBUentity_t@@0PEAD1W4qboolean@@@Z 0000000140002250 f   bspfile_abstract.obj
 0001:000014a0       ?GetEntityLightmapScale@@YAXPEBUentity_t@@PEAMM@Z 00000001400024a0 f   bspfile_abstract.obj
 0001:00001640       ?GetEntityLightmapAxis@@YAXPEBUentity_t@@QEAM1@Z 0000000140002640 f   bspfile_abstract.obj
 0001:00001920       ?GetEntityNormalSmoothing@@YAXPEBUentity_t@@PEAHH@Z 0000000140002920 f   bspfile_abstract.obj
 0001:00001a30       ?GetEntityMinlightAmbientColor@@YAXPEBUentity_t@@QEAM1111W4qboolean@@@Z 0000000140002a30 f   bspfile_abstract.obj
 0001:00002610       ?GetEntityPatchMeta@@YAXPEBUentity_t@@PEAW4qboolean@@PEAM2MM@Z 0000000140003610 f   bspfile_abstract.obj
 0001:00003ac0       ?LoadIBSPFile@@YAXPEBD@Z   0000000140004ac0 f   bspfile_ibsp.obj
 0001:000040a0       ?WriteIBSPFile@@YAXPEBD@Z  00000001400050a0 f   bspfile_ibsp.obj
 0001:00004ae0       ?LoadRBSPFile@@YAXPEBD@Z   0000000140005ae0 f   bspfile_rbsp.obj
 0001:00005290       ?WriteRBSPFile@@YAXPEBD@Z  0000000140006290 f   bspfile_rbsp.obj
 0001:00005a50       ?PNGReadData@@YAXPEAUpng_struct_def@@PEAE_K@Z 0000000140006a50 f   image.obj
 0001:00005de0       ?WritePNG@@YAXPEBDPEAEHHW4qboolean@@2@Z 0000000140006de0 f   image.obj
 0001:00006190       ?ImageFind@@YAPEAUimage_s@@PEBD@Z 0000000140007190 f   image.obj
 0001:00006280       ?ImageLoad@@YAPEAUimage_s@@PEBD@Z 0000000140007280 f   image.obj
 0001:00006b10       ?FixAAS@@YAHHPEAPEAD@Z     0000000140007b10 f   main.obj
 0001:00006db0       ?AnalyzeBSP@@YAHHPEAPEAD@Z 0000000140007db0 f   main.obj
 0001:000071a0       ?BSPInfo@@YAHHPEAPEAD@Z    00000001400081a0 f   main.obj
 0001:000074e0       ?ScaleBSPMain@@YAHHPEAPEAD@Z 00000001400084e0 f   main.obj
 0001:000084b0       ?ConvertBSPMain@@YAHHPEAPEAD@Z 00000001400094b0 f   main.obj
 0001:000088d0       main                       00000001400098d0 f   main.obj
 0001:00008f70       ?LerpDrawVert@@YAXPEAUbspDrawVert_t@@00@Z 0000000140009f70 f   mesh.obj
 0001:000090c0       ?LerpDrawVertAmount@@YAXPEAUbspDrawVert_t@@0M0@Z 000000014000a0c0 f   mesh.obj
 0001:000092a0       ?CopyMesh@@YAPEAUmesh_t@@PEAU1@@Z 000000014000a2a0 f   mesh.obj
 0001:00009320       ?TransposeMesh@@YAPEAUmesh_t@@PEAU1@@Z 000000014000a320 f   mesh.obj
 0001:00009420       ?InvertMesh@@YAXPEAUmesh_t@@@Z 000000014000a420 f   mesh.obj
 0001:00009560       ?MakeMeshNormals@@YAXUmesh_t@@@Z 000000014000a560 f   mesh.obj
 0001:00009af0       ?PutMeshOnCurve@@YAXUmesh_t@@@Z 000000014000aaf0 f   mesh.obj
 0001:00009e40       ?SubdivideMesh@@YAPEAUmesh_t@@U1@MM@Z 000000014000ae40 f   mesh.obj
 0001:0000ab70       ?IterationsForCurve@@YAHMM@Z 000000014000bb70 f   mesh.obj
 0001:0000ac10       ?SubdivideMesh2@@YAPEAUmesh_t@@U1@H@Z 000000014000bc10 f   mesh.obj
 0001:0000b500       ?RemoveLinearMeshColumnsRows@@YAPEAUmesh_t@@PEAU1@@Z 000000014000c500 f   mesh.obj
 0001:0000baf0       ?PicoPrintFunc@@YAXHPEBD@Z 000000014000caf0 f   model.obj
 0001:0000bb70       ?PicoLoadFileFunc@@YAXPEADPEAPEAEPEAH@Z 000000014000cb70 f   model.obj
 0001:0000bb90       ?FindModel@@YAPEAUpicoModel_s@@PEBDH@Z 000000014000cb90 f   model.obj
 0001:0000bc60       ?LoadModel@@YAPEAUpicoModel_s@@PEBDH@Z 000000014000cc60 f   model.obj
 0001:0000bd70       ?InsertModel@@YAXPEADHHQEAMMPEAUremap_s@@PEAUshaderInfo_s@@HHDDHM11111MHHW4qboolean@@M4PEAH555@Z 000000014000cd70 f   model.obj
 0001:0000d100       ?LoadTriangleModels@@YAXXZ 000000014000e100 f   model.obj
 0001:0000d470       ?AddTriangleModels@@YAXH@Z 000000014000e470 f   model.obj
 0001:0000e650       ?TidyShaders@@YAXXZ        000000014000f650 f   optimize.obj
 0001:0000edb0       ?MergeDrawSurfaces@@YAXXZ  000000014000fdb0 f   optimize.obj
 0001:0000fac0       ?MergeDrawVerts@@YAXXZ     0000000140010ac0 f   optimize.obj
 0001:00010510       ?WriteResourceOBJFile@@YAXPEBD@Z 0000000140011510 f   optimize.obj
 0001:00010df0       ?OptimizeBSPMain@@YAHHPEAPEAD@Z 0000000140011df0 f   optimize.obj
 0001:00011540       ?AllocateEntity@@YAPEAUentity_t@@PEAU1@@Z 0000000140012540 f   patchbsp.obj
 0001:000115c0       ?FindMapEntityByUniqueKey@@YAPEAUentity_t@@PEBD@Z 00000001400125c0 f   patchbsp.obj
 0001:000116d0       ?PatchEntities@@YAXXZ      00000001400126d0 f   patchbsp.obj
 0001:00011c50       ?PatchBSPMain@@YAHHPEAPEAD@Z 0000000140012c50 f   patchbsp.obj
 0001:00012280       ?GetGame@@YAPEAUgame_s@@PEAD@Z 0000000140013280 f   path_init.obj
 0001:000123d0       ?AddBasePath@@YAXPEAD@Z    00000001400133d0 f   path_init.obj
 0001:00012470       ?AddGamePath@@YAXPEAD@Z    0000000140013470 f   path_init.obj
 0001:00012510       ?InitPaths@@YAXPEAHPEAPEAD@Z 0000000140013510 f   path_init.obj
 0001:000129e0       ?SanitizePath@@YAXPEAD0@Z  00000001400139e0 f   path_init.obj
 0001:00012a70       ?GetGamePath@@YA?AW4qboolean@@PEAD0@Z 0000000140013a70 f   path_init.obj
 0001:00012d00       ?ColorModBuildRandomMatrix@@YAXXZ 0000000140013d00 f   shaders.obj
 0001:00012db0       ?ColorModRandom@@YAMQEAMM@Z 0000000140013db0 f   shaders.obj
 0001:00013080       ?ColorMod@@YAXPEAUentity_t@@PEAUmapDrawSurface_s@@PEAUcolorMod_s@@PEAUbrush_s@@HH@Z 0000000140014080 f   shaders.obj
 0001:00013a40       ?TCModMultiply@@YAXQEAY02M00@Z 0000000140014a40 f   shaders.obj
 0001:00013bc0       ?TCModRotate@@YAXQEAY02MM@Z 0000000140014bc0 f   shaders.obj
 0001:00013cb0       ?ApplySurfaceParm@@YA?AW4qboolean@@PEADPEAH11@Z 0000000140014cb0 f   shaders.obj
 0001:00013e00       ?BeginMapShaderFile@@YAXPEBD@Z 0000000140014e00 f   shaders.obj
 0001:00013f70       ?WriteMapShaderFile@@YAXXZ 0000000140014f70 f   shaders.obj
 0001:000140f0       ?CustomShader@@YAPEAUshaderInfo_s@@PEAU1@PEAD1@Z 00000001400150f0 f   shaders.obj
 0001:000147d0       ?FinishShader@@YAXPEAUshaderInfo_s@@@Z 00000001400157d0 f   shaders.obj
 0001:00014ed0       ?ShaderInfoForShader@@YAPEAUshaderInfo_s@@PEBD@Z 0000000140015ed0 f   shaders.obj
 0001:000150d0       ?GetTokenAppend@@YA?AW4qboolean@@PEADW41@@Z 00000001400160d0 f   shaders.obj
 0001:000151d0       ?Parse1DMatrixAppend@@YAXPEADHPEAM@Z 00000001400161d0 f   shaders.obj
 0001:000152c0       ?AllocateColorMod@@YAPEAUcolorMod_s@@PEAUshaderInfo_s@@W4colorModType_t@@@Z 00000001400162c0 f   shaders.obj
 0001:000183d0       ?LoadShaderInfo@@YAXXZ     00000001400193d0 f   shaders.obj
 0001:00018610       ?AllocSideRef@@YAPEAUsideRef_s@@PEAUside_s@@PEAU1@@Z 0000000140019610 f   brush.obj
 0001:00018660       ?AllocBrush@@YAPEAUbrush_s@@H@Z 0000000140019660 f   brush.obj
 0001:000186e0       ?FreeBrush@@YAXPEAUbrush_s@@@Z 00000001400196e0 f   brush.obj
 0001:000187d0       ?CopyBrush@@YAPEAUbrush_s@@PEAU1@@Z 00000001400197d0 f   brush.obj
 0001:000188a0       ?BoundBrush@@YA?AW4qboolean@@PEAUbrush_s@@@Z 00000001400198a0 f   brush.obj
 0001:00018990       ?CreateBrushWindings@@YA?AW4qboolean@@PEAUbrush_s@@@Z 0000000140019990 f   brush.obj
 0001:00018b20       ?BrushVolume@@YAMPEAUbrush_s@@@Z 0000000140019b20 f   brush.obj
 0001:00018c50       ?WriteBSPBrushMap@@YAXPEADPEAUbrush_s@@@Z 0000000140019c50 f   brush.obj
 0001:00018e60       ?FilterBrushIntoTree_r@@YAHPEAUbrush_s@@PEAUnode_s@@@Z 0000000140019e60 f   brush.obj
 0001:00018f30       ?FilterDetailBrushesIntoTree@@YAXPEAUentity_t@@PEAUtree_t@@@Z 0000000140019f30 f   brush.obj
 0001:00019000       ?FilterStructuralBrushesIntoTree@@YAXPEAUentity_t@@PEAUtree_t@@W4qboolean@@@Z 000000014001a000 f   brush.obj
 0001:00019100       ?WindingIsTiny@@YA?AW4qboolean@@PEAUwinding_t@@@Z 000000014001a100 f   brush.obj
 0001:000191e0       ?BrushMostlyOnSide@@YAHPEAUbrush_s@@PEAUplane_s@@@Z 000000014001a1e0 f   brush.obj
 0001:00019450       ?SplitBrush@@YAXPEAUbrush_s@@HPEAPEAU1@1@Z 000000014001a450 f   brush.obj
 0001:00019c00       ?ComputeAxisBase@@YAXQEAM00@Z 000000014001ac00 f   brush_primit.obj
 0001:00019d50       ?SetCloneModelNumbers@@YAXXZ 000000014001ad50 f   bsp.obj
 0001:0001a5d0       ?ProcessWorldModel@@YAXXZ  000000014001b5d0 f   bsp.obj
 0001:0001b5f0       ?ProcessSubModel@@YAXXZ    000000014001c5f0 f   bsp.obj
 0001:0001b880       ?ProcessModels@@YAXXZ      000000014001c880 f   bsp.obj
 0001:0001baa0       ?RegionScissor@@YAXXZ      000000014001caa0 f   bsp.obj
 0001:0001ca40       ?BSPMain@@YAHHPEAPEAD@Z    000000014001da40 f   bsp.obj
 0001:0001eba0       ?ProcessDecals@@YAXXZ      000000014001fba0 f   decals.obj
 0001:00020130       ?MakeEntityDecals@@YAXPEAUentity_t@@@Z 0000000140021130 f   decals.obj
 0001:000204e0       ?FreeNode@@YAXPEAUdnode_s@@@Z 00000001400214e0 f   decorations.obj
 0001:00020550       ?FreeNodesArray@@YAXPEAUdnode_s@@H@Z 0000000140021550 f   decorations.obj
 0001:00020650       ?EntityArrayAdd@@YAXPEAUdgroupents_s@@PEAUentity_t@@@Z 0000000140021650 f   decorations.obj
 0001:00020710       ?NewDecoreGroup@@YAPEAUdgroup_s@@PEADW4decoreMatchParm_t@@@Z 0000000140021710 f   decorations.obj
 0001:00020880       ?PopulateDecoreGroup@@YA?AW4qboolean@@PEAUentity_t@@W4decoreMatchParm_t@@PEAD@Z 0000000140021880 f   decorations.obj
 0001:00020a70       ?DecoreParseActions@@YAXPEAUdactions_s@@@Z 0000000140021a70 f   decorations.obj
 0001:000210b0       ?EntityPopulateDecorationGroups@@YAXH@Z 00000001400220b0 f   decorations.obj
 0001:00021120       ?LoadDecorationScript@@YAXXZ 0000000140022120 f   decorations.obj
 0001:00021900       ?EntityProcessActions@@YAXPEAUentity_t@@PEAUdactions_s@@@Z 0000000140022900 f   decorations.obj
 0001:00021ad0       ?CreateEntity@@YAPEAUentity_t@@PEAD@Z 0000000140022ad0 f   decorations.obj
 0001:00021b80       ?LoadFoliage@@YAXPEAD@Z    0000000140022b80 f   decorations.obj
 0001:00021de0       ?LoadRtlights@@YAXXZ       0000000140022de0 f   decorations.obj
 0001:00022750       ?ProcessDecorationGroup@@YAXH@Z 0000000140023750 f   decorations.obj
 0001:00023070       ?ProcessDecorations@@YAXXZ 0000000140024070 f   decorations.obj
 0001:000234f0       ?BuildFaceTree_r@@YAXPEAUnode_s@@PEAUface_s@@@Z 00000001400244f0 f   facebsp.obj
 0001:000238c0       ?FaceBSP@@YAPEAUtree_t@@PEAUface_s@@W4qboolean@@@Z 00000001400248c0 f   facebsp.obj
 0001:00023a70       ?MakeStructuralBSPFaceList@@YAPEAUface_s@@PEAUbrush_s@@@Z 0000000140024a70 f   facebsp.obj
 0001:00023be0       ?MakeVisibleBSPFaceList@@YAPEAUface_s@@PEAUbrush_s@@@Z 0000000140024be0 f   facebsp.obj
 0001:00023d50       ?DrawSurfToMesh@@YAPEAUmesh_t@@PEAUmapDrawSurface_s@@@Z 0000000140024d50 f   fog.obj
 0001:00023df0       ?SplitMeshByPlane@@YAXPEAUmesh_t@@QEAMMPEAPEAU1@2@Z 0000000140024df0 f   fog.obj
 0001:00024590       ?ChopPatchSurfaceByBrush@@YA?AW4qboolean@@PEAUentity_t@@PEAUmapDrawSurface_s@@PEAUbrush_s@@@Z 0000000140025590 f   fog.obj
 0001:000247f0       ?WindingFromDrawSurf@@YAPEAUwinding_t@@PEAUmapDrawSurface_s@@@Z 00000001400257f0 f   fog.obj
 0001:00024a30       ?ChopFaceSurfaceByBrush@@YA?AW4qboolean@@PEAUentity_t@@PEAUmapDrawSurface_s@@PEAUbrush_s@@@Z 0000000140025a30 f   fog.obj
 0001:00024db0       ?FogDrawSurfaces@@YAXPEAUentity_t@@@Z 0000000140025db0 f   fog.obj
 0001:00024fc0       ?FogForBounds@@YAHQEAM0M@Z 0000000140025fc0 f   fog.obj
 0001:00025140       ?CreateMapFogs@@YAXXZ      0000000140026140 f   fog.obj
 0001:00025480       ?LeakFile@@YAPEAU_xmlNode@@PEAUtree_t@@@Z 0000000140026480 f   leakfile.obj
 0001:00025900       ?CreateNewFloatPlane@@YAHQEAMM@Z 0000000140026900 f   map.obj
 0001:00025b00       ?SnapNormal@@YAXQEAM@Z     0000000140026b00 f   map.obj
 0001:00025ba0       ?FindFloatPlane@@YAHQEAMMHPEAY02M@Z 0000000140026ba0 f   map.obj
 0001:00025ef0       ?MapPlaneFromPoints@@YAHPEAY02M@Z 0000000140026ef0 f   map.obj
 0001:00026050       ?SetBrushContents@@YAXPEAUbrush_s@@@Z 0000000140027050 f   map.obj
 0001:000261a0       ?AddBrushBevels@@YAXXZ     00000001400271a0 f   map.obj
 0001:00026d40       ?FinishBrush@@YAPEAUbrush_s@@XZ 0000000140027d40 f   map.obj
 0001:00027020       ?TextureAxisFromPlane@@YAXPEAUplane_s@@QEAM1@Z 0000000140028020 f   map.obj
 0001:000271f0       ?QuakeTextureVecs@@YAXPEAUplane_s@@QEAMM1QEAY03M@Z 00000001400281f0 f   map.obj
 0001:000279c0       ?RemoveDuplicateBrushPlanes@@YA?AW4qboolean@@PEAUbrush_s@@@Z 00000001400289c0 f   map.obj
 0001:00027ce0       ?MoveBrushesToWorld@@YAXPEAUentity_t@@@Z 0000000140028ce0 f   map.obj
 0001:00027e50       ?AdjustBrushesForOrigin@@YAXPEAUentity_t@@@Z 0000000140028e50 f   map.obj
 0001:00027f90       ?SetEntityBounds@@YAXPEAUentity_t@@@Z 0000000140028f90 f   map.obj
 0001:00028320       ?LoadEntityIndexMap@@YAXPEAUentity_t@@@Z 0000000140029320 f   map.obj
 0001:000292a0       ?LoadMapFile@@YAXPEADW4qboolean@@111@Z 000000014002a2a0 f   map.obj
 0001:00029740       ?CheckMapForErrors@@YAHXZ  000000014002a740 f   map.obj
 0001:0002a750       ?ParsePatch@@YAXW4qboolean@@@Z 000000014002b750 f   patch.obj
 0001:0002af70       ?PatchMapDrawSurfs@@YAXPEAUentity_t@@@Z 000000014002bf70 f   patch.obj
 0001:0002b540       ?MakeHeadnodePortals@@YAXPEAUtree_t@@@Z 000000014002c540 f   portals.obj
 0001:0002b840       ?BaseWindingForNode@@YAPEAUwinding_t@@PEAUnode_s@@@Z 000000014002c840 f   portals.obj
 0001:0002b950       ?MakeNodePortal@@YAXPEAUnode_s@@@Z 000000014002c950 f   portals.obj
 0001:0002bb90       ?SplitNodePortals@@YAXPEAUnode_s@@@Z 000000014002cb90 f   portals.obj
 0001:0002c300       ?CalcNodeBounds@@YAXPEAUnode_s@@@Z 000000014002d300 f   portals.obj
 0001:0002c390       ?MakeTreePortals_r@@YAXPEAUnode_s@@@Z 000000014002d390 f   portals.obj
 0001:0002c480       ?FloodPortals_r@@YAXPEAUnode_s@@HW4qboolean@@@Z 000000014002d480 f   portals.obj
 0001:0002c520       ?PlaceOccupantTest@@YA?AW4qboolean@@PEAUtree_t@@PEAUnode_s@@QEAM@Z 000000014002d520 f   portals.obj
 0001:0002c5c0       ?FloodEntities@@YA?AW4qboolean@@PEAUtree_t@@W41@@Z 000000014002d5c0 f   portals.obj
 0001:0002d050       ?FloodAreas_r@@YAXPEAUnode_s@@@Z 000000014002e050 f   portals.obj
 0001:0002d1a0       ?FindAreas_r@@YAXPEAUnode_s@@@Z 000000014002e1a0 f   portals.obj
 0001:0002d1f0       ?FloodSkyboxArea_r@@YAXPEAUnode_s@@@Z 000000014002e1f0 f   portals.obj
 0001:0002d240       ?FloodAreas@@YAXPEAUtree_t@@@Z 000000014002e240 f   portals.obj
 0001:0002d2f0       ?FillOutside_r@@YAXPEAUnode_s@@@Z 000000014002e2f0 f   portals.obj
 0001:0002d350       ?FillOutside@@YAXPEAUnode_s@@@Z 000000014002e350 f   portals.obj
 0001:0002d3d0       ?WriteFloat@@YAXPEAU_iobuf@@M@Z 000000014002e3d0 f   prtfile.obj
 0001:0002d460       ?WritePortalFile_r@@YAXPEAUnode_s@@@Z 000000014002e460 f   prtfile.obj
 0001:0002d780       ?WriteFaceFile_r@@YAXPEAUnode_s@@@Z 000000014002e780 f   prtfile.obj
 0001:0002d9c0       ?NumberLeafs_r@@YAXPEAUnode_s@@@Z 000000014002e9c0 f   prtfile.obj
 0001:0002daf0       ?NumberClusters@@YAXPEAUtree_t@@@Z 000000014002eaf0 f   prtfile.obj
 0001:0002db70       ?WritePortalFile@@YAXPEAUtree_t@@@Z 000000014002eb70 f   prtfile.obj
 0001:0002dc70       ?AllocDrawSurface@@YAPEAUmapDrawSurface_s@@W4surfaceType_t@@@Z 000000014002ec70 f   surface.obj
 0001:0002dd40       ?FinishSurface@@YAXPEAUmapDrawSurface_s@@@Z 000000014002ed40 f   surface.obj
 0001:0002de00       ?CloneSurface@@YAPEAUmapDrawSurface_s@@PEAU1@PEAUshaderInfo_s@@@Z 000000014002ee00 f   surface.obj
 0001:0002df00       ?MakeSkyboxSurface@@YAPEAUmapDrawSurface_s@@PEAU1@@Z 000000014002ef00 f   surface.obj
 0001:0002df80       ?IsTriangleDegenerate@@YA?AW4qboolean@@PEAUbspDrawVert_t@@HHH@Z 000000014002ef80 f   surface.obj
 0001:0002e070       ?ClearSurface@@YAXPEAUmapDrawSurface_s@@@Z 000000014002f070 f   surface.obj
 0001:0002e0d0       ?TidyEntitySurfaces@@YAXPEAUentity_t@@@Z 000000014002f0d0 f   surface.obj
 0001:0002e250       ?CalcSurfaceTextureRange@@YA?AW4qboolean@@PEAUmapDrawSurface_s@@@Z 000000014002f250 f   surface.obj
 0001:0002e4b0       ?CalcLightmapAxis@@YA?AW4qboolean@@QEAM0@Z 000000014002f4b0 f   surface.obj
 0001:0002e5c0       ?ClassifySurfaces@@YAXHPEAUmapDrawSurface_s@@@Z 000000014002f5c0 f   surface.obj
 0001:0002ea90       ?ClassifyEntitySurfaces@@YAXPEAUentity_t@@@Z 000000014002fa90 f   surface.obj
 0001:0002eb00       ?GetShaderIndexForPoint@@YAEPEAUindexMap_s@@QEAM11@Z 000000014002fb00 f   surface.obj
 0001:0002ebf0       ?GetIndexedShader@@YAPEAUshaderInfo_s@@PEAU1@PEAUindexMap_s@@HPEAE@Z 000000014002fbf0 f   surface.obj
 0001:0002ee50       ?DrawSurfaceForSide@@YAPEAUmapDrawSurface_s@@PEAUentity_t@@PEAUbrush_s@@PEAUside_s@@PEAUwinding_t@@PEAY02MPEAHH@Z 000000014002fe50 f   surface.obj
 0001:0002f910       ?DrawSurfaceForMesh@@YAPEAUmapDrawSurface_s@@PEAUentity_t@@PEAUparseMesh_s@@PEAUmesh_t@@@Z 0000000140030910 f   surface.obj
 0001:000304b0       ?DrawSurfaceForFlare@@YAPEAUmapDrawSurface_s@@HQEAM00PEADH@Z 00000001400314b0 f   surface.obj
 0001:00030a00       ?SubdivideFaceSurfaces@@YAXPEAUentity_t@@PEAUtree_t@@@Z 0000000140031a00 f   surface.obj
 0001:00030d60       ?ClipSideIntoTree_r@@YAXPEAUwinding_t@@PEAUside_s@@PEAUnode_s@@@Z 0000000140031d60 f   surface.obj
 0001:00030e70       ?SideInBrush@@YA?AW4qboolean@@PEAUside_s@@PEAUbrush_s@@@Z 0000000140031e70 f   surface.obj
 0001:00030f60       ?CullSides@@YAXPEAUentity_t@@@Z 0000000140031f60 f   surface.obj
 0001:000313c0       ?ClipSidesIntoTree@@YAXPEAUentity_t@@PEAUtree_t@@W4qboolean@@@Z 00000001400323c0 f   surface.obj
 0001:00031630       ?AddReferenceToLeaf@@YAHPEAUmapDrawSurface_s@@PEAUnode_s@@@Z 0000000140032630 f   surface.obj
 0001:000316e0       ?AddReferenceToTree_r@@YAHPEAUmapDrawSurface_s@@PEAUnode_s@@W4qboolean@@@Z 00000001400326e0 f   surface.obj
 0001:000317b0       ?FilterPointIntoTree_r@@YAHQEAMPEAUmapDrawSurface_s@@PEAUnode_s@@@Z 00000001400327b0 f   surface.obj
 0001:00031890       ?FilterWindingIntoTree_r@@YAHPEAUwinding_t@@PEAUmapDrawSurface_s@@PEAUnode_s@@@Z 0000000140032890 f   surface.obj
 0001:000326a0       ?EmitDrawVerts@@YAXPEAUmapDrawSurface_s@@PEAUbspDrawSurface_t@@H@Z 00000001400336a0 f   surface.obj
 0001:00032870       ?FindDrawIndexes@@YAHHPEAH@Z 0000000140033870 f   surface.obj
 0001:000329d0       ?EmitDrawIndexes@@YAXPEAUmapDrawSurface_s@@PEAUbspDrawSurface_t@@@Z 00000001400339d0 f   surface.obj
 0001:00032c00       ?EmitFlareSurface@@YAXPEAUmapDrawSurface_s@@@Z 0000000140033c00 f   surface.obj
 0001:00032d30       ?EmitPatchSurface@@YAXPEAUentity_t@@PEAUmapDrawSurface_s@@@Z 0000000140033d30 f   surface.obj
 0001:000340d0       ?MakeFogHullSurfs@@YAXPEAUentity_t@@PEAUtree_t@@PEAD@Z 00000001400350d0 f   surface.obj
 0001:000344b0       ?BiasSurfaceTextures@@YAXPEAUmapDrawSurface_s@@@Z 00000001400354b0 f   surface.obj
 0001:00034530       ?AddSurfaceModelsToTriangle_r@@YAHPEAUmapDrawSurface_s@@PEAUsurfaceModel_s@@PEAPEAUbspDrawVert_t@@@Z 0000000140035530 f   surface.obj
 0001:00034b90       ?AddSurfaceModels@@YAHPEAUmapDrawSurface_s@@@Z 0000000140035b90 f   surface.obj
 0001:000355c0       ?FixDrawsurfVertexAlpha@@YAXH@Z 00000001400365c0 f   surface.obj
 0001:00036150       ?FixVertexAlpha@@YAXPEAUentity_t@@W4qboolean@@@Z 0000000140037150 f   surface.obj
 0001:000363d0       ?ApplyVertexMods@@YAXPEAUentity_t@@W4qboolean@@@Z 00000001400373d0 f   surface.obj
 0001:00036610       ?FilterDrawsurfsIntoTree@@YAXPEAUentity_t@@PEAUtree_t@@W4qboolean@@@Z 0000000140037610 f   surface.obj
 0001:00036ce0       ?EmitDrawsurfsSimpleStats@@YAXXZ 0000000140037ce0 f   surface.obj
 0001:00036e50       ?SetSurfaceExtra@@YAXPEAUmapDrawSurface_s@@H@Z 0000000140037e50 f   surface_extra.obj
 0001:00036fa0       ?WriteSurfaceExtraFile@@YAXPEBD@Z 0000000140037fa0 f   surface_extra.obj
 0001:000374a0       ?LoadSurfaceExtraFile@@YAXPEBD@Z 00000001400384a0 f   surface_extra.obj
 0001:00037ed0       ?Foliage@@YAXPEAUmapDrawSurface_s@@@Z 0000000140038ed0 f   surface_foliage.obj
 0001:00038510       ?Fur@@YAXPEAUmapDrawSurface_s@@@Z 0000000140039510 f   surface_fur.obj
 0001:000388b0       ?FindMetaTriangle@@YAHPEAUmetaTriangle_s@@PEAUbspDrawVert_t@@11H@Z 00000001400398b0 f   surface_meta.obj
 0001:00039020       ?TriangulatePatchSurface@@YAXPEAUentity_t@@PEAUmapDrawSurface_s@@@Z 000000014003a020 f   surface_meta.obj
 0001:000392e0       ?FanFaceSurface@@YAXPEAUmapDrawSurface_s@@@Z 000000014003a2e0 f   surface_meta.obj
 0001:00039630       ?StripFaceSurface@@YAXPEAUmapDrawSurface_s@@W4qboolean@@@Z 000000014003a630 f   surface_meta.obj
 0001:00039940       ?EmitMetaStats@@YAXXZ      000000014003a940 f   surface_meta.obj
 0001:000399f0       ?MakeEntityMetaTriangles@@YAXPEAUentity_t@@@Z 000000014003a9f0 f   surface_meta.obj
 0001:00039c40       ?MetaTriangleFindAreaWeight@@YAXH@Z 000000014003ac40 f   surface_meta.obj
 0001:0003a1b0       ?SmoothMetaTriangles@@YAXXZ 000000014003b1b0 f   surface_meta.obj
 0001:0003acf0       ?AddMetaVertToSurface@@YAHPEAUmapDrawSurface_s@@PEAUbspDrawVert_t@@PEAH@Z 000000014003bcf0 f   surface_meta.obj
 0001:0003c180       ?GroupMetaTriangles@@YAXXZ 000000014003d180 f   surface_meta.obj
 0001:0003c9a0       ?MergeMetaTrianglesThread@@YAXH@Z 000000014003d9a0 f   surface_meta.obj
 0001:0003cab0       ?MergeMetaTriangles@@YAXXZ 000000014003dab0 f   surface_meta.obj
 0001:0003cd50       ?InsertPointOnEdge@@YAXQEAMPEAUedgeLine_s@@@Z 000000014003dd50 f   tjunction.obj
 0001:0003ce80       ?AddEdge@@YAHQEAM0W4qboolean@@@Z 000000014003de80 f   tjunction.obj
 0001:0003d340       ?AddSurfaceEdges@@YAXPEAUmapDrawSurface_s@@@Z 000000014003e340 f   tjunction.obj
 0001:0003d3d0       ?ColinearEdge@@YA?AW4qboolean@@QEAM00@Z 000000014003e3d0 f   tjunction.obj
 0001:0003d4f0       ?AddPatchEdges@@YAXPEAUmapDrawSurface_s@@@Z 000000014003e4f0 f   tjunction.obj
 0001:0003d6c0       ?FixSurfaceJunctions@@YAXPEAUmapDrawSurface_s@@@Z 000000014003e6c0 f   tjunction.obj
 0001:0003dc40       ?FixBrokenSurface@@YA?AW4qboolean@@PEAUmapDrawSurface_s@@@Z 000000014003ec40 f   tjunction.obj
 0001:0003e000       ?EdgeCompare@@YAHPEBX0@Z   000000014003f000 f   tjunction.obj
 0001:0003e010       ?FixTJunctions@@YAXPEAUentity_t@@@Z 000000014003f010 f   tjunction.obj
 0001:0003e2e0       ?FreeTreePortals_r@@YAXPEAUnode_s@@@Z 000000014003f2e0 f   tree.obj
 0001:0003e470       ?FreeTree_r@@YAXPEAUnode_s@@@Z 000000014003f470 f   tree.obj
 0001:0003e4d0       ?FreeTree@@YAXPEAUtree_t@@@Z 000000014003f4d0 f   tree.obj
 0001:0003e550       ?EmitShader@@YAHPEBDPEAH1@Z 000000014003f550 f   writebsp.obj
 0001:0003e6c0       ?EmitPlanes@@YAXXZ         000000014003f6c0 f   writebsp.obj
 0001:0003e810       ?EmitLeaf@@YAXPEAUnode_s@@@Z 000000014003f810 f   writebsp.obj
 0001:0003e980       ?EmitDrawNode_r@@YAHPEAUnode_s@@@Z 000000014003f980 f   writebsp.obj
 0001:0003eab0       ?SetModelNumbers@@YAXXZ    000000014003fab0 f   writebsp.obj
 0001:0003eb50       ?SetLightStyles@@YAXXZ     000000014003fb50 f   writebsp.obj
 0001:0003eea0       ?EndBSPFile@@YAXXZ         000000014003fea0 f   writebsp.obj
 0001:0003efa0       ?EmitBrushes@@YAXPEAUbrush_s@@PEAH1@Z 000000014003ffa0 f   writebsp.obj
 0001:0003f2a0       ?EmitFogs@@YAXXZ           00000001400402a0 f   writebsp.obj
 0001:0003f3c0       ?BeginModel@@YAXXZ         00000001400403c0 f   writebsp.obj
 0001:0003f770       ?EndModel@@YAXPEAUentity_t@@PEAUnode_s@@@Z 0000000140040770 f   writebsp.obj
 0001:0003fd70       ?CreateEntityLights@@YAXXZ 0000000140040d70 f   light.obj
 0001:00040da0       ?CreateSurfaceLights@@YAXXZ 0000000140041da0 f   light.obj
 0001:00041130       ?SetEntityOrigins@@YAXXZ   0000000140042130 f   light.obj
 0001:000413b0       ?PointToPolygonFormFactor@@YAMQEBM0PEBUwinding_t@@@Z 00000001400423b0 f   light.obj
 0001:00041670       ?LightContribution@@YAHPEAUtrace_t@@HW4qboolean@@@Z 0000000140042670 f   light.obj
 0001:00041e50       ?LightContributionAllStyles@@YAXPEAUtrace_t@@QEAEQEAY02MHW4qboolean@@@Z 0000000140042e50 f   light.obj
 0001:00042090       ?LightContributionSuper@@YAHPEAUtrace_t@@HW4qboolean@@HQEBM22QEAM@Z 0000000140043090 f   light.obj
 0001:00042760       ?IlluminateGridPoint@@YAXPEAUtrace_t@@HPEAPEAUrawLightmap_s@@H@Z 0000000140043760 f   light.obj
 0001:000440a0       ?IlluminateGridBlock@@YAXH@Z 00000001400450a0 f   light.obj
 0001:000449e0       ?FloodGridPoint@@YAXH@Z    00000001400459e0 f   light.obj
 0001:00044d00       ?FinishIlluminateGrid@@YAXXZ 0000000140045d00 f   light.obj
 0001:00044eb0       ?IlluminateGrid@@YAXXZ     0000000140045eb0 f   light.obj
 0001:00044f80       ?IlluminateGridByLightmap@@YAXXZ 0000000140045f80 f   light.obj
 0001:00045050       ?SetupGrid@@YAXXZ          0000000140046050 f   light.obj
 0001:00045b00       ?SampleGrid@@YAXQEAM000@Z  0000000140046b00 f   light.obj
 0001:00045fe0       ?LightWorld@@YAXPEAD@Z     0000000140046fe0 f   light.obj
 0001:00047a90       ?LightMain@@YAHHPEAPEAD@Z  0000000140048a90 f   light.obj
 0001:0004b3f0       ?RadFreeLights@@YAXXZ      000000014004c3f0 f   light_bounce.obj
 0001:0004b8b0       ?RadSampleImage@@YA?AW4qboolean@@PEAEHHQEAM1@Z 000000014004c8b0 f   light_bounce.obj
 0001:0004cbb0       ?RadLightForTriangles@@YAXHHPEAUrawLightmap_s@@PEAUshaderInfo_s@@MMPEAUclipWork_t@@@Z 000000014004dbb0 f   light_bounce.obj
 0001:0004cda0       ?RadLightForPatch@@YAXHHPEAUrawLightmap_s@@PEAUshaderInfo_s@@MMPEAUclipWork_t@@@Z 000000014004dda0 f   light_bounce.obj
 0001:0004d310       ?RadLight@@YAXH@Z          000000014004e310 f   light_bounce.obj
 0001:0004d500       ?RadCreateDiffuseLights@@YAXXZ 000000014004e500 f   light_bounce.obj
 0001:0004ddf0       ?ClipTraceWinding@@YAXPEAUtraceWinding_s@@QEAM00@Z 000000014004edf0 f   light_trace.obj
 0001:0004ff70       ?SetupTraceNodes@@YAXXZ    0000000140050f70 f   light_trace.obj
 0001:00050190       ?TraceTriangle@@YA?AW4qboolean@@PEAUtraceInfo_s@@PEAUtraceTriangle_s@@PEAUtrace_t@@@Z 0000000140051190 f   light_trace.obj
 0001:00050cb0       ?TraceLine@@YAXPEAUtrace_t@@@Z 0000000140051cb0 f   light_trace.obj
 0001:00050ea0       ?SetupTrace@@YAMPEAUtrace_t@@@Z 0000000140051ea0 f   light_trace.obj
 0001:00050f20       ?ColorToBytesLinear@@YAXPEBMPEAEMW4qboolean@@@Z 0000000140051f20 f   light_ydnar.obj
 0001:000511c0       ?ColorToBytesGamma@@YAXPEBMPEAEMW4qboolean@@@Z 00000001400521c0 f   light_ydnar.obj
 0001:00051500       ?ColorToBytesLinearExposure@@YAXPEBMPEAEMW4qboolean@@@Z 0000000140052500 f   light_ydnar.obj
 0001:000517d0       ?ColorToBytesGammaExposure@@YAXPEBMPEAEMW4qboolean@@@Z 00000001400527d0 f   light_ydnar.obj
 0001:00051b50       ?ColorToBytesLinearCompensate@@YAXPEBMPEAEMW4qboolean@@@Z 0000000140052b50 f   light_ydnar.obj
 0001:00051e00       ?ColorToBytesGammaCompensate@@YAXPEBMPEAEMW4qboolean@@@Z 0000000140052e00 f   light_ydnar.obj
 0001:00052150       ?ColorToBytesLinearExposureCompensate@@YAXPEBMPEAEMW4qboolean@@@Z 0000000140053150 f   light_ydnar.obj
 0001:00052450       ?ColorToBytesGammaExposureCompensate@@YAXPEBMPEAEMW4qboolean@@@Z 0000000140053450 f   light_ydnar.obj
 0001:000527e0       ?SmoothNormals@@YAXXZ      00000001400537e0 f   light_ydnar.obj
 0001:00055020       ?MapRawLightmap@@YAXH@Z    0000000140056020 f   light_ydnar.obj
 0001:00055de0       ?DirtModeName@@YAPEADPEAW4dirtMode_t@@@Z 0000000140056de0 f   light_ydnar.obj
 0001:00055e50       ?EnableDirtForEntity@@YAXH@Z 0000000140056e50 f   light_ydnar.obj
 0001:00055ef0       ?SetupDirtForEntity@@YAXH@Z 0000000140056ef0 f   light_ydnar.obj
 0001:000566f0       ?SetupDirt@@YAXXZ          00000001400576f0 f   light_ydnar.obj
 0001:00056a10       ?DirtForSample@@YAMPEAUtrace_t@@@Z 0000000140057a10 f   light_ydnar.obj
 0001:00057420       ?DirtyRawLightmap@@YAXH@Z  0000000140058420 f   light_ydnar.obj
 0001:00057980       ?ApplyDirt@@YAXPEAM000HMM@Z 0000000140058980 f   light_ydnar.obj
 0001:000584b0       ?LightGridRawLightmap@@YAXH@Z 00000001400594b0 f   light_ydnar.obj
 0001:00058940       ?IlluminateRawLightmap@@YAXH@Z 0000000140059940 f   light_ydnar.obj
 0001:0005a400       ?FilterRawLightmap@@YAXH@Z 000000014005b400 f   light_ydnar.obj
 0001:0005ac80       ?WriteRawLightmapsFile@@YAXPEBD@Z 000000014005bc80 f   light_ydnar.obj
 0001:0005b900       ?IlluminateVertexes@@YAXH@Z 000000014005c900 f   light_ydnar.obj
 0001:0005cc20       ?SetupBrushes@@YAXXZ       000000014005dc20 f   light_ydnar.obj
 0001:0005cdf0       ?ClusterVisible@@YA?AW4qboolean@@HH@Z 000000014005ddf0 f   light_ydnar.obj
 0001:0005ce80       ?PointInLeafNum_r@@YAHQEAMH@Z 000000014005de80 f   light_ydnar.obj
 0001:0005cf90       ?ClusterForPointExt@@YAHQEAMM@Z 000000014005df90 f   light_ydnar.obj
 0001:0005d2c0       ?ClusterForPointExtFilter@@YAHQEAMMHPEAH@Z 000000014005e2c0 f   light_ydnar.obj
 0001:0005d330       ?SetupEnvelopes@@YAXW4qboolean@@0@Z 000000014005e330 f   light_ydnar.obj
 0001:0005dda0       ?CreateTraceLightsForBounds@@YAXW4qboolean@@QEAM11HPEAHHPEAUtrace_t@@@Z 000000014005eda0 f   light_ydnar.obj
 0001:0005e130       ?CreateTraceLightsForSurface@@YAXHPEAUtrace_t@@@Z 000000014005f130 f   light_ydnar.obj
 0001:0005e250       ?SetupFloodLight@@YAXXZ    000000014005f250 f   light_ydnar.obj
 0001:0005e6a0       ?WriteTGA24@@YAXPEADPEAEHHW4qboolean@@@Z 000000014005f6a0 f   lightmaps_ydnar.obj
 0001:0005e820       ?ExportLightmaps@@YAXXZ    000000014005f820 f   lightmaps_ydnar.obj
 0001:0005e9c0       ?ExportLightmapsMain@@YAHHPEAPEAD@Z 000000014005f9c0 f   lightmaps_ydnar.obj
 0001:0005eb00       ?ImportLightmapsMain@@YAHHPEAPEAD@Z 000000014005fb00 f   lightmaps_ydnar.obj
 0001:0005eff0       ?GetExternalLightmapPath@@YAXPEAD0H00@Z 000000014005fff0 f   lightmaps_ydnar.obj
 0001:0005f1d0       ?FinishRawLightmap@@YAXH@Z 00000001400601d0 f   lightmaps_ydnar.obj
 0001:0005f8c0       ?AddPatchToRawLightmap@@YA?AW4qboolean@@HPEAUrawLightmap_s@@@Z 00000001400608c0 f   lightmaps_ydnar.obj
 0001:0005fe70       ?AddSurfaceToRawLightmap@@YA?AW4qboolean@@HPEAUrawLightmap_s@@@Z 0000000140060e70 f   lightmaps_ydnar.obj
 0001:00060b80       ?SetupSurfaceLightmaps@@YAXXZ 0000000140061b80 f   lightmaps_ydnar.obj
 0001:00061ad0       ?AllocateSurfaceLightmaps@@YAXXZ 0000000140062ad0 f   lightmaps_ydnar.obj
 0001:00061cd0       ?AddStitchLuxels@@YAXHHHHPEAH0H@Z 0000000140062cd0 f   lightmaps_ydnar.obj
 0001:00061f20       ?StitchRawLightmap@@YAXH@Z 0000000140062f20 f   lightmaps_ydnar.obj
 0001:00062910       ?StitchLuxelsCompare@@YAHPEBX0@Z 0000000140063910 f   lightmaps_ydnar.obj
 0001:00062960       ?StitchRawLightmaps@@YAXXZ 0000000140063960 f   lightmaps_ydnar.obj
 0001:00064d70       ?SubsamplePixelForFloodLightmapBorders_r@@YAHPEAUoutLightmap_s@@HHHQEAM1@Z 0000000140065d70 f   lightmaps_ydnar.obj
 0001:000658f0       ?FloodLightmapBorders@@YAXPEAUoutLightmap_s@@@Z 00000001400668f0 f   lightmaps_ydnar.obj
 0001:00065cc0       ?StoreSurfaceLightmaps@@YAXXZ 0000000140066cc0 f   lightmaps_ydnar.obj
 0001:00068880       ?PlaneFromWinding@@YAXPEAUfixedWinding_t@@PEAUvisPlane_t@@@Z 0000000140069880 f   vis.obj
 0001:00068990       ?NewFixedWinding@@YAPEAUfixedWinding_t@@H@Z 0000000140069990 f   vis.obj
 0001:00068a00       ?PComp@@YAHPEBX0@Z         0000000140069a00 f   vis.obj
 0001:00068a30       ?LeafVectorFromPortalVector@@YAHPEAE0@Z 0000000140069a30 f   vis.obj
 0001:00068b90       ?ClusterMerge@@YAXH@Z      0000000140069b90 f   vis.obj
 0001:00068d90       ?CalcPortalVis@@YAXXZ      0000000140069d90 f   vis.obj
 0001:00068e20       ?CalcPassageVis@@YAXXZ     0000000140069e20 f   vis.obj
 0001:00068f50       ?CalcPassagePortalVis@@YAXXZ 0000000140069f50 f   vis.obj
 0001:00069080       ?CalcVis@@YAXXZ            000000014006a080 f   vis.obj
 0001:00069360       ?SetPortalSphere@@YAXPEAUvportal_t@@@Z 000000014006a360 f   vis.obj
 0001:000694c0       ?TryMergeLeaves@@YAHHH@Z   000000014006a4c0 f   vis.obj
 0001:00069820       ?MergeLeaves@@YAXXZ        000000014006a820 f   vis.obj
 0001:00069980       ?TryMergeWinding@@YAPEAUfixedWinding_t@@PEAU1@0QEAM@Z 000000014006a980 f   vis.obj
 0001:00069eb0       ?MergeLeafPortals@@YAXXZ   000000014006aeb0 f   vis.obj
 0001:0006a0c0       ?LoadPortals@@YAXPEAD@Z    000000014006b0c0 f   vis.obj
 0001:0006a8f0       ?VisMain@@YAHHPEAPEAD@Z    000000014006b8f0 f   vis.obj
 0001:0006ae40       ?FreeStackWinding@@YAXPEAUfixedWinding_t@@PEAUpstack_s@@@Z 000000014006be40 f   visflow.obj
 0001:0006aea0       ?VisChopWinding@@YAPEAUfixedWinding_t@@PEAU1@PEAUpstack_s@@PEAUvisPlane_t@@@Z 000000014006bea0 f   visflow.obj
 0001:0006b350       ?ClipToSeperators@@YAPEAUfixedWinding_t@@PEAU1@00W4qboolean@@PEAUpstack_s@@@Z 000000014006c350 f   visflow.obj
 0001:0006b970       ?RecursiveLeafFlow@@YAXHPEAUthreaddata_t@@PEAUpstack_s@@@Z 000000014006c970 f   visflow.obj
 0001:0006c020       ?PortalFlow@@YAXH@Z        000000014006d020 f   visflow.obj
 0001:0006c1e0       ?RecursivePassageFlow@@YAXPEAUvportal_t@@PEAUthreaddata_t@@PEAUpstack_s@@@Z 000000014006d1e0 f   visflow.obj
 0001:0006c460       ?PassageFlow@@YAXH@Z       000000014006d460 f   visflow.obj
 0001:0006c530       ?RecursivePassagePortalFlow@@YAXPEAUvportal_t@@PEAUthreaddata_t@@PEAUpstack_s@@@Z 000000014006d530 f   visflow.obj
 0001:0006cbf0       ?PassagePortalFlow@@YAXH@Z 000000014006dbf0 f   visflow.obj
 0001:0006ccc0       ?PassageChopWinding@@YAPEAUfixedWinding_t@@PEAU1@0PEAUvisPlane_t@@@Z 000000014006dcc0 f   visflow.obj
 0001:0006d000       ?AddSeperators@@YAHPEAUfixedWinding_t@@0W4qboolean@@PEAUvisPlane_t@@H@Z 000000014006e000 f   visflow.obj
 0001:0006d5c0       ?CreatePassages@@YAXH@Z    000000014006e5c0 f   visflow.obj
 0001:0006dbd0       ?PassageMemory@@YAXXZ      000000014006ebd0 f   visflow.obj
 0001:0006dc90       ?SimpleFlood@@YAXPEAUvportal_t@@H@Z 000000014006ec90 f   visflow.obj
 0001:0006dd90       ?BasePortalVis@@YAXH@Z     000000014006ed90 f   visflow.obj
 0001:0006f910       ?ConvertBSPToASE@@YAHPEADH@Z 0000000140070910 f   convert_ase.obj
 0001:000705a0       ?ConvertBSPToMap@@YAHPEADH@Z 00000001400715a0 f   convert_map.obj
 0001:000709e0       ?safe_malloc_f@@YAPEAX_K@Z 00000001400719e0 f   cmdlib.obj
 0001:00070a20       ?safe_malloc_log@@YAPEAX_KPEBDH@Z 0000000140071a20 f   cmdlib.obj
 0001:00070b70       ?safe_malloc_logend@@YAXXZ 0000000140071b70 f   cmdlib.obj
 0001:00070c10       ?ExpandArg@@YAPEADPEBD@Z   0000000140071c10 f   cmdlib.obj
 0001:00070ca0       ?ExpandPath@@YAPEADPEBD@Z  0000000140071ca0 f   cmdlib.obj
 0001:00070d10       ?Q_getwd@@YAXPEAD@Z        0000000140071d10 f   cmdlib.obj
 0001:00070d70       ?LoadFile@@YAHPEBDPEAPEAX@Z 0000000140071d70 f   cmdlib.obj
 0001:00070e60       ?DefaultExtension@@YAXPEADPEBD@Z 0000000140071e60 f   cmdlib.obj
 0001:00070ed0       ?LBMRLEDecompress@@YAPEAEPEAE0H@Z 0000000140071ed0 f   imagelib.obj
 0001:00070fa0       ?LoadLBM@@YAXPEBDPEAPEAE1@Z 0000000140071fa0 f   imagelib.obj
 0001:00071390       ?LoadPCX@@YAXPEBDPEAPEAE1PEAH2@Z 0000000140072390 f   imagelib.obj
 0001:00071630       ?LoadBMP@@YAXPEBDPEAPEAE1PEAH2@Z 0000000140072630 f   imagelib.obj
 0001:00071c50       ?Load256Image@@YAXPEBDPEAPEAE1PEAH2@Z 0000000140072c50 f   imagelib.obj
 0001:00071e60       ?TargaError@@YAXPEAU_TargaHeader@@PEBD@Z 0000000140072e60 f   imagelib.obj
 0001:00071f10       ?LoadTGABuffer@@YAXPEBE0PEAPEAEPEAH2@Z 0000000140072f10 f   imagelib.obj
 0001:000725e0       ?LoadTGA@@YAXPEBDPEAPEAEPEAH2@Z 00000001400735e0 f   imagelib.obj
 0001:00072670       ?WriteTGA@@YAXPEBDPEAEHH@Z 0000000140073670 f   imagelib.obj
 0001:00072780       ?Load32BitImage@@YAXPEBDPEAPEAIPEAH2@Z 0000000140073780 f   imagelib.obj
 0001:00072930       ?xml_SendNode@@YAXPEAU_xmlNode@@@Z 0000000140073930 f   inout.obj
 0001:00072a50       ?xml_Select@@YAXPEADHHW4qboolean@@@Z 0000000140073a50 f   inout.obj
 0001:00072c30       ?xml_Point@@YAXPEADQEAMW4qboolean@@@Z 0000000140073c30 f   inout.obj
 0001:00072db0       ?xml_Winding@@YAXPEADQEAY02MHW4qboolean@@@Z 0000000140073db0 f   inout.obj
 0001:00072f60       ?Broadcast_Setup@@YAXPEBD@Z 0000000140073f60 f   inout.obj
 0001:00072fe0       ?Broadcast_Shutdown@@YAXXZ 0000000140073fe0 f   inout.obj
 0001:00073020       ?Sys_FPrintf@@YAXHPEBDZZ   0000000140074020 f   inout.obj
 0001:000731b0       ?Sys_Printf@@YAXPEBDZZ     00000001400741b0 f   inout.obj
 0001:00073300       ?Sys_Warning@@YAXHPEBDZZ   0000000140074300 f   inout.obj
 0001:00073450       ?Sys_Warning@@YAXHHPEBDZZ  0000000140074450 f   inout.obj
 0001:000734b0       ?Sys_Warning@@YAXQEAY02MHPEBDZZ 00000001400744b0 f   inout.obj
 0001:00073510       ?Sys_Warning@@YAXPEAUwinding_t@@PEBDZZ 0000000140074510 f   inout.obj
 0001:00073560       ?Sys_Warning@@YAXQEAMPEBDZZ 0000000140074560 f   inout.obj
 0001:000735d0       ?Sys_Warning@@YAXPEBDZZ    00000001400745d0 f   inout.obj
 0001:00073700       ?Sys_Error@@YAXHHPEBDZZ    0000000140074700 f   inout.obj
 0001:00073760       ?Sys_Error@@YAXQEAY02MHPEBDZZ 0000000140074760 f   inout.obj
 0001:000737c0       ?Sys_Error@@YAXPEBDZZ      00000001400747c0 f   inout.obj
 0001:000738e0       ?Error@@YAXPEBDZZ          00000001400748e0 f   inout.obj
 0001:00073a30       ?MD4Update@@YAXPEAUMD4_CTX_s@@PEAEI@Z 0000000140074a30 f   md4.obj
 0001:00073b00       ?MD4Final@@YAXQEAEPEAUMD4_CTX_s@@@Z 0000000140074b00 f   md4.obj
 0001:000741b0       ?AllocWinding@@YAPEAUwinding_t@@H@Z 00000001400751b0 f   polylib.obj
 0001:00074250       ?FreeWinding@@YAXPEAUwinding_t@@@Z 0000000140075250 f   polylib.obj
 0001:00074290       ?WindingArea@@YAMPEAUwinding_t@@@Z 0000000140075290 f   polylib.obj
 0001:000743f0       ?BaseWindingForPlane@@YAPEAUwinding_t@@QEAMM@Z 00000001400753f0 f   polylib.obj
 0001:000747e0       ?ReverseWinding@@YAPEAUwinding_t@@PEAU1@@Z 00000001400757e0 f   polylib.obj
 0001:000748f0       ?ClipWindingEpsilon@@YAXPEAUwinding_t@@QEAMMMPEAPEAU1@2@Z 00000001400758f0 f   polylib.obj
 0001:00074df0       ?ChopWindingInPlace@@YAXPEAPEAUwinding_t@@QEAMMM@Z 0000000140075df0 f   polylib.obj
 0001:00075220       ?WindingOnPlaneSide@@YAHPEAUwinding_t@@QEAMM@Z 0000000140076220 f   polylib.obj
 0001:00075340       ?AddWindingToConvexHull@@YAXPEAUwinding_t@@PEAPEAU1@QEAM@Z 0000000140076340 f   polylib.obj
 0001:00075990       ?BaseDWindingForPlane@@YAPEAUdwinding_t@@QEAMMM@Z 0000000140076990 f   polylib.obj
 0001:00075d10       ?WindingFromDWinding@@YAPEAUwinding_t@@PEAUdwinding_t@@@Z 0000000140076d10 f   polylib.obj
 0001:00075e40       ?ChopDWindingInPlace@@YAXPEAPEAUdwinding_t@@QEAMMM@Z 0000000140076e40 f   polylib.obj
 0001:00076270       ?FixDWinding@@YA?AW4qboolean@@PEAUdwinding_t@@@Z 0000000140077270 f   polylib.obj
 0001:000763e0       ?AddScriptToStack@@YAXPEBDH@Z 00000001400773e0 f   scriplib.obj
 0001:000764e0       ?EndOfScript@@YA?AW4qboolean@@W41@@Z 00000001400774e0 f   scriplib.obj
 0001:000765d0       ?GetToken@@YA?AW4qboolean@@W41@@Z 00000001400775d0 f   scriplib.obj
 0001:00076900       ?TokenAvailable@@YA?AW4qboolean@@XZ 0000000140077900 f   scriplib.obj
 0001:00076940       ?MatchToken@@YAXPEAD@Z     0000000140077940 f   scriplib.obj
 0001:000769a0       ?Parse1DMatrix@@YAXHPEAM@Z 00000001400779a0 f   scriplib.obj
 0001:00076a90       ?Parse2DMatrix@@YAXHHPEAM@Z 0000000140077a90 f   scriplib.obj
 0001:00076b60       ?GetThreadWork@@YAHXZ      0000000140077b60 f   threads.obj
 0001:00076ca0       ?RunThreadsOnIndividualThread@@YAXH@Z 0000000140077ca0 f   threads.obj
 0001:00076cd0       ?RunThreadsOnIndividual@@YAXHW4qboolean@@P6AXH@Z@Z 0000000140077cd0 f   threads.obj
 0001:00076d70       ?RunThreadsOn@@YAXHW4qboolean@@P6AXH@Z@Z 0000000140077d70 f   threads.obj
 0001:00076e10       ?RunSameThreadOn@@YAXHW4qboolean@@P6AXH@Z@Z 0000000140077e10 f   threads.obj
 0001:00076f20       ?RunSameThreadOnIndividual@@YAXHW4qboolean@@P6AXH@Z@Z 0000000140077f20 f   threads.obj
 0001:00077050       ?_RunThreadsOn@@YAXHW4qboolean@@P6AXH@Z@Z 0000000140078050 f   threads.obj
 0001:000771d0       ?_ThreadMutexLock@@YAXPEAUThreadMutex_s@@PEADH@Z 00000001400781d0 f   threads.obj
 0001:000773d0       ?unzOpen@@YAPEAXPEBD@Z     00000001400783d0 f   unzip.obj
 0001:00077980       ?unzGoToFirstFile@@YAHPEAX@Z 0000000140078980 f   unzip.obj
 0001:000779e0       ?unzGoToNextFile@@YAHPEAX@Z 00000001400789e0 f   unzip.obj
 0001:00077c60       ?unzOpenCurrentFile@@YAHPEAX@Z 0000000140078c60 f   unzip.obj
 0001:00077de0       ?unzReadCurrentFile@@YAHPEAX0I@Z 0000000140078de0 f   unzip.obj
 0001:00078010       ?unzCloseCurrentFile@@YAHPEAX@Z 0000000140079010 f   unzip.obj
 0001:000780c0       ?crc32@@YAKKPEBEI@Z        00000001400790c0 f   unzip.obj
 0001:00078210       ?inflate_blocks_reset@@YAXPEAUinflate_blocks_state@@PEAUz_stream_s@@PEAK@Z 0000000140079210 f   unzip.obj
 0001:00078290       ?inflate_blocks_new@@YAPEAUinflate_blocks_state@@PEAUz_stream_s@@P6AKKPEBEI@ZI@Z 0000000140079290 f   unzip.obj
 0001:00078370       ?inflate_blocks@@YAHPEAUinflate_blocks_state@@PEAUz_stream_s@@H@Z 0000000140079370 f   unzip.obj
 0001:00078f50       ?inflate_blocks_free@@YAHPEAUinflate_blocks_state@@PEAUz_stream_s@@@Z 0000000140079f50 f   unzip.obj
 0001:00078ff0       ?inflate_flush@@YAHPEAUinflate_blocks_state@@PEAUz_stream_s@@H@Z 0000000140079ff0 f   unzip.obj
 0001:00079610       ?inflate_trees_bits@@YAHPEAI0PEAPEAUinflate_huft_s@@PEAU1@PEAUz_stream_s@@@Z 000000014007a610 f   unzip.obj
 0001:000796f0       ?inflate_fast@@YAHIIPEAUinflate_huft_s@@0PEAUinflate_blocks_state@@PEAUz_stream_s@@@Z 000000014007a6f0 f   unzip.obj
 0001:00079a80       ?inflate_codes_new@@YAPEAUinflate_codes_state@@IIPEAUinflate_huft_s@@0PEAUz_stream_s@@@Z 000000014007aa80 f   unzip.obj
 0001:00079af0       ?inflate_codes@@YAHPEAUinflate_blocks_state@@PEAUz_stream_s@@H@Z 000000014007aaf0 f   unzip.obj
 0001:0007a0f0       ?adler32@@YAKKPEBEI@Z      000000014007b0f0 f   unzip.obj
 0001:0007a260       ?inflateReset@@YAHPEAUz_stream_s@@@Z 000000014007b260 f   unzip.obj
 0001:0007a320       ?inflateEnd@@YAHPEAUz_stream_s@@@Z 000000014007b320 f   unzip.obj
 0001:0007a380       ?inflateInit2_@@YAHPEAUz_stream_s@@HPEBDH@Z 000000014007b380 f   unzip.obj
 0001:0007a470       ?inflate@@YAHPEAUz_stream_s@@H@Z 000000014007b470 f   unzip.obj
 0001:0007a8f0       ?zcalloc@@YAPEAEPEAEII@Z   000000014007b8f0 f   unzip.obj
 0001:0007a910       ?zcfree@@YAXPEAE0@Z        000000014007b910 f   unzip.obj
 0001:0007aab0       ?vfsInitDirectory@@YAXPEBD@Z 000000014007bab0 f   vfs.obj
 0001:0007ac80       ?vfsGetFileCount@@YAHPEBD@Z 000000014007bc80 f   vfs.obj
 0001:0007ae00       ?vfsLoadFile@@YAHPEBDPEAPEAXH@Z 000000014007be00 f   vfs.obj
 0001:0007b150       WinPrint                   000000014007c150 f   l_net:l_net.obj
 0001:0007b160       Net_Send                   000000014007c160 f   l_net:l_net.obj
 0001:0007b1b0       Net_AllocSocket            000000014007c1b0 f   l_net:l_net.obj
 0001:0007b1e0       Net_FreeSocket             000000014007c1e0 f   l_net:l_net.obj
 0001:0007b1f0       Net_Connect                000000014007c1f0 f   l_net:l_net.obj
 0001:0007b2a0       Net_Disconnect             000000014007c2a0 f   l_net:l_net.obj
 0001:0007b2d0       Net_StringToAddress        000000014007c2d0 f   l_net:l_net.obj
 0001:0007b2f0       Net_Setup                  000000014007c2f0 f   l_net:l_net.obj
 0001:0007b320       NMSG_Clear                 000000014007c320 f   l_net:l_net.obj
 0001:0007b330       NMSG_WriteLong             000000014007c330 f   l_net:l_net.obj
 0001:0007b3a0       NMSG_WriteString           000000014007c3a0 f   l_net:l_net.obj
 0001:0007b430       WINS_ErrorMessage          000000014007c430 f   l_net:l_net_wins.obj
 0001:0007b490       WINS_Init                  000000014007c490 f   l_net:l_net_wins.obj
 0001:0007b600       WINS_MyAddress             000000014007c600 f   l_net:l_net_wins.obj
 0001:0007b610       WINS_OpenSocket            000000014007c610 f   l_net:l_net_wins.obj
 0001:0007b700       WINS_OpenReliableSocket    000000014007c700 f   l_net:l_net_wins.obj
 0001:0007b820       WINS_CloseSocket           000000014007c820 f   l_net:l_net_wins.obj
 0001:0007b860       WINS_Connect               000000014007c860 f   l_net:l_net_wins.obj
 0001:0007b8d0       WINS_Write                 000000014007c8d0 f   l_net:l_net_wins.obj
 0001:0007b980       WINS_AddrToString          000000014007c980 f   l_net:l_net_wins.obj
 0001:0007ba00       WINS_StringToAddr          000000014007ca00 f   l_net:l_net_wins.obj
 0001:0007ba80       WINS_GetSocketAddr         000000014007ca80 f   l_net:l_net_wins.obj
 0001:0007bae0       ?MakeNormalVectors@@YAXQEAM00@Z 000000014007cae0 f   mathlib:mathlib.obj
 0001:0007bba0       ?VectorCompare@@YA?AW4qboolean@@QEBM0@Z 000000014007cba0 f   mathlib:mathlib.obj
 0001:0007bbf0       ?VectorCompareExt@@YA?AW4qboolean@@QEBM0M@Z 000000014007cbf0 f   mathlib:mathlib.obj
 0001:0007bc30       ?VectorLength@@YAMQEBM@Z   000000014007cc30 f   mathlib:mathlib.obj
 0001:0007bc60       ?VectorMA@@YAXQEBMM0QEAM@Z 000000014007cc60 f   mathlib:mathlib.obj
 0001:0007bca0       ?VectorNormalize@@YAMQEBMQEAM@Z 000000014007cca0 f   mathlib:mathlib.obj
 0001:0007bd50       ?ColorNormalize@@YAMQEBMQEAM@Z 000000014007cd50 f   mathlib:mathlib.obj
 0001:0007bdc0       ?SnapWeldVector@@YAXQEAM00@Z 000000014007cdc0 f   mathlib:mathlib.obj
 0001:0007bf10       ?ClearBounds@@YAXQEAM0@Z   000000014007cf10 f   mathlib:mathlib.obj
 0001:0007bf40       ?AddPointToBounds@@YAXQEAM00@Z 000000014007cf40 f   mathlib:mathlib.obj
 0001:0007bfe0       ?PlaneFromPoints@@YA?AW4qboolean@@QEAMQEBM11@Z 000000014007cfe0 f   mathlib:mathlib.obj
 0001:0007c0e0       ?NormalToLatLong@@YAXQEBMQEAE@Z 000000014007d0e0 f   mathlib:mathlib.obj
 0001:0007c1a0       ?PlaneTypeForNormal@@YAHQEAM@Z 000000014007d1a0 f   mathlib:mathlib.obj
 0001:0007c200       ?DVectorMA@@YAXQEBNN0QEAN@Z 000000014007d200 f   mathlib:mathlib.obj
 0001:0007c240       ?DVectorNormalize@@YANQEAN0@Z 000000014007d240 f   mathlib:mathlib.obj
 0001:0007c2c0       ?DVectorLength@@YANQEBN@Z  000000014007d2c0 f   mathlib:mathlib.obj
 0001:0007c2f0       ?SnapWeldDVector@@YAXQEAN00@Z 000000014007d2f0 f   mathlib:mathlib.obj
 0001:0007c480       ?m4x4_identity@@YAXQEAM@Z  000000014007d480 f   mathlib:m4x4.obj
 0001:0007c4d0       ?m4x4_assign@@YAXQEAMQEBM@Z 000000014007d4d0 f   mathlib:m4x4.obj
 0001:0007c530       ?m4x4_translation_for_vec3@@YAXQEAMQEBM@Z 000000014007d530 f   mathlib:m4x4.obj
 0001:0007c580       ?m4x4_rotation_for_vec3@@YAXQEAMQEBMW4eulerOrder_t@@@Z 000000014007d580 f   mathlib:m4x4.obj
 0001:0007c750       ?m4x4_scale_for_vec3@@YAXQEAMQEBM@Z 000000014007d750 f   mathlib:m4x4.obj
 0001:0007c790       ?m4x4_translate_by_vec3@@YAXQEAMQEBM@Z 000000014007d790 f   mathlib:m4x4.obj
 0001:0007c7c0       ?m4x4_rotate_by_vec3@@YAXQEAMQEBMW4eulerOrder_t@@@Z 000000014007d7c0 f   mathlib:m4x4.obj
 0001:0007c7f0       ?m4x4_scale_by_vec3@@YAXQEAMQEBM@Z 000000014007d7f0 f   mathlib:m4x4.obj
 0001:0007c820       ?m4x4_pivoted_transform_by_vec3@@YAXQEAMQEBM1W4eulerOrder_t@@11@Z 000000014007d820 f   mathlib:m4x4.obj
 0001:0007c8e0       ?m4x4_multiply_by_m4x4@@YAXQEAMQEBM@Z 000000014007d8e0 f   mathlib:m4x4.obj
 0001:0007cce0       ?m4x4_transform_point@@YAXQEBMQEAM@Z 000000014007dce0 f   mathlib:m4x4.obj
 0001:0007cd80       ?m4x4_transform_normal@@YAXQEBMQEAM@Z 000000014007dd80 f   mathlib:m4x4.obj
 0001:0007ce10       ?m4x4_transpose@@YAXQEAM@Z 000000014007de10 f   mathlib:m4x4.obj
 0001:0007cf10       ?m3_det@@YAMQEAM@Z         000000014007df10 f   mathlib:m4x4.obj
 0001:0007cfa0       ?m4_submat@@YAXQEAM0HH@Z   000000014007dfa0 f   mathlib:m4x4.obj
 0001:0007d0f0       ?m4_det@@YAMQEAM@Z         000000014007e0f0 f   mathlib:m4x4.obj
 0001:0007d180       ?m4x4_invert@@YAHQEAM@Z    000000014007e180 f   mathlib:m4x4.obj
 0001:0007d248       g_free                     000000014007e248 f   glib-2.0:libglib-2.0-0.dll
 0001:0007d24e       g_locale_to_utf8           000000014007e24e f   glib-2.0:libglib-2.0-0.dll
 0001:0007d254       g_strdup                   000000014007e254 f   glib-2.0:libglib-2.0-0.dll
 0001:0007d25a       g_strdown                  000000014007e25a f   glib-2.0:libglib-2.0-0.dll
 0001:0007d260       g_dir_read_name_utf8       000000014007e260 f   glib-2.0:libglib-2.0-0.dll
 0001:0007d266       g_dir_open_utf8            000000014007e266 f   glib-2.0:libglib-2.0-0.dll
 0001:0007d26c       g_dir_close                000000014007e26c f   glib-2.0:libglib-2.0-0.dll
 0001:0007d272       g_slist_append             000000014007e272 f   glib-2.0:libglib-2.0-0.dll
 0001:0007d278       xmlNodeSetContent          000000014007e278 f   libxml2:libxml2-2.dll
 0001:0007d27e       xmlNewNode                 000000014007e27e f   libxml2:libxml2-2.dll
 0001:0007d284       xmlAddChild                000000014007e284 f   libxml2:libxml2-2.dll
 0001:0007d28a       xmlSetProp                 000000014007e28a f   libxml2:libxml2-2.dll
 0001:0007d290       xmlBufferFree              000000014007e290 f   libxml2:libxml2-2.dll
 0001:0007d296       xmlNodeDump                000000014007e296 f   libxml2:libxml2-2.dll
 0001:0007d29c       xmlBufferCreate            000000014007e29c f   libxml2:libxml2-2.dll
 0001:0007d2a2       xmlNewDoc                  000000014007e2a2 f   libxml2:libxml2-2.dll
 0001:0007d2a8       xmlNewDocRawNode           000000014007e2a8 f   libxml2:libxml2-2.dll
 0001:0007d2ae       png_get_IHDR               000000014007e2ae f   libpng:libpng14-14.dll
 0001:0007d2b4       png_read_image             000000014007e2b4 f   libpng:libpng14-14.dll
 0001:0007d2ba       png_write_info             000000014007e2ba f   libpng:libpng14-14.dll
 0001:0007d2c0       png_destroy_write_struct   000000014007e2c0 f   libpng:libpng14-14.dll
 0001:0007d2c6       png_set_expand             000000014007e2c6 f   libpng:libpng14-14.dll
 0001:0007d2cc       png_set_write_fn           000000014007e2cc f   libpng:libpng14-14.dll
 0001:0007d2d2       png_read_info              000000014007e2d2 f   libpng:libpng14-14.dll
 0001:0007d2d8       png_set_iCCP               000000014007e2d8 f   libpng:libpng14-14.dll
 0001:0007d2de       png_set_strip_16           000000014007e2de f   libpng:libpng14-14.dll
 0001:0007d2e4       png_set_packing            000000014007e2e4 f   libpng:libpng14-14.dll
 0001:0007d2ea       png_sig_cmp                000000014007e2ea f   libpng:libpng14-14.dll
 0001:0007d2f0       png_create_read_struct     000000014007e2f0 f   libpng:libpng14-14.dll
 0001:0007d2f6       png_write_end              000000014007e2f6 f   libpng:libpng14-14.dll
 0001:0007d2fc       png_get_io_ptr             000000014007e2fc f   libpng:libpng14-14.dll
 0001:0007d302       png_create_info_struct     000000014007e302 f   libpng:libpng14-14.dll
 0001:0007d308       png_set_read_fn            000000014007e308 f   libpng:libpng14-14.dll
 0001:0007d30e       png_write_row              000000014007e30e f   libpng:libpng14-14.dll
 0001:0007d314       png_get_valid              000000014007e314 f   libpng:libpng14-14.dll
 0001:0007d31a       png_set_sRGB               000000014007e31a f   libpng:libpng14-14.dll
 0001:0007d320       png_create_write_struct    000000014007e320 f   libpng:libpng14-14.dll
 0001:0007d326       png_set_filler             000000014007e326 f   libpng:libpng14-14.dll
 0001:0007d32c       png_set_filter             000000014007e32c f   libpng:libpng14-14.dll
 0001:0007d332       png_set_IHDR               000000014007e332 f   libpng:libpng14-14.dll
 0001:0007d338       png_set_interlace_handling 000000014007e338 f   libpng:libpng14-14.dll
 0001:0007d33e       png_get_channels           000000014007e33e f   libpng:libpng14-14.dll
 0001:0007d344       png_set_compression_level  000000014007e344 f   libpng:libpng14-14.dll
 0001:0007d34a       png_destroy_read_struct    000000014007e34a f   libpng:libpng14-14.dll
 0001:0007d350       DDSLittleLong              000000014007e350 f   ddslib:ddslib.obj
 0001:0007d360       DDSLittleShort             000000014007e360 f   ddslib:ddslib.obj
 0001:0007d3d0       DDSGetInfo                 000000014007e3d0 f   ddslib:ddslib.obj
 0001:0007df70       DDSDecompress              000000014007ef70 f   ddslib:ddslib.obj
 0001:0007e090       LoadJPGBuff                000000014007f090 f   jpeg6:jpgload.obj
 0001:0007e280       jpeg_create_decompress     000000014007f280 f   jpeg6:jdapimin.obj
 0001:0007e330       jpeg_destroy_decompress    000000014007f330 f   jpeg6:jdapimin.obj
 0001:0007e510       jpeg_consume_input         000000014007f510 f   jpeg6:jdapimin.obj
 0001:0007e600       jpeg_finish_decompress     000000014007f600 f   jpeg6:jdapimin.obj
 0001:0007e6d0       jpeg_read_header           000000014007f6d0 f   jpeg6:jdapimin.obj
 0001:0007e7e0       jpeg_read_scanlines        000000014007f7e0 f   jpeg6:jdapistd.obj
 0001:0007e8b0       jpeg_start_decompress      000000014007f8b0 f   jpeg6:jdapistd.obj
 0001:0007ea20       jpeg_stdio_src             000000014007fa20 f   jpeg6:jdatasrc.obj
 0001:0007ec70       jpeg_std_error             000000014007fc70 f   jpeg6:jerror.obj
 0001:0007f380       jinit_input_controller     0000000140080380 f   jpeg6:jdinput.obj
 0001:00080f50       jpeg_resync_to_restart     0000000140081f50 f   jpeg6:jdmarker.obj
 0001:000810b0       jinit_marker_reader        00000001400820b0 f   jpeg6:jdmarker.obj
 0001:00081f00       jinit_memory_mgr           0000000140082f00 f   jpeg6:jmemmgr.obj
 0001:00082070       jpeg_abort                 0000000140083070 f   jpeg6:jcomapi.obj
 0001:000820b0       jpeg_destroy               00000001400830b0 f   jpeg6:jcomapi.obj
 0001:000820f0       jpeg_alloc_quant_table     00000001400830f0 f   jpeg6:jcomapi.obj
 0001:00082110       jpeg_alloc_huff_table      0000000140083110 f   jpeg6:jcomapi.obj
 0001:00082140       jpeg_calc_output_dimensions 0000000140083140 f   jpeg6:jdmaster.obj
 0001:000825d0       jinit_master_decompress    00000001400835d0 f   jpeg6:jdmaster.obj
 0001:00082620       jdiv_round_up              0000000140083620 f   jpeg6:jutils.obj
 0001:00082630       jround_up                  0000000140083630 f   jpeg6:jutils.obj
 0001:00082650       jcopy_sample_rows          0000000140083650 f   jpeg6:jutils.obj
 0001:000826c0       jzero_far                  00000001400836c0 f   jpeg6:jutils.obj
 0001:000826d0       ?jpeg_get_large@@YAPEAXPEAUjpeg_common_struct@@_K@Z 00000001400836d0 f   jpeg6:jmemnobs.obj
 0001:000826d0       ?jpeg_get_small@@YAPEAXPEAUjpeg_common_struct@@_K@Z 00000001400836d0 f   jpeg6:jmemnobs.obj
 0001:000826e0       ?jpeg_free_small@@YAXPEAUjpeg_common_struct@@PEAX_K@Z 00000001400836e0 f   jpeg6:jmemnobs.obj
 0001:000826e0       ?jpeg_free_large@@YAXPEAUjpeg_common_struct@@PEAX_K@Z 00000001400836e0 f   jpeg6:jmemnobs.obj
 0001:000826f0       ?jpeg_mem_available@@YAJPEAUjpeg_common_struct@@JJJ@Z 00000001400836f0 f   jpeg6:jmemnobs.obj
 0001:00082700       ?jpeg_open_backing_store@@YAXPEAUjpeg_common_struct@@PEAUbacking_store_struct@@J@Z 0000000140083700 f   jpeg6:jmemnobs.obj
 0001:00082710       ?jpeg_mem_init@@YAJPEAUjpeg_common_struct@@@Z 0000000140083710 f   jpeg6:jmemnobs.obj
 0001:00082e70       jinit_d_main_controller    0000000140083e70 f   jpeg6:jdmainct.obj
 0001:000832d0       jinit_d_coef_controller    00000001400842d0 f   jpeg6:jdcoefct.obj
 0001:000833f0       ?jpeg_make_d_derived_tbl@@YAXPEAUjpeg_decompress_struct@@PEAUJHUFF_TBL@@PEAPEAUd_derived_tbl@@@Z 00000001400843f0 f   jpeg6:jdhuff.obj
 0001:00083600       ?jpeg_fill_bit_buffer@@YAEPEAUbitread_working_state@@HHH@Z 0000000140084600 f   jpeg6:jdhuff.obj
 0001:00083730       ?jpeg_huff_decode@@YAHPEAUbitread_working_state@@HHPEAUd_derived_tbl@@H@Z 0000000140084730 f   jpeg6:jdhuff.obj
 0001:00083f20       jinit_huff_decoder         0000000140084f20 f   jpeg6:jdhuff.obj
 0001:00084290       jinit_inverse_dct          0000000140085290 f   jpeg6:jddctmgr.obj
 0001:00084490       jinit_d_post_controller    0000000140085490 f   jpeg6:jdpostct.obj
 0001:00084bc0       jinit_upsampler            0000000140085bc0 f   jpeg6:jdsample.obj
 0001:00085380       ?jpeg_mem_term@@YAXPEAUjpeg_common_struct@@@Z 0000000140086380 f   jpeg6:jmemnobs.obj
 0001:00085380       _pico_little_float         0000000140086380 f   picomodel:picointernal.obj
 0001:00085390       jinit_color_deconverter    0000000140086390 f   jpeg6:jdcolor.obj
 0001:00085530       ?jpeg_idct_float@@YAXPEAUjpeg_decompress_struct@@PEAUjpeg_component_info@@PEAFPEAPEAEI@Z 0000000140086530 f   jpeg6:jidctflt.obj
 0001:00085a40       PicoInit                   0000000140086a40 f   picomodel:picomodel.obj
 0001:00085a50       PicoSetMallocFunc          0000000140086a50 f   picomodel:picomodel.obj
 0001:00085a70       PicoSetFreeFunc            0000000140086a70 f   picomodel:picomodel.obj
 0001:00085a90       PicoSetLoadFileFunc        0000000140086a90 f   picomodel:picomodel.obj
 0001:00085ab0       PicoSetFreeFileFunc        0000000140086ab0 f   picomodel:picomodel.obj
 0001:00085ad0       PicoSetPrintFunc           0000000140086ad0 f   picomodel:picomodel.obj
 0001:00085af0       PicoNewModel               0000000140086af0 f   picomodel:picomodel.obj
 0001:00085b40       PicoAdjustModel            0000000140086b40 f   picomodel:picomodel.obj
 0001:00085c70       PicoNewShader              0000000140086c70 f   picomodel:picomodel.obj
 0001:00085d50       PicoFreeShader             0000000140086d50 f   picomodel:picomodel.obj
 0001:00085d90       PicoFindShader             0000000140086d90 f   picomodel:picomodel.obj
 0001:00085e80       PicoFreeSurface            0000000140086e80 f   picomodel:picomodel.obj
 0001:00085f60       PicoAdjustSurface          0000000140086f60 f   picomodel:picomodel.obj
 0001:000862a0       PicoNewSkin                00000001400872a0 f   picomodel:picomodel.obj
 0001:00086320       PicoAdjustSkin             0000000140087320 f   picomodel:picomodel.obj
 0001:000863c0       PicoNewSkinItem            00000001400873c0 f   picomodel:picomodel.obj
 0001:00086430       PicoFreeSkinItem           0000000140087430 f   picomodel:picomodel.obj
 0001:00086470       PicoSetSkinItemReplacement 0000000140087470 f   picomodel:picomodel.obj
 0001:00086470       PicoSetShaderName          0000000140087470 f   picomodel:picomodel.obj
 0001:00086470       PicoSetModelName           0000000140087470 f   picomodel:picomodel.obj
 0001:000864b0       PicoSetModelFrameNum       00000001400874b0 f   picomodel:picomodel.obj
 0001:000864c0       PicoSetModelNumFrames      00000001400874c0 f   picomodel:picomodel.obj
 0001:000864d0       PicoSetModelFileName       00000001400874d0 f   picomodel:picomodel.obj
 0001:000864d0       PicoSetShaderMapName       00000001400874d0 f   picomodel:picomodel.obj
 0001:00086510       PicoSetShaderAmbientColor  0000000140087510 f   picomodel:picomodel.obj
 0001:00086540       PicoSetShaderDiffuseColor  0000000140087540 f   picomodel:picomodel.obj
 0001:00086570       PicoSetShaderSpecularColor 0000000140087570 f   picomodel:picomodel.obj
 0001:000865a0       PicoSetShaderTransparency  00000001400875a0 f   picomodel:picomodel.obj
 0001:000865e0       PicoSetShaderShininess     00000001400875e0 f   picomodel:picomodel.obj
 0001:00086620       PicoSetSurfaceType         0000000140087620 f   picomodel:picomodel.obj
 0001:00086630       PicoSetSurfaceName         0000000140087630 f   picomodel:picomodel.obj
 0001:00086670       PicoSetSurfaceShader       0000000140087670 f   picomodel:picomodel.obj
 0001:00086680       PicoSetSurfaceXYZ          0000000140087680 f   picomodel:picomodel.obj
 0001:00086710       PicoSetSurfaceNormal       0000000140087710 f   picomodel:picomodel.obj
 0001:00086780       PicoSetSurfaceST           0000000140087780 f   picomodel:picomodel.obj
 0001:00086800       PicoSetSurfaceColor        0000000140087800 f   picomodel:picomodel.obj
 0001:000868b0       PicoSetSurfaceIndex        00000001400878b0 f   picomodel:picomodel.obj
 0001:00086910       PicoSetSurfaceSmoothingGroup 0000000140087910 f   picomodel:picomodel.obj
 0001:00086960       PicoSetSkinNum             0000000140087960 f   picomodel:picomodel.obj
 0001:00086970       PicoSetSkinItemObject      0000000140087970 f   picomodel:picomodel.obj
 0001:000869b0       PicoGetModelName           00000001400879b0 f   picomodel:picomodel.obj
 0001:000869d0       PicoGetModelFileName       00000001400879d0 f   picomodel:picomodel.obj
 0001:000869d0       PicoGetShaderMapName       00000001400879d0 f   picomodel:picomodel.obj
 0001:000869f0       PicoGetModelFrameNum       00000001400879f0 f   picomodel:picomodel.obj
 0001:00086a00       PicoGetModelShader         0000000140087a00 f   picomodel:picomodel.obj
 0001:00086a30       PicoGetModelNumSurfaces    0000000140087a30 f   picomodel:picomodel.obj
 0001:00086a40       PicoGetModelSurface        0000000140087a40 f   picomodel:picomodel.obj
 0001:00086a70       PicoGetSurfaceType         0000000140087a70 f   picomodel:picomodel.obj
 0001:00086a80       PicoGetSurfaceNumVertexes  0000000140087a80 f   picomodel:picomodel.obj
 0001:00086a90       PicoGetSurfaceXYZ          0000000140087a90 f   picomodel:picomodel.obj
 0001:00086ac0       PicoGetSurfaceNormal       0000000140087ac0 f   picomodel:picomodel.obj
 0001:00086af0       PicoGetSurfaceST           0000000140087af0 f   picomodel:picomodel.obj
 0001:00086b20       PicoGetSurfaceColor        0000000140087b20 f   picomodel:picomodel.obj
 0001:00086b50       PicoGetSurfaceNumIndexes   0000000140087b50 f   picomodel:picomodel.obj
 0001:00086b60       PicoGetSurfaceIndexes      0000000140087b60 f   picomodel:picomodel.obj
 0001:00086b80       PicoGetSurfaceShaderNameForSkin 0000000140087b80 f   picomodel:picomodel.obj
 0001:00086c60       PicoVertexCoordGenerateHash 0000000140087c60 f   picomodel:picomodel.obj
 0001:00086d80       PicoNewVertexCombinationHashTable 0000000140087d80 f   picomodel:picomodel.obj
 0001:00086db0       PicoFreeVertexCombinationHashTable 0000000140087db0 f   picomodel:picomodel.obj
 0001:00086e30       PicoFindVertexCombinationInHashTable 0000000140087e30 f   picomodel:picomodel.obj
 0001:00086ff0       PicoAddVertexCombinationToHashTable 0000000140087ff0 f   picomodel:picomodel.obj
 0001:000870e0       PicoFindSurfaceVertexNum   00000001400880e0 f   picomodel:picomodel.obj
 0001:00087510       indexarray_push_back       0000000140088510 f   picomodel:picomodel.obj
 0001:00087520       indexarray_reserve         0000000140088520 f   picomodel:picomodel.obj
 0001:00087550       indexarray_clear           0000000140088550 f   picomodel:picomodel.obj
 0001:00087550       binarytree_clear           0000000140088550 f   picomodel:picomodel.obj
 0001:00087560       binarytree_extend          0000000140088560 f   picomodel:picomodel.obj
 0001:00087580       binarytree_size            0000000140088580 f   picomodel:picomodel.obj
 0001:00087590       binarytree_reserve         0000000140088590 f   picomodel:picomodel.obj
 0001:000875c0       UniqueIndices_size         00000001400885c0 f   picomodel:picomodel.obj
 0001:000875d0       UniqueIndices_reserve      00000001400885d0 f   picomodel:picomodel.obj
 0001:00087600       UniqueIndices_init         0000000140088600 f   picomodel:picomodel.obj
 0001:00087610       UniqueIndices_destroy      0000000140088610 f   picomodel:picomodel.obj
 0001:00087630       UniqueIndices_find_or_insert 0000000140088630 f   picomodel:picomodel.obj
 0001:00087700       UniqueIndices_insert       0000000140088700 f   picomodel:picomodel.obj
 0001:00087740       lessSmoothVertex           0000000140088740 f   picomodel:picomodel.obj
 0001:000877c0       _pico_vertices_combine_shared_normals 00000001400887c0 f   picomodel:picomodel.obj
 0001:00087910       _pico_triangles_generate_weighted_normals 0000000140088910 f   picomodel:picomodel.obj
 0001:000879f0       _pico_normals_zero         00000001400889f0 f   picomodel:picomodel.obj
 0001:00087a30       _pico_normals_normalize    0000000140088a30 f   picomodel:picomodel.obj
 0001:00087a70       _pico_length_vec           0000000140088a70 f   picomodel:picomodel.obj
 0001:00087aa0       _pico_normal_is_unit_length 0000000140088aa0 f   picomodel:picomodel.obj
 0001:00087ae0       _pico_normal_within_tolerance 0000000140088ae0 f   picomodel:picomodel.obj
 0001:00087b10       _pico_normals_assign_generated_normals 0000000140088b10 f   picomodel:picomodel.obj
 0001:00087b80       PicoFixSurfaceNormals      0000000140088b80 f   picomodel:picomodel.obj
 0001:00087c20       PicoRemapModel             0000000140088c20 f   picomodel:picomodel.obj
 0001:00088170       PicoParseToken             0000000140089170 f   picomodel:picomodel.obj
 0001:00088400       PicoLoadSkinFiles          0000000140089400 f   picomodel:picomodel.obj
 0001:000886c0       PicoModuleLoadModel        00000001400896c0 f   picomodel:picomodel.obj
 0001:000887c0       PicoLoadModel              00000001400897c0 f   picomodel:picomodel.obj
 0001:000888d0       PicoNewSurface             00000001400898d0 f   picomodel:picomodel.obj
 0001:00088980       PicoFreeSkin               0000000140089980 f   picomodel:picomodel.obj
 0001:000889e0       PicoAddTriangleToModel     00000001400899e0 f   picomodel:picomodel.obj
 0001:00088c70       PicoFreeModel              0000000140089c70 f   picomodel:picomodel.obj
 0001:00088d60       _pico_alloc                0000000140089d60 f   picomodel:picointernal.obj
 0001:00088dc0       _pico_calloc               0000000140089dc0 f   picomodel:picointernal.obj
 0001:00088e30       _pico_clone_alloc          0000000140089e30 f   picomodel:picointernal.obj
 0001:00088e90       _pico_free                 0000000140089e90 f   picomodel:picointernal.obj
 0001:00088eb0       _pico_load_file            0000000140089eb0 f   picomodel:picointernal.obj
 0001:00088ed0       _pico_free_file            0000000140089ed0 f   picomodel:picointernal.obj
 0001:00088f00       _pico_printf               0000000140089f00 f   picomodel:picointernal.obj
 0001:00088f90       _pico_first_token          0000000140089f90 f   picomodel:picointernal.obj
 0001:00088fc0       _pico_strltrim             0000000140089fc0 f   picomodel:picointernal.obj
 0001:00089040       _pico_strrtrim             000000014008a040 f   picomodel:picointernal.obj
 0001:00089100       _pico_strlwr               000000014008a100 f   picomodel:picointernal.obj
 0001:00089130       _pico_strchcount           000000014008a130 f   picomodel:picointernal.obj
 0001:00089160       _pico_zero_bounds          000000014008a160 f   picomodel:picointernal.obj
 0001:00089190       _pico_expand_bounds        000000014008a190 f   picomodel:picointernal.obj
 0001:000891f0       _pico_zero_vec             000000014008a1f0 f   picomodel:picointernal.obj
 0001:00089200       _pico_zero_vec2            000000014008a200 f   picomodel:picointernal.obj
 0001:00089210       _pico_set_vec              000000014008a210 f   picomodel:picointernal.obj
 0001:00089220       _pico_copy_vec             000000014008a220 f   picomodel:picointernal.obj
 0001:00089240       _pico_copy_vec2            000000014008a240 f   picomodel:picointernal.obj
 0001:00089250       _pico_normalize_vec        000000014008a250 f   picomodel:picointernal.obj
 0001:000892e0       _pico_add_vec              000000014008a2e0 f   picomodel:picointernal.obj
 0001:00089310       _pico_subtract_vec         000000014008a310 f   picomodel:picointernal.obj
 0001:00089340       _pico_scale_vec            000000014008a340 f   picomodel:picointernal.obj
 0001:00089370       _pico_set_color            000000014008a370 f   picomodel:picointernal.obj
 0001:00089390       _pico_copy_color           000000014008a390 f   picomodel:picointernal.obj
 0001:000893b0       _pico_little_long          000000014008a3b0 f   picomodel:picointernal.obj
 0001:000893c0       _pico_little_short         000000014008a3c0 f   picomodel:picointernal.obj
 0001:000893d0       _pico_stristr              000000014008a3d0 f   picomodel:picointernal.obj
 0001:00089450       _pico_unixify              000000014008a450 f   picomodel:picointernal.obj
 0001:00089480       _pico_nopath               000000014008a480 f   picomodel:picointernal.obj
 0001:00089520       _pico_setfext              000000014008a520 f   picomodel:picointernal.obj
 0001:000895f0       _pico_new_parser           000000014008a5f0 f   picomodel:picointernal.obj
 0001:000896c0       _pico_free_parser          000000014008a6c0 f   picomodel:picointernal.obj
 0001:000896f0       _pico_parse_ex             000000014008a6f0 f   picomodel:picointernal.obj
 0001:00089850       _pico_parse_first          000000014008a850 f   picomodel:picointernal.obj
 0001:00089890       _pico_parse                000000014008a890 f   picomodel:picointernal.obj
 0001:000898c0       _pico_parse_skip_rest      000000014008a8c0 f   picomodel:picointernal.obj
 0001:000898f0       _pico_parse_skip_braced    000000014008a8f0 f   picomodel:picointernal.obj
 0001:000899a0       _pico_parse_check          000000014008a9a0 f   picomodel:picointernal.obj
 0001:00089a00       _pico_parse_int            000000014008aa00 f   picomodel:picointernal.obj
 0001:00089a50       _pico_parse_float          000000014008aa50 f   picomodel:picointernal.obj
 0001:00089aa0       _pico_parse_vec            000000014008aaa0 f   picomodel:picointernal.obj
 0001:00089b40       _pico_parse_vec2           000000014008ab40 f   picomodel:picointernal.obj
 0001:00089be0       _pico_new_memstream        000000014008abe0 f   picomodel:picointernal.obj
 0001:00089c40       _pico_free_memstream       000000014008ac40 f   picomodel:picointernal.obj
 0001:00089c60       _pico_memstream_read       000000014008ac60 f   picomodel:picointernal.obj
 0001:00089cf0       _pico_memstream_getc       000000014008acf0 f   picomodel:picointernal.obj
 0001:00089d30       _pico_memstream_seek       000000014008ad30 f   picomodel:picointernal.obj
 0001:00089dc0       _pico_memstream_tell       000000014008adc0 f   picomodel:picointernal.obj
 0001:00089de0       _pico_realloc              000000014008ade0 f   picomodel:picointernal.obj
 0001:00089e80       PicoModuleList             000000014008ae80 f   picomodel:picomodules.obj
 0001:0008ab30       _terrain_load_tga_buffer   000000014008bb30 f   picomodel:pm_terrain.obj
 0001:0008ea70       _ase_get_submaterial_or_default 000000014008fa70 f   picomodel:pm_ase.obj
 0001:00091af0       lwFreeLayer                0000000140092af0 f   picomodel:lwo2.obj
 0001:00091b40       lwFreeObject               0000000140092b40 f   picomodel:lwo2.obj
 0001:00091bb0       lwGetObject                0000000140092bb0 f   picomodel:lwo2.obj
 0001:00092100       lwValidateObject           0000000140093100 f   picomodel:lwo2.obj
 0001:000921d0       lwListFree                 00000001400931d0 f   picomodel:list.obj
 0001:00092200       lwListAdd                  0000000140093200 f   picomodel:list.obj
 0001:00092230       lwListInsert               0000000140093230 f   picomodel:list.obj
 0001:000922d0       lwFreeVMap                 00000001400932d0 f   picomodel:vmap.obj
 0001:00092340       lwGetVMap                  0000000140093340 f   picomodel:vmap.obj
 0001:000925a0       lwGetPointVMaps            00000001400935a0 f   picomodel:vmap.obj
 0001:00092700       lwGetPolyVMaps             0000000140093700 f   picomodel:vmap.obj
 0001:000928e0       lwFreePoints               00000001400938e0 f   picomodel:pntspols.obj
 0001:00092970       lwFreePolygons             0000000140093970 f   picomodel:pntspols.obj
 0001:00092a50       lwGetPoints                0000000140093a50 f   picomodel:pntspols.obj
 0001:00092c70       lwGetBoundingBox           0000000140093c70 f   picomodel:pntspols.obj
 0001:00092d60       lwAllocPolygons            0000000140093d60 f   picomodel:pntspols.obj
 0001:00092e80       lwGetPolygons              0000000140093e80 f   picomodel:pntspols.obj
 0001:00093050       lwGetPolyNormals           0000000140094050 f   picomodel:pntspols.obj
 0001:000931c0       lwGetPointPolygons         00000001400941c0 f   picomodel:pntspols.obj
 0001:00093320       lwResolvePolySurfaces      0000000140094320 f   picomodel:pntspols.obj
 0001:000934f0       lwGetVertNormals           00000001400944f0 f   picomodel:pntspols.obj
 0001:00093770       lwFreeTags                 0000000140094770 f   picomodel:pntspols.obj
 0001:000937f0       lwGetTags                  00000001400947f0 f   picomodel:pntspols.obj
 0001:00093940       lwGetPolygonTags           0000000140094940 f   picomodel:pntspols.obj
 0001:00093a80       lwFreePlugin               0000000140094a80 f   picomodel:surface.obj
 0001:00093ad0       lwFreeTexture              0000000140094ad0 f   picomodel:surface.obj
 0001:00093b60       lwFreeSurface              0000000140094b60 f   picomodel:surface.obj
 0001:00093c60       lwGetTHeader               0000000140094c60 f   picomodel:surface.obj
 0001:00093df0       lwGetTMap                  0000000140094df0 f   picomodel:surface.obj
 0001:00094020       lwGetImageMap              0000000140095020 f   picomodel:surface.obj
 0001:000942a0       lwGetProcedural            00000001400952a0 f   picomodel:surface.obj
 0001:00094440       lwGetGradient              0000000140095440 f   picomodel:surface.obj
 0001:000946f0       lwGetTexture               00000001400956f0 f   picomodel:surface.obj
 0001:00094830       lwGetShader                0000000140095830 f   picomodel:surface.obj
 0001:00094b00       lwDefaultSurface           0000000140095b00 f   picomodel:surface.obj
 0001:00094b70       lwGetSurface               0000000140095b70 f   picomodel:surface.obj
 0001:000951b0       lwFreeClip                 00000001400961b0 f   picomodel:clip.obj
 0001:00095280       lwGetClip                  0000000140096280 f   picomodel:clip.obj
 0001:00095700       lwFreeEnvelope             0000000140096700 f   picomodel:envelope.obj
 0001:00095780       lwGetEnvelope              0000000140096780 f   picomodel:envelope.obj
 0001:00095ab0       set_flen                   0000000140096ab0 f   picomodel:lwio.obj
 0001:00095ac0       get_flen                   0000000140096ac0 f   picomodel:lwio.obj
 0001:00095ad0       revbytes                   0000000140096ad0 f   picomodel:lwio.obj
 0001:00095b50       getbytes                   0000000140096b50 f   picomodel:lwio.obj
 0001:00095c00       getI2                      0000000140096c00 f   picomodel:lwio.obj
 0001:00095c00       getU2                      0000000140096c00 f   picomodel:lwio.obj
 0001:00095c60       getI4                      0000000140096c60 f   picomodel:lwio.obj
 0001:00095c60       getU4                      0000000140096c60 f   picomodel:lwio.obj
 0001:00095cc0       getU1                      0000000140096cc0 f   picomodel:lwio.obj
 0001:00095d00       getVX                      0000000140096d00 f   picomodel:lwio.obj
 0001:00095db0       getF4                      0000000140096db0 f   picomodel:lwio.obj
 0001:00095e10       getS0                      0000000140096e10 f   picomodel:lwio.obj
 0001:00095f50       sgetI2                     0000000140096f50 f   picomodel:lwio.obj
 0001:00095fb0       sgetU2                     0000000140096fb0 f   picomodel:lwio.obj
 0001:00095ff0       sgetU4                     0000000140096ff0 f   picomodel:lwio.obj
 0001:00096050       sgetVX                     0000000140097050 f   picomodel:lwio.obj
 0001:000960d0       sgetF4                     00000001400970d0 f   picomodel:lwio.obj
 0001:00096130       sgetS0                     0000000140097130 f   picomodel:lwio.obj
 0001:00096590       lwGetSurface5              0000000140097590 f   picomodel:lwob.obj
 0001:00096f90       lwGetPolygons5             0000000140097f90 f   picomodel:lwob.obj
 0001:00097150       lwGetObject5               0000000140098150 f   picomodel:lwob.obj
 0001:000973d0       lwValidateObject5          00000001400983d0 f   picomodel:lwob.obj
 0001:00097480       _pico_dot_vec              0000000140098480 f   picomodel:picointernal.obj
 0001:00097480       dot                        0000000140098480 f   picomodel:vecmath.obj
 0001:000974b0       _pico_cross_vec            00000001400984b0 f   picomodel:picointernal.obj
 0001:000974b0       cross                      00000001400984b0 f   picomodel:vecmath.obj
 0001:00097510       normalize                  0000000140098510 f   picomodel:vecmath.obj
 0001:0009755c       _stricmp                   000000014009855c f   MSVCRT:MSVCR90.dll
 0001:00097562       rename                     0000000140098562 f   MSVCRT:MSVCR90.dll
 0001:00097568       sprintf                    0000000140098568 f   MSVCRT:MSVCR90.dll
 0001:0009756e       sscanf_s                   000000014009856e f   MSVCRT:MSVCR90.dll
 0001:00097574       sscanf                     0000000140098574 f   MSVCRT:MSVCR90.dll
 0001:0009757a       strncmp                    000000014009857a f   MSVCRT:MSVCR90.dll
 0001:00097580       free                       0000000140098580 f   MSVCRT:MSVCR90.dll
 0001:00097586       atoi                       0000000140098586 f   MSVCRT:MSVCR90.dll
 0001:0009758c       remove                     000000014009858c f   MSVCRT:MSVCR90.dll
 0001:00097592       ftell                      0000000140098592 f   MSVCRT:MSVCR90.dll
 0001:00097598       realloc                    0000000140098598 f   MSVCRT:MSVCR90.dll
 0001:0009759e       atof                       000000014009859e f   MSVCRT:MSVCR90.dll
 0001:000975a4       _time64                    00000001400985a4 f   MSVCRT:MSVCR90.dll
 0001:000975aa       asctime                    00000001400985aa f   MSVCRT:MSVCR90.dll
 0001:000975b0       _localtime64               00000001400985b0 f   MSVCRT:MSVCR90.dll
 0001:000975b6       fseek                      00000001400985b6 f   MSVCRT:MSVCR90.dll
 0001:000975bc       fclose                     00000001400985bc f   MSVCRT:MSVCR90.dll
 0001:000975c2       fopen                      00000001400985c2 f   MSVCRT:MSVCR90.dll
 0001:000975c8       fwrite                     00000001400985c8 f   MSVCRT:MSVCR90.dll
 0001:000975ce       strstr                     00000001400985ce f   MSVCRT:MSVCR90.dll
 0001:000975d4       _onexit                    00000001400985d4 f   MSVCRT:atonexit.obj
 0001:00097684       atexit                     0000000140098684 f   MSVCRT:atonexit.obj
 0001:0009769c       rand                       000000014009869c f   MSVCRT:MSVCR90.dll
 0001:000976a2       srand                      00000001400986a2 f   MSVCRT:MSVCR90.dll
 0001:000976a8       memmove                    00000001400986a8 f   MSVCRT:MSVCR90.dll
 0001:000976ae       _strnicmp                  00000001400986ae f   MSVCRT:MSVCR90.dll
 0001:000976b4       strchr                     00000001400986b4 f   MSVCRT:MSVCR90.dll
 0001:000976ba       qsort                      00000001400986ba f   MSVCRT:MSVCR90.dll
 0001:000976c0       strncpy                    00000001400986c0 f   MSVCRT:MSVCR90.dll
 0001:000976c6       fprintf                    00000001400986c6 f   MSVCRT:MSVCR90.dll
 0001:000976cc       exit                       00000001400986cc f   MSVCRT:MSVCR90.dll
 0001:000976d2       fscanf                     00000001400986d2 f   MSVCRT:MSVCR90.dll
 0001:000976d8       __iob_func                 00000001400986d8 f   MSVCRT:MSVCR90.dll
 0001:000976de       malloc                     00000001400986de f   MSVCRT:MSVCR90.dll
 0001:000976e4       strerror                   00000001400986e4 f   MSVCRT:MSVCR90.dll
 0001:000976ea       fputs                      00000001400986ea f   MSVCRT:MSVCR90.dll
 0001:000976f0       _errno                     00000001400986f0 f   MSVCRT:MSVCR90.dll
 0001:000976f6       _mkdir                     00000001400986f6 f   MSVCRT:MSVCR90.dll
 0001:000976fc       fread                      00000001400986fc f   MSVCRT:MSVCR90.dll
 0001:00097702       _getcwd                    0000000140098702 f   MSVCRT:MSVCR90.dll
 0001:00097708       vsprintf                   0000000140098708 f   MSVCRT:MSVCR90.dll
 0001:0009770e       printf                     000000014009870e f   MSVCRT:MSVCR90.dll
 0001:00097714       rewind                     0000000140098714 f   MSVCRT:MSVCR90.dll
 0001:0009771a       _access                    000000014009871a f   MSVCRT:MSVCR90.dll
 0001:00097720       _strdup                    0000000140098720 f   MSVCRT:MSVCR90.dll
 0001:00097726       strrchr                    0000000140098726 f   MSVCRT:MSVCR90.dll
 0001:000979fc       mainCRTStartup             00000001400989fc f   MSVCRT:crtexe.obj
 0001:00097a0e       memset                     0000000140098a0e f   MSVCRT:MSVCR90.dll
 0001:00097a14       _setjmp                    0000000140098a14 f   MSVCRT:MSVCR90.dll
 0001:00097a1a       memcpy                     0000000140098a1a f   MSVCRT:MSVCR90.dll
 0001:00097a20       sin                        0000000140098a20 f   MSVCRT:MSVCR90.dll
 0001:00097a26       cos                        0000000140098a26 f   MSVCRT:MSVCR90.dll
 0001:00097a2c       acosf                      0000000140098a2c f   MSVCRT:MSVCR90.dll
 0001:00097a32       log                        0000000140098a32 f   MSVCRT:MSVCR90.dll
 0001:00097a38       __C_specific_handler       0000000140098a38 f   MSVCRT:MSVCR90.dll
 0001:00097a3e       _unlock                    0000000140098a3e f   MSVCRT:MSVCR90.dll
 0001:00097a44       __dllonexit                0000000140098a44 f   MSVCRT:MSVCR90.dll
 0001:00097a4a       _lock                      0000000140098a4a f   MSVCRT:MSVCR90.dll
 0001:00097a50       ?__CxxUnhandledExceptionFilter@@YAJPEAU_EXCEPTION_POINTERS@@@Z 0000000140098a50 f   MSVCRT:unhandld.obj
 0001:00097a94       __CxxSetUnhandledExceptionFilter 0000000140098a94 f   MSVCRT:unhandld.obj
 0001:00097aac       _amsg_exit                 0000000140098aac f   MSVCRT:MSVCR90.dll
 0001:00097ab4       _RTC_Initialize            0000000140098ab4 f   MSVCRT:_initsect_.obj
 0001:00097aec       _RTC_Terminate             0000000140098aec f   MSVCRT:_initsect_.obj
 0001:00097b24       _XcptFilter                0000000140098b24 f   MSVCRT:MSVCR90.dll
 0001:00097b30       _ValidateImageBase         0000000140098b30 f   MSVCRT:pesect.obj
 0001:00097b60       _FindPESection             0000000140098b60 f   MSVCRT:pesect.obj
 0001:00097bb0       _IsNonwritableInCurrentImage 0000000140098bb0 f   MSVCRT:pesect.obj
 0001:00097bf2       _initterm                  0000000140098bf2 f   MSVCRT:MSVCR90.dll
 0001:00097bf8       _initterm_e                0000000140098bf8 f   MSVCRT:MSVCR90.dll
 0001:00097c00       _matherr                   0000000140098c00 f   MSVCRT:merr.obj
 0001:00097c00       _setargv                   0000000140098c00 f   MSVCRT:dllargv.obj
 0001:00097c04       __security_init_cookie     0000000140098c04 f   MSVCRT:gs_support.obj
 0001:00097cb8       ?terminate@@YAXXZ          0000000140098cb8 f   MSVCRT:MSVCR90.dll
 0001:00097cbe       send                       0000000140098cbe f   wsock32:WSOCK32.dll
 0001:00097cc4       gethostbyname              0000000140098cc4 f   wsock32:WSOCK32.dll
 0001:00097cca       closesocket                0000000140098cca f   wsock32:WSOCK32.dll
 0001:00097cd0       socket                     0000000140098cd0 f   wsock32:WSOCK32.dll
 0001:00097cd6       bind                       0000000140098cd6 f   wsock32:WSOCK32.dll
 0001:00097cdc       setsockopt                 0000000140098cdc f   wsock32:WSOCK32.dll
 0001:00097ce2       getsockname                0000000140098ce2 f   wsock32:WSOCK32.dll
 0001:00097ce8       ntohs                      0000000140098ce8 f   wsock32:WSOCK32.dll
 0001:00097cee       htons                      0000000140098cee f   wsock32:WSOCK32.dll
 0001:00097cf4       WSAGetLastError            0000000140098cf4 f   wsock32:WSOCK32.dll
 0001:00097cfa       htonl                      0000000140098cfa f   wsock32:WSOCK32.dll
 0001:00097d00       inet_addr                  0000000140098d00 f   wsock32:WSOCK32.dll
 0001:00097d06       ntohl                      0000000140098d06 f   wsock32:WSOCK32.dll
 0001:00097d0c       WSAStartup                 0000000140098d0c f   wsock32:WSOCK32.dll
 0001:00097d12       connect                    0000000140098d12 f   wsock32:WSOCK32.dll
 0001:00097d18       gethostname                0000000140098d18 f   wsock32:WSOCK32.dll
 0001:00097d1e       ioctlsocket                0000000140098d1e f   wsock32:WSOCK32.dll
 0001:00097d24       exp                        0000000140098d24 f   MSVCRT:MSVCR90.dll
 0001:00097d2a       pow                        0000000140098d2a f   MSVCRT:MSVCR90.dll
 0001:00097d30       atan2f                     0000000140098d30 f   MSVCRT:MSVCR90.dll
 0001:00097d36       sinf                       0000000140098d36 f   MSVCRT:MSVCR90.dll
 0001:00097d3c       powf                       0000000140098d3c f   MSVCRT:MSVCR90.dll
 0001:00097d42       cosf                       0000000140098d42 f   MSVCRT:MSVCR90.dll
 0001:00097d60       _alloca_probe              0000000140098d60     MSVCRT:chkstk.obj
 0001:00097d60       __chkstk                   0000000140098d60 f   MSVCRT:chkstk.obj
 0002:00000000       __imp_CloseHandle          0000000140099000     kernel32:KERNEL32.dll
 0002:00000008       __imp_ReleaseMutex         0000000140099008     kernel32:KERNEL32.dll
 0002:00000010       __imp_DeleteCriticalSection 0000000140099010     kernel32:KERNEL32.dll
 0002:00000018       __imp_CreateMutexA         0000000140099018     kernel32:KERNEL32.dll
 0002:00000020       __imp_GetSystemInfo        0000000140099020     kernel32:KERNEL32.dll
 0002:00000028       __imp_GetSystemTimeAsFileTime 0000000140099028     kernel32:KERNEL32.dll
 0002:00000030       __imp_GetCurrentProcessId  0000000140099030     kernel32:KERNEL32.dll
 0002:00000038       __imp_GetCurrentThreadId   0000000140099038     kernel32:KERNEL32.dll
 0002:00000040       __imp_GetTickCount         0000000140099040     kernel32:KERNEL32.dll
 0002:00000048       __imp_QueryPerformanceCounter 0000000140099048     kernel32:KERNEL32.dll
 0002:00000050       __imp_SetUnhandledExceptionFilter 0000000140099050     kernel32:KERNEL32.dll
 0002:00000058       __imp_WaitForSingleObject  0000000140099058     kernel32:KERNEL32.dll
 0002:00000060       __imp_EnterCriticalSection 0000000140099060     kernel32:KERNEL32.dll
 0002:00000068       __imp_LeaveCriticalSection 0000000140099068     kernel32:KERNEL32.dll
 0002:00000070       __imp_InitializeCriticalSection 0000000140099070     kernel32:KERNEL32.dll
 0002:00000078       __imp_Sleep                0000000140099078     kernel32:KERNEL32.dll
 0002:00000080       __imp_CreateThread         0000000140099080     kernel32:KERNEL32.dll
 0002:00000088       \177KERNEL32_NULL_THUNK_DATA 0000000140099088     kernel32:KERNEL32.dll
 0002:00000090       __imp__configthreadlocale  0000000140099090     MSVCRT:MSVCR90.dll
 0002:00000098       __imp__initterm_e          0000000140099098     MSVCRT:MSVCR90.dll
 0002:000000a0       __imp__initterm            00000001400990a0     MSVCRT:MSVCR90.dll
 0002:000000a8       __imp___initenv            00000001400990a8     MSVCRT:MSVCR90.dll
 0002:000000b0       __imp__cexit               00000001400990b0     MSVCRT:MSVCR90.dll
 0002:000000b8       __imp__exit                00000001400990b8     MSVCRT:MSVCR90.dll
 0002:000000c0       __imp__XcptFilter          00000001400990c0     MSVCRT:MSVCR90.dll
 0002:000000c8       __imp___getmainargs        00000001400990c8     MSVCRT:MSVCR90.dll
 0002:000000d0       __imp__amsg_exit           00000001400990d0     MSVCRT:MSVCR90.dll
 0002:000000d8       __imp__decode_pointer      00000001400990d8     MSVCRT:MSVCR90.dll
 0002:000000e0       __imp__onexit              00000001400990e0     MSVCRT:MSVCR90.dll
 0002:000000e8       __imp___setusermatherr     00000001400990e8     MSVCRT:MSVCR90.dll
 0002:000000f0       __imp__encode_pointer      00000001400990f0     MSVCRT:MSVCR90.dll
 0002:000000f8       __imp___dllonexit          00000001400990f8     MSVCRT:MSVCR90.dll
 0002:00000100       __imp__unlock              0000000140099100     MSVCRT:MSVCR90.dll
 0002:00000108       __imp___C_specific_handler 0000000140099108     MSVCRT:MSVCR90.dll
 0002:00000110       __imp_log                  0000000140099110     MSVCRT:MSVCR90.dll
 0002:00000118       __imp_acosf                0000000140099118     MSVCRT:MSVCR90.dll
 0002:00000120       __imp_cos                  0000000140099120     MSVCRT:MSVCR90.dll
 0002:00000128       __imp_sin                  0000000140099128     MSVCRT:MSVCR90.dll
 0002:00000130       __imp_isspace              0000000140099130     MSVCRT:MSVCR90.dll
 0002:00000138       __imp_getenv               0000000140099138     MSVCRT:MSVCR90.dll
 0002:00000140       __imp_longjmp              0000000140099140     MSVCRT:MSVCR90.dll
 0002:00000148       __imp_memcpy               0000000140099148     MSVCRT:MSVCR90.dll
 0002:00000150       __imp__setjmp              0000000140099150     MSVCRT:MSVCR90.dll
 0002:00000158       __imp_memset               0000000140099158     MSVCRT:MSVCR90.dll
 0002:00000160       __imp_strrchr              0000000140099160     MSVCRT:MSVCR90.dll
 0002:00000168       __imp__strdup              0000000140099168     MSVCRT:MSVCR90.dll
 0002:00000170       __imp__access              0000000140099170     MSVCRT:MSVCR90.dll
 0002:00000178       __imp_rewind               0000000140099178     MSVCRT:MSVCR90.dll
 0002:00000180       __imp__commode             0000000140099180     MSVCRT:MSVCR90.dll
 0002:00000188       __imp__fmode               0000000140099188     MSVCRT:MSVCR90.dll
 0002:00000190       __imp___set_app_type       0000000140099190     MSVCRT:MSVCR90.dll
 0002:00000198       __imp_?terminate@@YAXXZ    0000000140099198     MSVCRT:MSVCR90.dll
 0002:000001a0       __imp_exp                  00000001400991a0     MSVCRT:MSVCR90.dll
 0002:000001a8       __imp_pow                  00000001400991a8     MSVCRT:MSVCR90.dll
 0002:000001b0       __imp_atan2f               00000001400991b0     MSVCRT:MSVCR90.dll
 0002:000001b8       __imp_sinf                 00000001400991b8     MSVCRT:MSVCR90.dll
 0002:000001c0       __imp_powf                 00000001400991c0     MSVCRT:MSVCR90.dll
 0002:000001c8       __imp__lock                00000001400991c8     MSVCRT:MSVCR90.dll
 0002:000001d0       __imp_stricmp              00000001400991d0     MSVCRT:MSVCR90.dll
 0002:000001d0       __imp__stricmp             00000001400991d0     MSVCRT:MSVCR90.dll
 0002:000001d8       __imp_rename               00000001400991d8     MSVCRT:MSVCR90.dll
 0002:000001e0       __imp_sprintf              00000001400991e0     MSVCRT:MSVCR90.dll
 0002:000001e8       __imp_sscanf_s             00000001400991e8     MSVCRT:MSVCR90.dll
 0002:000001f0       __imp_sscanf               00000001400991f0     MSVCRT:MSVCR90.dll
 0002:000001f8       __imp_strncmp              00000001400991f8     MSVCRT:MSVCR90.dll
 0002:00000200       __imp_free                 0000000140099200     MSVCRT:MSVCR90.dll
 0002:00000208       __imp_atoi                 0000000140099208     MSVCRT:MSVCR90.dll
 0002:00000210       __imp_remove               0000000140099210     MSVCRT:MSVCR90.dll
 0002:00000218       __imp_ftell                0000000140099218     MSVCRT:MSVCR90.dll
 0002:00000220       __imp_realloc              0000000140099220     MSVCRT:MSVCR90.dll
 0002:00000228       __imp_atof                 0000000140099228     MSVCRT:MSVCR90.dll
 0002:00000230       __imp__time64              0000000140099230     MSVCRT:MSVCR90.dll
 0002:00000238       __imp_asctime              0000000140099238     MSVCRT:MSVCR90.dll
 0002:00000240       __imp__localtime64         0000000140099240     MSVCRT:MSVCR90.dll
 0002:00000248       __imp_fseek                0000000140099248     MSVCRT:MSVCR90.dll
 0002:00000250       __imp_fclose               0000000140099250     MSVCRT:MSVCR90.dll
 0002:00000258       __imp_fopen                0000000140099258     MSVCRT:MSVCR90.dll
 0002:00000260       __imp_fwrite               0000000140099260     MSVCRT:MSVCR90.dll
 0002:00000268       __imp_strstr               0000000140099268     MSVCRT:MSVCR90.dll
 0002:00000270       __imp_rand                 0000000140099270     MSVCRT:MSVCR90.dll
 0002:00000278       __imp_srand                0000000140099278     MSVCRT:MSVCR90.dll
 0002:00000280       __imp_memmove              0000000140099280     MSVCRT:MSVCR90.dll
 0002:00000288       __imp__strnicmp            0000000140099288     MSVCRT:MSVCR90.dll
 0002:00000288       __imp_strnicmp             0000000140099288     MSVCRT:MSVCR90.dll
 0002:00000290       __imp_strchr               0000000140099290     MSVCRT:MSVCR90.dll
 0002:00000298       __imp_qsort                0000000140099298     MSVCRT:MSVCR90.dll
 0002:000002a0       __imp_strncpy              00000001400992a0     MSVCRT:MSVCR90.dll
 0002:000002a8       __imp_fprintf              00000001400992a8     MSVCRT:MSVCR90.dll
 0002:000002b0       __imp_exit                 00000001400992b0     MSVCRT:MSVCR90.dll
 0002:000002b8       __imp_fscanf               00000001400992b8     MSVCRT:MSVCR90.dll
 0002:000002c0       __imp___iob_func           00000001400992c0     MSVCRT:MSVCR90.dll
 0002:000002c8       __imp_cosf                 00000001400992c8     MSVCRT:MSVCR90.dll
 0002:000002d0       __imp_malloc               00000001400992d0     MSVCRT:MSVCR90.dll
 0002:000002d8       __imp_strerror             00000001400992d8     MSVCRT:MSVCR90.dll
 0002:000002e0       __imp_fputs                00000001400992e0     MSVCRT:MSVCR90.dll
 0002:000002e8       __imp__errno               00000001400992e8     MSVCRT:MSVCR90.dll
 0002:000002f0       __imp__mkdir               00000001400992f0     MSVCRT:MSVCR90.dll
 0002:000002f8       __imp_fread                00000001400992f8     MSVCRT:MSVCR90.dll
 0002:00000300       __imp__getcwd              0000000140099300     MSVCRT:MSVCR90.dll
 0002:00000308       __imp_vsprintf             0000000140099308     MSVCRT:MSVCR90.dll
 0002:00000310       __imp_printf               0000000140099310     MSVCRT:MSVCR90.dll
 0002:00000318       \177MSVCR90_NULL_THUNK_DATA 0000000140099318     MSVCRT:MSVCR90.dll
 0002:00000320       __imp_send                 0000000140099320     wsock32:WSOCK32.dll
 0002:00000328       __imp_gethostbyname        0000000140099328     wsock32:WSOCK32.dll
 0002:00000330       __imp_closesocket          0000000140099330     wsock32:WSOCK32.dll
 0002:00000338       __imp_socket               0000000140099338     wsock32:WSOCK32.dll
 0002:00000340       __imp_bind                 0000000140099340     wsock32:WSOCK32.dll
 0002:00000348       __imp_ioctlsocket          0000000140099348     wsock32:WSOCK32.dll
 0002:00000350       __imp_gethostname          0000000140099350     wsock32:WSOCK32.dll
 0002:00000358       __imp_connect              0000000140099358     wsock32:WSOCK32.dll
 0002:00000360       __imp_WSAStartup           0000000140099360     wsock32:WSOCK32.dll
 0002:00000368       __imp_ntohl                0000000140099368     wsock32:WSOCK32.dll
 0002:00000370       __imp_inet_addr            0000000140099370     wsock32:WSOCK32.dll
 0002:00000378       __imp_htonl                0000000140099378     wsock32:WSOCK32.dll
 0002:00000380       __imp_WSAGetLastError      0000000140099380     wsock32:WSOCK32.dll
 0002:00000388       __imp_htons                0000000140099388     wsock32:WSOCK32.dll
 0002:00000390       __imp_ntohs                0000000140099390     wsock32:WSOCK32.dll
 0002:00000398       __imp_getsockname          0000000140099398     wsock32:WSOCK32.dll
 0002:000003a0       __imp_setsockopt           00000001400993a0     wsock32:WSOCK32.dll
 0002:000003a8       \177WSOCK32_NULL_THUNK_DATA 00000001400993a8     wsock32:WSOCK32.dll
 0002:000003b0       __imp_g_slist_append       00000001400993b0     glib-2.0:libglib-2.0-0.dll
 0002:000003b8       __imp_g_dir_close          00000001400993b8     glib-2.0:libglib-2.0-0.dll
 0002:000003c0       __imp_g_dir_open_utf8      00000001400993c0     glib-2.0:libglib-2.0-0.dll
 0002:000003c8       __imp_g_dir_read_name_utf8 00000001400993c8     glib-2.0:libglib-2.0-0.dll
 0002:000003d0       __imp_g_strdown            00000001400993d0     glib-2.0:libglib-2.0-0.dll
 0002:000003d8       __imp_g_strdup             00000001400993d8     glib-2.0:libglib-2.0-0.dll
 0002:000003e0       __imp_g_locale_to_utf8     00000001400993e0     glib-2.0:libglib-2.0-0.dll
 0002:000003e8       __imp_g_free               00000001400993e8     glib-2.0:libglib-2.0-0.dll
 0002:000003f0       \177libglib-2.0-0_NULL_THUNK_DATA 00000001400993f0     glib-2.0:libglib-2.0-0.dll
 0002:000003f8       __imp_png_create_read_struct 00000001400993f8     libpng:libpng14-14.dll
 0002:00000400       __imp_png_destroy_read_struct 0000000140099400     libpng:libpng14-14.dll
 0002:00000408       __imp_png_set_compression_level 0000000140099408     libpng:libpng14-14.dll
 0002:00000410       __imp_png_get_channels     0000000140099410     libpng:libpng14-14.dll
 0002:00000418       __imp_png_set_interlace_handling 0000000140099418     libpng:libpng14-14.dll
 0002:00000420       __imp_png_set_IHDR         0000000140099420     libpng:libpng14-14.dll
 0002:00000428       __imp_png_set_filter       0000000140099428     libpng:libpng14-14.dll
 0002:00000430       __imp_png_set_filler       0000000140099430     libpng:libpng14-14.dll
 0002:00000438       __imp_png_get_IHDR         0000000140099438     libpng:libpng14-14.dll
 0002:00000440       __imp_png_read_image       0000000140099440     libpng:libpng14-14.dll
 0002:00000448       __imp_png_write_info       0000000140099448     libpng:libpng14-14.dll
 0002:00000450       __imp_png_destroy_write_struct 0000000140099450     libpng:libpng14-14.dll
 0002:00000458       __imp_png_set_expand       0000000140099458     libpng:libpng14-14.dll
 0002:00000460       __imp_png_set_write_fn     0000000140099460     libpng:libpng14-14.dll
 0002:00000468       __imp_png_read_info        0000000140099468     libpng:libpng14-14.dll
 0002:00000470       __imp_png_set_iCCP         0000000140099470     libpng:libpng14-14.dll
 0002:00000478       __imp_png_set_strip_16     0000000140099478     libpng:libpng14-14.dll
 0002:00000480       __imp_png_set_packing      0000000140099480     libpng:libpng14-14.dll
 0002:00000488       __imp_png_sig_cmp          0000000140099488     libpng:libpng14-14.dll
 0002:00000490       __imp_png_write_end        0000000140099490     libpng:libpng14-14.dll
 0002:00000498       __imp_png_get_io_ptr       0000000140099498     libpng:libpng14-14.dll
 0002:000004a0       __imp_png_create_info_struct 00000001400994a0     libpng:libpng14-14.dll
 0002:000004a8       __imp_png_set_read_fn      00000001400994a8     libpng:libpng14-14.dll
 0002:000004b0       __imp_png_write_row        00000001400994b0     libpng:libpng14-14.dll
 0002:000004b8       __imp_png_get_valid        00000001400994b8     libpng:libpng14-14.dll
 0002:000004c0       __imp_png_create_write_struct 00000001400994c0     libpng:libpng14-14.dll
 0002:000004c8       __imp_png_set_sRGB         00000001400994c8     libpng:libpng14-14.dll
 0002:000004d0       \177libpng14-14_NULL_THUNK_DATA 00000001400994d0     libpng:libpng14-14.dll
 0002:000004d8       __imp_xmlNodeSetContent    00000001400994d8     libxml2:libxml2-2.dll
 0002:000004e0       __imp_xmlNewNode           00000001400994e0     libxml2:libxml2-2.dll
 0002:000004e8       __imp_xmlNewDocRawNode     00000001400994e8     libxml2:libxml2-2.dll
 0002:000004f0       __imp_xmlNewDoc            00000001400994f0     libxml2:libxml2-2.dll
 0002:000004f8       __imp_xmlBufferCreate      00000001400994f8     libxml2:libxml2-2.dll
 0002:00000500       __imp_xmlNodeDump          0000000140099500     libxml2:libxml2-2.dll
 0002:00000508       __imp_xmlBufferFree        0000000140099508     libxml2:libxml2-2.dll
 0002:00000510       __imp_xmlSetProp           0000000140099510     libxml2:libxml2-2.dll
 0002:00000518       __imp_xmlAddChild          0000000140099518     libxml2:libxml2-2.dll
 0002:00000520       \177libxml2-2_NULL_THUNK_DATA 0000000140099520     libxml2:libxml2-2.dll
 0002:00000528       __xc_a                     0000000140099528     MSVCRT:cinitexe.obj
 0002:00000538       __xc_z                     0000000140099538     MSVCRT:cinitexe.obj
 0002:00000540       __xi_a                     0000000140099540     MSVCRT:cinitexe.obj
 0002:00000558       __xi_z                     0000000140099558     MSVCRT:cinitexe.obj
 0002:00000580       ??_C@_0CL@NJGMBHCN@Progressive?5JPEG?5encountered?5?$CIun@ 0000000140099580     jpeg6:jpgload.obj
 0002:000005b0       ??_C@_0CH@INAOIABJ@Non?9RGB?5JPEG?5encountered?5?$CIunsupp@ 00000001400995b0     jpeg6:jpgload.obj
 0002:000005d8       ??_C@_0CL@OCGBAKPF@Application?5transferred?5too?5many@ 00000001400995d8     jpeg6:jerror.obj
 0002:00000608       ??_C@_0CL@BAKCGOKJ@Invalid?5SOS?5parameters?5for?5seque@ 0000000140099608     jpeg6:jerror.obj
 0002:00000638       ??_C@_0DI@NFMBADOH@Corrupt?5JPEG?5data?3?5found?5marker?5@ 0000000140099638     jpeg6:jerror.obj
 0002:00000670       ??_C@_0BL@DPFPFMLM@Premature?5end?5of?5JPEG?5file?$AA@ 0000000140099670     jpeg6:jerror.obj
 0002:00000690       ??_C@_0CO@ODCCEDLN@Warning?3?5unknown?5JFIF?5revision?5n@ 0000000140099690     jpeg6:jerror.obj
 0002:000006c0       ??_C@_0CE@PBLDOPKB@Corrupt?5JPEG?5data?3?5bad?5Huffman?5c@ 00000001400996c0     jpeg6:jerror.obj
 0002:000006e8       ??_C@_0DB@PGMEPGHN@Corrupt?5JPEG?5data?3?5premature?5end@ 00000001400996e8     jpeg6:jerror.obj
 0002:00000720       ??_C@_0DM@PCOGCKJB@Corrupt?5JPEG?5data?3?5?$CFu?5extraneous@ 0000000140099720     jpeg6:jerror.obj
 0002:00000760       ??_C@_0EC@CBCJOINE@Inconsistent?5progression?5sequenc@ 0000000140099760     jpeg6:jerror.obj
 0002:000007a8       ??_C@_0CG@KEGHCDOM@Unknown?5Adobe?5color?5transform?5co@ 00000001400997a8     jpeg6:jerror.obj
 0002:000007d0       ??_C@_0BH@LJLGPEFF@Obtained?5XMS?5handle?5?$CFu?$AA@ 00000001400997d0     jpeg6:jerror.obj
 0002:000007e8       ??_C@_0BE@FOGGKKAO@Freed?5XMS?5handle?5?$CFu?$AA@ 00000001400997e8     jpeg6:jerror.obj
 0002:00000800       ??_C@_0DE@EEJCDLOO@Unrecognized?5component?5IDs?5?$CFd?5?$CFd@ 0000000140099800     jpeg6:jerror.obj
 0002:00000838       ??_C@_0BJ@GOCABEP@Opened?5temporary?5file?5?$CFs?$AA@ 0000000140099838     jpeg6:jerror.obj
 0002:00000858       ??_C@_0BJ@KDCGAOJB@Closed?5temporary?5file?5?$CFs?$AA@ 0000000140099858     jpeg6:jerror.obj
 0002:00000878       ??_C@_0BN@GAMIJLDC@?5?5Ss?$DN?$CFd?0?5Se?$DN?$CFd?0?5Ah?$DN?$CFd?0?5Al?$DN?$CFd?$AA@ 0000000140099878     jpeg6:jerror.obj
 0002:00000898       ??_C@_0BO@CDEKFGLC@?5?5?5?5Component?5?$CFd?3?5dc?$DN?$CFd?5ac?$DN?$CFd?$AA@ 0000000140099898     jpeg6:jerror.obj
 0002:000008b8       ??_C@_0BN@BLOOHNC@Start?5Of?5Scan?3?5?$CFd?5components?$AA@ 00000001400998b8     jpeg6:jerror.obj
 0002:000008d8       ??_C@_0P@JLCHJELA@Start?5of?5Image?$AA@ 00000001400998d8     jpeg6:jerror.obj
 0002:000008e8       ??_C@_0BP@EDCAMHHE@?5?5?5?5Component?5?$CFd?3?5?$CFdhx?$CFdv?5q?$DN?$CFd?$AA@ 00000001400998e8     jpeg6:jerror.obj
 0002:00000908       ??_C@_0DK@DMINKOGN@Start?5Of?5Frame?50x?$CF02x?3?5width?$DN?$CFu?0@ 0000000140099908     jpeg6:jerror.obj
 0002:00000948       ??_C@_0DJ@PCBCLFML@Smoothing?5not?5supported?5with?5non@ 0000000140099948     jpeg6:jerror.obj
 0002:00000984       ??_C@_05LLAPAOG@RST?$CFd?$AA@ 0000000140099984     jpeg6:jerror.obj
 0002:00000990       ??_C@_0CF@NIMOLBCP@At?5marker?50x?$CF02x?0?5recovery?5actio@ 0000000140099990     jpeg6:jerror.obj
 0002:000009b8       ??_C@_0CE@FDPBEAOO@Selected?5?$CFd?5colors?5for?5quantizat@ 00000001400999b8     jpeg6:jerror.obj
 0002:000009e0       ??_C@_0BI@NEIBNACE@Quantizing?5to?5?$CFd?5colors?$AA@ 00000001400999e0     jpeg6:jerror.obj
 0002:000009f8       ??_C@_0CD@CNNAOOFA@Quantizing?5to?5?$CFd?5?$DN?5?$CFd?$CK?$CFd?$CK?$CFd?5colo@ 00000001400999f8     jpeg6:jerror.obj
 0002:00000a20       ??_C@_0CI@GHPOCOCL@?5?5?5?5?5?5?5?5?$CF4u?5?$CF4u?5?$CF4u?5?$CF4u?5?$CF4u?5?$CF4u?5@ 0000000140099a20     jpeg6:jerror.obj
 0002:00000a48       ??_C@_0BJ@COPODLDN@Unexpected?5marker?50x?$CF02x?$AA@ 0000000140099a48     jpeg6:jerror.obj
 0002:00000a68       ??_C@_0CC@KHCAAFMC@Skipping?5marker?50x?$CF02x?0?5length?5?$CF@ 0000000140099a68     jpeg6:jerror.obj
 0002:00000a90       ??_C@_0CB@BADBMAAB@?5?5?5?5with?5?$CFd?5x?5?$CFd?5thumbnail?5image@ 0000000140099a90     jpeg6:jerror.obj
 0002:00000ab8       ??_C@_0CL@BJMGIDLN@Unknown?5JFIF?5minor?5revision?5numb@ 0000000140099ab8     jpeg6:jerror.obj
 0002:00000ae8       ??_C@_0DM@JLHNPIBE@Warning?3?5thumbnail?5image?5size?5do@ 0000000140099ae8     jpeg6:jerror.obj
 0002:00000b28       ??_C@_0CE@MKDBBMLI@JFIF?5APP0?5marker?0?5density?5?$CFdx?$CFd?5@ 0000000140099b28     jpeg6:jerror.obj
 0002:00000b50       ??_C@_0CI@FKGPAJC@?5?5?5?5?5?5?5?5?$CF3d?5?$CF3d?5?$CF3d?5?$CF3d?5?$CF3d?5?$CF3d?5@ 0000000140099b50     jpeg6:jerror.obj
 0002:00000b78       ??_C@_0N@HJHFKELG@End?5Of?5Image?$AA@ 0000000140099b78     jpeg6:jerror.obj
 0002:00000b88       ??_C@_0BH@GIPOLIGC@Obtained?5EMS?5handle?5?$CFu?$AA@ 0000000140099b88     jpeg6:jerror.obj
 0002:00000ba0       ??_C@_0BE@IPCOOGDJ@Freed?5EMS?5handle?5?$CFu?$AA@ 0000000140099ba0     jpeg6:jerror.obj
 0002:00000bb8       ??_C@_0BL@EMFIKBEK@Define?5Restart?5Interval?5?$CFu?$AA@ 0000000140099bb8     jpeg6:jerror.obj
 0002:00000bd8       ??_C@_0CL@KLDOJIKN@Define?5Quantization?5Table?5?$CFd?5?5pr@ 0000000140099bd8     jpeg6:jerror.obj
 0002:00000c08       ??_C@_0BM@MDIEILCE@Define?5Huffman?5Table?50x?$CF02x?$AA@ 0000000140099c08     jpeg6:jerror.obj
 0002:00000c28       ??_C@_0CH@KIJGKPAA@Define?5Arithmetic?5Table?50x?$CF02x?3?5@ 0000000140099c28     jpeg6:jerror.obj
 0002:00000c50       ??_C@_0CM@CAEPHFAA@Unknown?5APP14?5marker?5?$CInot?5Adobe?$CJ@ 0000000140099c50     jpeg6:jerror.obj
 0002:00000c80       ??_C@_0CK@HCPFFNKJ@Unknown?5APP0?5marker?5?$CInot?5JFIF?$CJ?0?5@ 0000000140099c80     jpeg6:jerror.obj
 0002:00000cb0       ??_C@_0EC@EHPKAOHA@Adobe?5APP14?5marker?3?5version?5?$CFd?0?5@ 0000000140099cb0     jpeg6:jerror.obj
 0002:00000cf8       ??_C@_0DO@EGLODMBB@Caution?3?5quantization?5tables?5are@ 0000000140099cf8     jpeg6:jerror.obj
 0002:00000d38       ??_C@_0M@JNBJJLAI@6?5?52?9Aug?995?$AA@ 0000000140099d38     jpeg6:jerror.obj
 0002:00000d48       ??_C@_0CD@HPLBEMMI@Copyright?5?$CIC?$CJ?51995?0?5Thomas?5G?4?5La@ 0000000140099d48     jpeg6:jerror.obj
 0002:00000d70       ??_C@_0BE@FDPDCBIN@Write?5to?5XMS?5failed?$AA@ 0000000140099d70     jpeg6:jerror.obj
 0002:00000d88       ??_C@_0BF@EKLGFGNM@Read?5from?5XMS?5failed?$AA@ 0000000140099d88     jpeg6:jerror.obj
 0002:00000da0       ??_C@_0CH@LJLHCCHC@Image?5too?5wide?5for?5this?5implemen@ 0000000140099da0     jpeg6:jerror.obj
 0002:00000dc8       ??_C@_0CD@GCLFJCHC@Virtual?5array?5controller?5messed?5@ 0000000140099dc8     jpeg6:jerror.obj
 0002:00000df0       ??_C@_0BP@BPKOBOIP@Unsupported?5marker?5type?50x?$CF02x?$AA@ 0000000140099df0     jpeg6:jerror.obj
 0002:00000e10       ??_C@_0CK@EPADOAKC@Application?5transferred?5too?5few?5@ 0000000140099e10     jpeg6:jerror.obj
 0002:00000e40       ??_C@_0DG@KALDLIJB@Write?5failed?5on?5temporary?5file?5?9@ 0000000140099e40     jpeg6:jerror.obj
 0002:00000e78       ??_C@_0BO@GOBJOAAI@Seek?5failed?5on?5temporary?5file?$AA@ 0000000140099e78     jpeg6:jerror.obj
 0002:00000e98       ??_C@_0BO@EEPJGHHI@Read?5failed?5on?5temporary?5file?$AA@ 0000000140099e98     jpeg6:jerror.obj
 0002:00000eb8       ??_C@_0CD@POKNOPOF@Failed?5to?5create?5temporary?5file?5@ 0000000140099eb8     jpeg6:jerror.obj
 0002:00000ee0       ??_C@_0CM@HONLBDPH@Invalid?5JPEG?5file?5structure?3?5SOS@ 0000000140099ee0     jpeg6:jerror.obj
 0002:00000f10       ??_C@_0CN@HGJCMLNE@Invalid?5JPEG?5file?5structure?3?5two@ 0000000140099f10     jpeg6:jerror.obj
 0002:00000f40       ??_C@_0CK@HMKECJK@Unsupported?5JPEG?5process?3?5SOF?5ty@ 0000000140099f40     jpeg6:jerror.obj
 0002:00000f70       ??_C@_0DA@GJIJGINK@Invalid?5JPEG?5file?5structure?3?5mis@ 0000000140099f70     jpeg6:jerror.obj
 0002:00000fa0       ??_C@_0CN@IHJJJAFJ@Invalid?5JPEG?5file?5structure?3?5two@ 0000000140099fa0     jpeg6:jerror.obj
 0002:00000fd0       ??_C@_0CH@NHMNHHIB@Cannot?5quantize?5to?5more?5than?5?$CFd?5@ 0000000140099fd0     jpeg6:jerror.obj
 0002:00000ff8       ??_C@_0CI@PLMPLCNO@Cannot?5quantize?5to?5fewer?5than?5?$CFd@ 0000000140099ff8     jpeg6:jerror.obj
 0002:00001020       ??_C@_0CO@HPDBAEEA@Cannot?5quantize?5more?5than?5?$CFd?5col@ 000000014009a020     jpeg6:jerror.obj
 0002:00001050       ??_C@_0BO@DJPLELIB@Insufficient?5memory?5?$CIcase?5?$CFd?$CJ?$AA@ 000000014009a050     jpeg6:jerror.obj
 0002:00001070       ??_C@_0CL@GNLFDFCL@Not?5a?5JPEG?5file?3?5starts?5with?50x?$CF@ 000000014009a070     jpeg6:jerror.obj
 0002:000010a0       ??_C@_0CK@CCHKIENB@Quantization?5table?50x?$CF02x?5was?5no@ 000000014009a0a0     jpeg6:jerror.obj
 0002:000010d0       ??_C@_0CC@BKPLBDLJ@JPEG?5datastream?5contains?5no?5imag@ 000000014009a0d0     jpeg6:jerror.obj
 0002:000010f8       ??_C@_0CF@BKANFCCL@Huffman?5table?50x?$CF02x?5was?5not?5def@ 000000014009a0f8     jpeg6:jerror.obj
 0002:00001120       ??_C@_0BM@HJHFKLAF@Backing?5store?5not?5supported?$AA@ 000000014009a120     jpeg6:jerror.obj
 0002:00001140       ??_C@_0DK@HLEMINPG@Progressive?5JPEGs?5not?5supported?0@ 000000014009a140     jpeg6:jerror.obj
 0002:00001180       ??_C@_0CO@BEHINNOI@Requested?5feature?5was?5omitted?5at@ 000000014009a180     jpeg6:jerror.obj
 0002:000011b0       ??_C@_0BE@EOAAHHJ@Not?5implemented?5yet?$AA@ 000000014009a1b0     jpeg6:jerror.obj
 0002:000011c8       ??_C@_0CH@EFBBPPCK@Invalid?5color?5quantization?5mode?5@ 000000014009a1c8     jpeg6:jerror.obj
 0002:000011f0       ??_C@_0CH@NIBDNILP@Scan?5script?5does?5not?5transmit?5al@ 000000014009a1f0     jpeg6:jerror.obj
 0002:00001218       ??_C@_0DO@OPNPKGO@Cannot?5transcode?5due?5to?5multiple@ 000000014009a218     jpeg6:jerror.obj
 0002:00001258       ??_C@_0BM@KEKMMNGA@Premature?5end?5of?5input?5file?$AA@ 000000014009a258     jpeg6:jerror.obj
 0002:00001278       ??_C@_0BB@JJAIKFBB@Empty?5input?5file?$AA@ 000000014009a278     jpeg6:jerror.obj
 0002:00001290       ??_C@_0CP@EKFPGPNP@Maximum?5supported?5image?5dimensio@ 000000014009a290     jpeg6:jerror.obj
 0002:000012c0       ??_C@_0CB@LFBMFPHI@Missing?5Huffman?5code?5table?5entry@ 000000014009a2c0     jpeg6:jerror.obj
 0002:000012e8       ??_C@_0CB@LLDOGNPJ@Huffman?5code?5size?5table?5overflow@ 000000014009a2e8     jpeg6:jerror.obj
 0002:00001310       ??_C@_0CI@EKDDDHFF@Fractional?5sampling?5not?5implemen@ 000000014009a310     jpeg6:jerror.obj
 0002:00001338       ??_C@_0CP@IDOBLGGD@Output?5file?5write?5error?5?9?9?9?5out?5@ 000000014009a338     jpeg6:jerror.obj
 0002:00001368       ??_C@_0BG@BALCKDNL@Input?5file?5read?5error?$AA@ 000000014009a368     jpeg6:jerror.obj
 0002:00001380       ??_C@_0CB@DMGINPNE@Didn?8t?5expect?5more?5than?5one?5scan@ 000000014009a380     jpeg6:jerror.obj
 0002:000013a8       ??_C@_0BE@DGJBKIEB@Write?5to?5EMS?5failed?$AA@ 000000014009a3a8     jpeg6:jerror.obj
 0002:000013c0       ??_C@_0BF@CPNENPBA@Read?5from?5EMS?5failed?$AA@ 000000014009a3c0     jpeg6:jerror.obj
 0002:000013d8       ??_C@_0CF@DAGGEAPM@Empty?5JPEG?5image?5?$CIDNL?5not?5suppor@ 000000014009a3d8     jpeg6:jerror.obj
 0002:00001400       ??_C@_0BD@DIMECAOP@Bogus?5DQT?5index?5?$CFd?$AA@ 000000014009a400     jpeg6:jerror.obj
 0002:00001418       ??_C@_0BD@KJHFPHIC@Bogus?5DHT?5index?5?$CFd?$AA@ 000000014009a418     jpeg6:jerror.obj
 0002:00001430       ??_C@_0BB@GDNEPMHL@Bogus?5DHT?5counts?$AA@ 000000014009a430     jpeg6:jerror.obj
 0002:00001448       ??_C@_0BF@CLIOOJFM@Bogus?5DAC?5value?50x?$CFx?$AA@ 000000014009a448     jpeg6:jerror.obj
 0002:00001460       ??_C@_0BD@LDBBBMFL@Bogus?5DAC?5index?5?$CFd?$AA@ 000000014009a460     jpeg6:jerror.obj
 0002:00001478       ??_C@_0CF@JDLOPNGO@Unsupported?5color?5conversion?5req@ 000000014009a478     jpeg6:jerror.obj
 0002:000014a0       ??_C@_0CG@BEBDNOCG@Too?5many?5color?5components?3?5?$CFd?0?5m@ 000000014009a4a0     jpeg6:jerror.obj
 0002:000014c8       ??_C@_0CF@LAEFHNAH@CCIR601?5sampling?5not?5implemented@ 000000014009a4c8     jpeg6:jerror.obj
 0002:000014f0       ??_C@_0BM@PKHCPJDH@Suspension?5not?5allowed?5here?$AA@ 000000014009a4f0     jpeg6:jerror.obj
 0002:00001510       ??_C@_0CL@JKHIPJLJ@Buffer?5passed?5to?5JPEG?5library?5is@ 000000014009a510     jpeg6:jerror.obj
 0002:00001540       ??_C@_0BL@CBOEEPLK@Bogus?5virtual?5array?5access?$AA@ 000000014009a540     jpeg6:jerror.obj
 0002:00001560       ??_C@_0CK@BAMFIBMM@Improper?5call?5to?5JPEG?5library?5in@ 000000014009a560     jpeg6:jerror.obj
 0002:00001590       ??_C@_0CA@MJDDICLK@Invalid?5scan?5script?5at?5entry?5?$CFd?$AA@ 000000014009a590     jpeg6:jerror.obj
 0002:000015b0       ??_C@_0BH@HMMHPOPE@Bogus?5sampling?5factors?$AA@ 000000014009a5b0     jpeg6:jerror.obj
 0002:000015c8       ??_C@_0DH@HIKEGPKP@Invalid?5progressive?5parameters?5a@ 000000014009a5c8     jpeg6:jerror.obj
 0002:00001600       ??_C@_0DH@LNGGEGOL@Invalid?5progressive?5parameters?5S@ 000000014009a600     jpeg6:jerror.obj
 0002:00001638       ??_C@_0CD@LDBDNLHK@Unsupported?5JPEG?5data?5precision?5@ 000000014009a638     jpeg6:jerror.obj
 0002:00001660       ??_C@_0BM@OEMICEFD@Invalid?5memory?5pool?5code?5?$CFd?$AA@ 000000014009a660     jpeg6:jerror.obj
 0002:00001680       ??_C@_0DA@HLEOHNPA@Sampling?5factors?5too?5large?5for?5i@ 000000014009a680     jpeg6:jerror.obj
 0002:000016b0       ??_C@_0BE@OGLAEMOG@Bogus?5marker?5length?$AA@ 000000014009a6b0     jpeg6:jerror.obj
 0002:000016c8       ??_C@_0BG@NEGIHEMC@Bogus?5JPEG?5colorspace?$AA@ 000000014009a6c8     jpeg6:jerror.obj
 0002:000016e0       ??_C@_0BH@BGDIGLHC@Bogus?5input?5colorspace?$AA@ 000000014009a6e0     jpeg6:jerror.obj
 0002:000016f8       ??_C@_0CI@MBJANLAP@IDCT?5output?5block?5size?5?$CFd?5not?5su@ 000000014009a6f8     jpeg6:jerror.obj
 0002:00001720       ??_C@_0BP@ONFLCDHG@Invalid?5component?5ID?5?$CFd?5in?5SOS?$AA@ 000000014009a720     jpeg6:jerror.obj
 0002:00001740       ??_C@_0BK@DKALDNKG@Bogus?5buffer?5control?5mode?$AA@ 000000014009a740     jpeg6:jerror.obj
 0002:00001760       ??_C@_0CF@DENLILGA@MAX_ALLOC_CHUNK?5is?5wrong?0?5please@ 000000014009a760     jpeg6:jerror.obj
 0002:00001788       ??_C@_0CA@FDMPGPNI@ALIGN_TYPE?5is?5wrong?0?5please?5fix?$AA@ 000000014009a788     jpeg6:jerror.obj
 0002:000017a8       ??_C@_0DJ@KONAFFHE@Sorry?0?5there?5are?5legal?5restricti@ 000000014009a7a8     jpeg6:jerror.obj
 0002:000017e8       ??_C@_0BG@MIBALFBH@Bogus?5message?5code?5?$CFd?$AA@ 000000014009a7e8     jpeg6:jerror.obj
 0002:00001be0       ??_C@_05IBIMIMKO@?$CFld?$CFc?$AA@ 000000014009abe0     jpeg6:jmemmgr.obj
 0002:00001be8       ??_C@_07OOOLPGAB@JPEGMEM?$AA@ 000000014009abe8     jpeg6:jmemmgr.obj
 0002:00001bf0       jpeg_zigzag_order          000000014009abf0     jpeg6:jutils.obj
 0002:00001cf0       jpeg_natural_order         000000014009acf0     jpeg6:jutils.obj
 0002:00001ef0       __real@40273d75            000000014009aef0     jpeg6:jidctflt.obj
 0002:00001ef4       __real@3f8a8bd4            000000014009aef4     jpeg6:jidctflt.obj
 0002:00001ef8       __real@3fec835e            000000014009aef8     jpeg6:jidctflt.obj
 0002:00001efc       __real@3fb504f3            000000014009aefc     jpeg6:jidctflt.obj
 0002:00001f00       __real@00000000            000000014009af00     picomodel:picomodel.obj
 0002:00001f08       __real@3f1a36e2e0000000    000000014009af08     picomodel:picomodel.obj
 0002:00001f10       __real@3f947ae140000000    000000014009af10     picomodel:picomodel.obj
 0002:00001f18       ??_C@_08DPLIAGAA@specular?$AA@ 000000014009af18     picomodel:picomodel.obj
 0002:00001f28       ??_C@_07KFBPAAO@diffuse?$AA@ 000000014009af28     picomodel:picomodel.obj
 0002:00001f30       ??_C@_07KMNEBLH@mapname?$AA@ 000000014009af30     picomodel:picomodel.obj
 0002:00001f38       ??_C@_01LBDDMOBJ@?$FN?$AA@ 000000014009af38     picomodel:picomodel.obj
 0002:00001f40       ??_C@_0L@IKAPBNCE@materials?$FL?$AA@ 000000014009af40     picomodel:picomodel.obj
 0002:00001f4c       ??_C@_01NEMOKFLO@?$DN?$AA@ 000000014009af4c     picomodel:picomodel.obj
 0002:00001f50       ??_C@_02HBOOOICD@?9?$DO?$AA@ 000000014009af50     picomodel:picomodel.obj
 0002:00001f54       ??_C@_02GNMIELFD@?$DN?$DO?$AA@ 000000014009af54     picomodel:picomodel.obj
 0002:00001f58       ??_C@_09JGGNEAGH@materials?$AA@ 000000014009af58     picomodel:picomodel.obj
 0002:00001f64       ??_C@_02CBLDBPFN@?1?1?$AA@ 000000014009af64     picomodel:picomodel.obj
 0002:00001f70       ??_C@_0GJ@KFJEJAJG@PicoLoadSkinFiles?3?5parsing?5error@ 000000014009af70     picomodel:picomodel.obj
 0002:00001fdc       ??_C@_01IHBHIGKO@?0?$AA@   000000014009afdc     picomodel:picomodel.obj
 0002:00001fe0       ??_C@_04MGKOECLF@tag_?$AA@ 000000014009afe0     picomodel:picomodel.obj
 0002:00001ff0       ??_C@_0GH@GPAAPLPF@PicoLoadSkinFiles?3?5parsing?5error@ 000000014009aff0     picomodel:picomodel.obj
 0002:00002058       ??_C@_07CLEHDIEJ@replace?$AA@ 000000014009b058     picomodel:picomodel.obj
 0002:00002060       ??_C@_0GE@PEDGFCON@PicoLoadSkinFiles?3?5parsing?5error@ 000000014009b060     picomodel:picomodel.obj
 0002:000020c8       ??_C@_0L@KPBFIAGD@?$CFs_?$CFi?4skin?$AA@ 000000014009b0c8     picomodel:picomodel.obj
 0002:000020d4       ??_C@_05PGGDPNJE@remap?$AA@ 000000014009b0d4     picomodel:picomodel.obj
 0002:000020e0       ??_C@_0FF@GIKFLPHA@PicoLoadModel?3?5Failed?5to?5load?5mo@ 000000014009b0e0     picomodel:picomodel.obj
 0002:00002140       ??_C@_0FD@JBKFHAF@PicoLoadModel?3?5Failed?5loading?5mo@ 000000014009b140     picomodel:picomodel.obj
 0002:00002198       ??_C@_0CH@CFBDIJHC@PicoLoadModel?3?5Failed?5loading?5mo@ 000000014009b198     picomodel:picomodel.obj
 0002:000021c0       ??_C@_0DE@IJDGCDAP@PicoLoadModel?3?5No?5filename?5given@ 000000014009b1c0     picomodel:picomodel.obj
 0002:000021f8       ??_C@_0L@KIMMKGLI@Unnamed_?$CFd?$AA@ 000000014009b1f8     picomodel:picomodel.obj
 0002:00002208       ??_C@_0CD@PBNPFFEH@Could?5not?5allocate?5a?5new?5surface@ 000000014009b208     picomodel:picomodel.obj
 0002:0000222c       ??_C@_03GJLPFLNF@obj?$AA@  000000014009b22c     picomodel:pm_obj.obj
 0002:00002230       ??_C@_0N@LEFAFPHC@2002?5seaw0lf?$AA@ 000000014009b230     picomodel:pm_obj.obj
 0002:00002240       ??_C@_07GLJHDDED@seaw0lf?$AA@ 000000014009b240     picomodel:pm_obj.obj
 0002:00002248       ??_C@_0BA@ICHNNDOL@Wavefront?5ASCII?$AA@ 000000014009b248     picomodel:pm_obj.obj
 0002:00002258       ??_C@_05IGKILDHP@0?46?9b?$AA@ 000000014009b258     picomodel:pm_obj.obj
 0002:00002260       picoModuleOBJ              000000014009b260     picomodel:pm_obj.obj
 0002:000022c0       ??_C@_01MHEDDDHA@v?$AA@    000000014009b2c0     picomodel:pm_obj.obj
 0002:000022c4       ??_C@_01JEJKBAGA@g?$AA@    000000014009b2c4     picomodel:pm_obj.obj
 0002:000022c8       ??_C@_06CFLOGJAO@mtllib?$AA@ 000000014009b2c8     picomodel:pm_obj.obj
 0002:000022d0       ??_C@_06FDFLJDKG@usemtl?$AA@ 000000014009b2d0     picomodel:pm_obj.obj
 0002:000022d8       ??_C@_03PMEPEKBK@?4wf?$AA@ 000000014009b2d8     picomodel:pm_obj.obj
 0002:000022dc       ??_C@_04PACIOCLB@?4obj?$AA@ 000000014009b2dc     picomodel:pm_obj.obj
 0002:000022e8       ??_C@_0BL@DEGDGNBI@No?5group?5defined?5for?5faces?$AA@ 000000014009b2e8     picomodel:pm_obj.obj
 0002:00002308       ??_C@_0BB@COKDGCEB@Face?5parse?5error?$AA@ 000000014009b308     picomodel:pm_obj.obj
 0002:00002320       ??_C@_0BE@KHFDIKKE@Invalid?5face?5format?$AA@ 000000014009b320     picomodel:pm_obj.obj
 0002:00002338       ??_C@_0BK@JMKBOJCB@Vertex?5index?5out?5of?5range?$AA@ 000000014009b338     picomodel:pm_obj.obj
 0002:00002358       ??_C@_0BM@LFADPAPF@UV?5coord?5index?5out?5of?5range?$AA@ 000000014009b358     picomodel:pm_obj.obj
 0002:00002378       ??_C@_0BK@EALDIAOG@Normal?5index?5out?5of?5range?$AA@ 000000014009b378     picomodel:pm_obj.obj
 0002:00002398       ??_C@_0BJ@BLNHKHFI@Error?5allocating?5surface?$AA@ 000000014009b398     picomodel:pm_obj.obj
 0002:000023b8       ??_C@_0CC@MCIHIGAM@Realloc?5of?5vertex?5data?5failed?5?$CI3@ 000000014009b3b8     picomodel:pm_obj.obj
 0002:000023e0       ??_C@_0BK@CPEONCMB@Vertex?5normal?5parse?5error?$AA@ 000000014009b3e0     picomodel:pm_obj.obj
 0002:00002400       ??_C@_0CC@MDEFOMDL@Realloc?5of?5vertex?5data?5failed?5?$CI2@ 000000014009b400     picomodel:pm_obj.obj
 0002:00002428       ??_C@_0BF@OBLLJONC@UV?5coord?5parse?5error?$AA@ 000000014009b428     picomodel:pm_obj.obj
 0002:00002440       ??_C@_0CC@MBADFCGC@Realloc?5of?5vertex?5data?5failed?5?$CI1@ 000000014009b440     picomodel:pm_obj.obj
 0002:00002468       ??_C@_0BE@PDBDLBLH@?$CFs?5in?5OBJ?0?5line?5?$CFd?4?$AA@ 000000014009b468     picomodel:pm_obj.obj
 0002:00002480       ??_C@_0BD@NINFNIBA@Vertex?5parse?5error?$AA@ 000000014009b480     picomodel:pm_obj.obj
 0002:00002494       ??_C@_05LCKIIOJE@?$CFd?1?$CFd?$AA@ 000000014009b494     picomodel:pm_obj.obj
 0002:000024a0       ??_C@_08EAFBBLEB@?$CFd?1?$CFd?1?$CFd?$AA@ 000000014009b4a0     picomodel:pm_obj.obj
 0002:000024ac       ??_C@_06OIKEFGOD@?$CFd?1?1?$CFd?$AA@ 000000014009b4ac     picomodel:pm_obj.obj
 0002:000024b4       ??_C@_01INIBCBCB@f?$AA@    000000014009b4b4     picomodel:pm_obj.obj
 0002:000024b8       ??_C@_02KLLMHECG@vn?$AA@   000000014009b4b8     picomodel:pm_obj.obj
 0002:000024bc       ??_C@_02BLJBIOPN@vt?$AA@   000000014009b4bc     picomodel:pm_obj.obj
 0002:000024c0       ??_C@_0M@DJHNCEHC@picoterrain?$AA@ 000000014009b4c0     picomodel:pm_terrain.obj
 0002:000024d0       ??_C@_0BC@MKEHJENN@2003?5Randy?5Reddig?$AA@ 000000014009b4d0     picomodel:pm_terrain.obj
 0002:000024e8       ??_C@_0N@MENMPKN@Randy?5Reddig?$AA@ 000000014009b4e8     picomodel:pm_terrain.obj
 0002:000024f8       ??_C@_0M@NIDKJNNM@PicoTerrain?$AA@ 000000014009b4f8     picomodel:pm_terrain.obj
 0002:00002504       ??_C@_03FAJELBPN@1?43?$AA@ 000000014009b504     picomodel:pm_terrain.obj
 0002:00002510       picoModuleTerrain          000000014009b510     picomodel:pm_terrain.obj
 0002:00002570       ??_C@_0DM@MNKGHENE@Only?532?5or?524?5bit?5TGA?5images?5sup@ 000000014009b570     picomodel:pm_terrain.obj
 0002:000025b0       ??_C@_0CI@EILFKDHO@Indexed?5color?5TGA?5images?5not?5sup@ 000000014009b5b0     picomodel:pm_terrain.obj
 0002:000025e0       ??_C@_0EA@OOMKOOIK@Only?5type?52?5?$CIRGB?$CJ?0?53?5?$CIgray?$CJ?0?5and@ 000000014009b5e0     picomodel:pm_terrain.obj
 0002:00002620       ??_C@_0CJ@BBHMMFHG@PicoTerrain?5model?5with?5invalid?5h@ 000000014009b620     picomodel:pm_terrain.obj
 0002:00002650       ??_C@_0CG@DJJADFJI@Unable?5to?5allocate?5a?5new?5model?5s@ 000000014009b650     picomodel:pm_terrain.obj
 0002:00002678       ??_C@_0CH@INGKJEOK@Unable?5to?5allocate?5a?5new?5model?5s@ 000000014009b678     picomodel:pm_terrain.obj
 0002:000026a0       ??_C@_0BP@COAJEIEO@Unable?5to?5allocate?5a?5new?5model?$AA@ 000000014009b6a0     picomodel:pm_terrain.obj
 0002:000026c0       ??_C@_0CN@LJFKKALO@PicoTerrain?5colormap?1heightmap?5s@ 000000014009b6c0     picomodel:pm_terrain.obj
 0002:000026f0       ??_C@_08OMBDDLKJ@colormap?$AA@ 000000014009b6f0     picomodel:pm_terrain.obj
 0002:00002700       ??_C@_09OJHOCBK@heightmap?$AA@ 000000014009b700     picomodel:pm_terrain.obj
 0002:00002710       ??_C@_0BK@EDFGCBAA@Invalid?5PicoTerrain?5model?$AA@ 000000014009b710     picomodel:pm_terrain.obj
 0002:0000272c       ??_C@_03BMJAGBOF@lwo?$AA@  000000014009b72c     picomodel:pm_lwo.obj
 0002:00002730       ??_C@_0CI@PHLCFBDN@2003?5Arnout?5van?5Meer?0?52000?5Ernie@ 000000014009b730     picomodel:pm_lwo.obj
 0002:00002758       ??_C@_0BA@FCFBBIPJ@Arnout?5van?5Meer?$AA@ 000000014009b758     picomodel:pm_lwo.obj
 0002:00002768       ??_C@_0BB@OCCJOOME@LightWave?5Object?$AA@ 000000014009b768     picomodel:pm_lwo.obj
 0002:00002780       picoModuleLWO              000000014009b780     picomodel:pm_lwo.obj
 0002:000027e0       ??_C@_03EKLFPLOI@n?1a?$AA@ 000000014009b7e0     picomodel:pm_lwo.obj
 0002:000027e8       ??_C@_0CM@BJNAHJDK@Invalid?5or?5out?9of?9range?5LWO?5fram@ 000000014009b7e8     picomodel:pm_lwo.obj
 0002:00002818       ??_C@_0BO@HNBKPJFO@Unable?5to?5allocate?5hash?5table?$AA@ 000000014009b818     picomodel:pm_lwo.obj
 0002:00002838       ??_C@_0CL@OHFONKAN@Unable?5to?5allocate?5hash?5bucket?5e@ 000000014009b838     picomodel:pm_lwo.obj
 0002:00002868       ??_C@_0DO@COECIKFE@LWO?5loader?5discarded?5a?5polygon?5b@ 000000014009b868     picomodel:pm_lwo.obj
 0002:000028a8       ??_C@_0DO@NKLGIAII@LWO?5loader?5discarded?5a?5polygon?5b@ 000000014009b8a8     picomodel:pm_lwo.obj
 0002:000028f0       ??_C@_0EH@LCDNHOHH@LWO?5loader?5discards?5any?5geometry@ 000000014009b8f0     picomodel:pm_lwo.obj
 0002:00002938       ??_C@_0DH@FDNLKAAE@Couldn?8t?5load?5LWO?5file?0?5failed?5o@ 000000014009b938     picomodel:pm_lwo.obj
 0002:00002970       ??_C@_02JMLHIEJF@fm?$AA@   000000014009b970     picomodel:pm_fm.obj
 0002:00002978       ??_C@_0M@BDHGKDPF@2003?5Nurail?$AA@ 000000014009b978     picomodel:pm_fm.obj
 0002:00002984       ??_C@_06KDIOEFBK@Nurail?$AA@ 000000014009b984     picomodel:pm_fm.obj
 0002:00002990       ??_C@_0N@KDHODKEA@Heretic?52?5FM?$AA@ 000000014009b990     picomodel:pm_fm.obj
 0002:000029a0       ??_C@_04FAFIBOPH@0?485?$AA@ 000000014009b9a0     picomodel:pm_fm.obj
 0002:000029b0       picoModuleFM               000000014009b9b0     picomodel:pm_fm.obj
 0002:00002a10       ??_C@_06OLAPKHEJ@frames?$AA@ 000000014009ba10     picomodel:pm_fm.obj
 0002:00002a18       ??_C@_04LHKNPMGA@tris?$AA@ 000000014009ba18     picomodel:pm_fm.obj
 0002:00002a20       ??_C@_08JHNMNKBH@st?5coord?$AA@ 000000014009ba20     picomodel:pm_fm.obj
 0002:00002a2c       ??_C@_06MBPAJAPM@header?$AA@ 000000014009ba2c     picomodel:pm_fm.obj
 0002:00002a38       ??_C@_0CL@MHMDGJPN@Invalid?5or?5out?9of?9range?5FM?5frame@ 000000014009ba38     picomodel:pm_fm.obj
 0002:00002a68       ??_C@_0BL@OJCDLBIP@?5Not?5all?5LL?5mallocs?5freed?6?$AA@ 000000014009ba68     picomodel:pm_fm.obj
 0002:00002a88       ??_C@_0BM@FLAOMNAH@?5Couldn?8t?5allocate?5memory?$CB?6?$AA@ 000000014009ba88     picomodel:pm_fm.obj
 0002:00002aa8       ??_C@_0BB@NIHEGECL@?$CFs?5has?50?5frames?$CB?$AA@ 000000014009baa8     picomodel:pm_fm.obj
 0002:00002ac0       ??_C@_0BM@GBBBCCKF@FM?5Frame?5Version?5incorrect?6?$AA@ 000000014009bac0     picomodel:pm_fm.obj
 0002:00002ae0       ??_C@_0BK@DNJLIGLE@FM?5Frame?5Ident?5incorrect?6?$AA@ 000000014009bae0     picomodel:pm_fm.obj
 0002:00002b00       ??_C@_0BK@HOMHFHPE@FM?5Tri?5Version?5incorrect?6?$AA@ 000000014009bb00     picomodel:pm_fm.obj
 0002:00002b20       ??_C@_0BI@HNLPGNHP@FM?5Tri?5Ident?5incorrect?6?$AA@ 000000014009bb20     picomodel:pm_fm.obj
 0002:00002b38       ??_C@_0BJ@NFGJMGCF@FM?5ST?5Version?5incorrect?6?$AA@ 000000014009bb38     picomodel:pm_fm.obj
 0002:00002b58       ??_C@_0BH@LLDKPJDD@FM?5ST?5Ident?5incorrect?6?$AA@ 000000014009bb58     picomodel:pm_fm.obj
 0002:00002b70       ??_C@_0BL@MBCINFFL@FM?5Skin?5Version?5incorrect?6?$AA@ 000000014009bb70     picomodel:pm_fm.obj
 0002:00002b90       ??_C@_0BJ@CLAAIDNJ@FM?5Skin?5Ident?5incorrect?6?$AA@ 000000014009bb90     picomodel:pm_fm.obj
 0002:00002bb0       ??_C@_0BN@GNGOOHJN@FM?5Header?5Version?5incorrect?6?$AA@ 000000014009bbb0     picomodel:pm_fm.obj
 0002:00002bd0       ??_C@_0BL@OPLLMLMH@FM?5Header?5Ident?5incorrect?6?$AA@ 000000014009bbd0     picomodel:pm_fm.obj
 0002:00002bec       ??_C@_03LFFJDILA@md2?$AA@  000000014009bbec     picomodel:pm_md2.obj
 0002:00002bf0       ??_C@_0M@GAMKEOBJ@Quake?52?5MD2?$AA@ 000000014009bbf0     picomodel:pm_md2.obj
 0002:00002bfc       ??_C@_05ICDMCJHJ@0?4875?$AA@ 000000014009bbfc     picomodel:pm_md2.obj
 0002:00002c10       picoModuleMD2              000000014009bc10     picomodel:pm_md2.obj
 0002:00002c70       ??_C@_0BH@EOOOMHIO@?$CFs?5is?5not?5an?5MD2?5File?$CB?$AA@ 000000014009bc70     picomodel:pm_md2.obj
 0002:00002c88       ??_C@_0CM@PGGAKEHM@Invalid?5or?5out?9of?9range?5MD2?5fram@ 000000014009bc88     picomodel:pm_md2.obj
 0002:00002cc0       ??_C@_0EJ@DKNAOPPO@Skins?3?5?$CFd?5?5Verts?3?5?$CFd?5?5STs?3?5?$CFd?5?5T@ 000000014009bcc0     picomodel:pm_md2.obj
 0002:00002d0c       ??_C@_03BGPJFEKF@mdc?$AA@  000000014009bd0c     picomodel:pm_mdc.obj
 0002:00002d10       ??_C@_0BF@FAGIKLAP@2002?5Arnout?5van?5Meer?$AA@ 000000014009bd10     picomodel:pm_mdc.obj
 0002:00002d28       ??_C@_08NFINMFO@RtCW?5MDC?$AA@ 000000014009bd28     picomodel:pm_mdc.obj
 0002:00002d40       picoModuleMDC              000000014009bd40     picomodel:pm_mdc.obj
 0002:00002da0       ??_C@_0CM@NAFKIGNF@Invalid?5or?5out?9of?9range?5MDC?5fram@ 000000014009bda0     picomodel:pm_mdc.obj
 0002:00002dd0       __real@3f9921fb54442d18    000000014009bdd0     picomodel:pm_mdc.obj
 0002:00002dd8       __real@3c800000            000000014009bdd8     picomodel:pm_mdc.obj
 0002:00002de0       ??_C@_0BC@KKOGJDMN@MDC?5with?50?5frames?$AA@ 000000014009bde0     picomodel:pm_mdc.obj
 0002:00002df4       ??_C@_04GEJEBAG@ms3d?$AA@  000000014009bdf4     picomodel:pm_ms3d.obj
 0002:00002e00       ??_C@_0N@GDADGNAM@Milkshape?53D?$AA@ 000000014009be00     picomodel:pm_ms3d.obj
 0002:00002e10       ??_C@_05HIMCIDH@0?44?9a?$AA@ 000000014009be10     picomodel:pm_ms3d.obj
 0002:00002e20       picoModuleMS3D             000000014009be20     picomodel:pm_ms3d.obj
 0002:00002e80       ??_C@_0DH@LLAHPAHJ@MS3D?5file?5ignored?4?5Only?5MS3D?51?43@ 000000014009be80     picomodel:pm_ms3d.obj
 0002:00002eb8       ??_C@_0L@GHNCCGAL@MS3D000000?$AA@ 000000014009beb8     picomodel:pm_ms3d.obj
 0002:00002ec8       ??_C@_0BO@FFDCEJCE@Mapped?3?5?$CFd?5?$CI?8?$CFs?8?$CJ?5to?5?$CFd?5?$CI?$CFs?$CJ?6?$AA@ 000000014009bec8     picomodel:pm_ms3d.obj
 0002:00002ee8       ??_C@_0BP@NLEFNKCA@Material?5?$CFd?3?5?8?$CFs?8?5?$CI?8?$CFs?8?0?8?$CFs?8?$CJ?6?$AA@ 000000014009bee8     picomodel:pm_ms3d.obj
 0002:00002f08       ??_C@_0BC@KKFDCEMG@NumMaterials?3?5?$CFd?6?$AA@ 000000014009bf08     picomodel:pm_ms3d.obj
 0002:00002f20       ??_C@_0BK@KLNIEEAG@Group?5?$CFd?3?5?8?$CFs?8?5?$CI?$CFd?5tris?$CJ?6?$AA@ 000000014009bf20     picomodel:pm_ms3d.obj
 0002:00002f40       ??_C@_0CN@GLOJKCGH@Vertex?5?$CFd?5index?5?$CFd?5out?5of?5range?5@ 000000014009bf40     picomodel:pm_ms3d.obj
 0002:00002f70       ??_C@_0P@GHPHBAKB@NumGroups?3?5?$CFd?6?$AA@ 000000014009bf70     picomodel:pm_ms3d.obj
 0002:00002f80       ??_C@_0BC@CGJINCEJ@NumTriangles?3?5?$CFd?6?$AA@ 000000014009bf80     picomodel:pm_ms3d.obj
 0002:00002f98       ??_C@_0BB@DAIIDELL@NumVertices?3?5?$CFd?6?$AA@ 000000014009bf98     picomodel:pm_ms3d.obj
 0002:00002fb0       ??_C@_0BP@DEGPAHBN@2003?5Jared?5Hefty?0?52002?5seaw0lf?$AA@ 000000014009bfb0     picomodel:pm_ase.obj
 0002:00002fd0       ??_C@_0BF@PODFEGPB@Jared?5Hefty?0?5seaw0lf?$AA@ 000000014009bfd0     picomodel:pm_ase.obj
 0002:00002fe8       ??_C@_0BG@KFPFFFGD@Autodesk?53DSMAX?5ASCII?$AA@ 000000014009bfe8     picomodel:pm_ase.obj
 0002:00003000       picoModuleASE              000000014009c000     picomodel:pm_ase.obj
 0002:00003060       ??_C@_0CD@KIBHLBPK@No?5ASE?5material?5exists?5with?5id?5?$CF@ 000000014009c060     picomodel:pm_ase.obj
 0002:00003088       ??_C@_0DC@MHLGKOFE@Could?5not?5find?5material?1submater@ 000000014009c088     picomodel:pm_ase.obj
 0002:000030c0       ??_C@_0BE@KFNBAHIC@?$CK3dsmax_asciiexport?$AA@ 000000014009c0c0     picomodel:pm_ase.obj
 0002:000030d8       ??_C@_0BP@ECOIBMLF@Material?5missing?5opening?5brace?$AA@ 000000014009c0d8     picomodel:pm_ase.obj
 0002:000030f8       ??_C@_0CB@LFDDNPAB@Missing?5material?5map?5bitmap?5name@ 000000014009c0f8     picomodel:pm_ase.obj
 0002:00003120       ??_C@_0BL@IKOEMHEO@Material?5color?5parse?5error?$AA@ 000000014009c120     picomodel:pm_ase.obj
 0002:00003140       ??_C@_0BL@EEAIHHEP@Material?5shine?5parse?5error?$AA@ 000000014009c140     picomodel:pm_ase.obj
 0002:00003160       ??_C@_0CC@IMDCJGCC@Material?5transparency?5parse?5erro@ 000000014009c160     picomodel:pm_ase.obj
 0002:00003188       ??_C@_0BG@CKMDFIKG@Missing?5material?5name?$AA@ 000000014009c188     picomodel:pm_ase.obj
 0002:000031a0       ??_C@_0BJ@BBLJEILG@Color?5Vertex?5parse?5error?$AA@ 000000014009c1a0     picomodel:pm_ase.obj
 0002:000031c0       ??_C@_0BJ@DHDNDOKC@Color?5vertex?5parse?5error?$AA@ 000000014009c1c0     picomodel:pm_ase.obj
 0002:000031e0       ??_C@_0BJ@BBEPGBDH@Texture?5face?5parse?5error?$AA@ 000000014009c1e0     picomodel:pm_ase.obj
 0002:00003200       ??_C@_0BG@PHIEECBN@UV?5vertex?5parse?5error?$AA@ 000000014009c200     picomodel:pm_ase.obj
 0002:00003218       ??_C@_0CB@OEJHJOPP@Vertex?5parse?5error?5?$CIfacenormals?$CJ@ 000000014009c218     picomodel:pm_ase.obj
 0002:00003240       ??_C@_0BO@GHIGNFPD@Missing?5material?5reference?5ID?$AA@ 000000014009c240     picomodel:pm_ase.obj
 0002:00003260       ??_C@_0BO@CGCHBMIA@Missing?5MESH_NUMCVERTEX?5value?$AA@ 000000014009c260     picomodel:pm_ase.obj
 0002:00003280       ??_C@_0BO@CFFIIKCM@Missing?5MESH_NUMTVERTEX?5value?$AA@ 000000014009c280     picomodel:pm_ase.obj
 0002:000032a0       ??_C@_0BM@HMLOECBD@Missing?5MESH_NUMFACES?5value?$AA@ 000000014009c2a0     picomodel:pm_ase.obj
 0002:000032c0       ??_C@_0BN@LLEDCMKC@Missing?5MESH_NUMVERTEX?5value?$AA@ 000000014009c2c0     picomodel:pm_ase.obj
 0002:000032e0       ??_C@_0BG@CNMMELLP@Node?5name?5parse?5error?$AA@ 000000014009c2e0     picomodel:pm_ase.obj
 0002:000032f8       ??_C@_04KFPCKHMN@doom?$AA@ 000000014009c2f8     picomodel:pm_ase.obj
 0002:00003300       ??_C@_07GCINOMGG@?$CKbitmap?$AA@ 000000014009c300     picomodel:pm_ase.obj
 0002:00003308       ??_C@_0N@JFCDGLBH@?$CKmap_diffuse?$AA@ 000000014009c308     picomodel:pm_ase.obj
 0002:00003318       ??_C@_0BD@OBKEHHKC@?$CKmaterial_specular?$AA@ 000000014009c318     picomodel:pm_ase.obj
 0002:00003330       ??_C@_0BC@KNLOJHOD@?$CKmaterial_diffuse?$AA@ 000000014009c330     picomodel:pm_ase.obj
 0002:00003348       ??_C@_0BC@BPOOCMPP@?$CKmaterial_ambient?$AA@ 000000014009c348     picomodel:pm_ase.obj
 0002:00003360       ??_C@_0BA@DPPCNOCG@?$CKmaterial_shine?$AA@ 000000014009c360     picomodel:pm_ase.obj
 0002:00003370       ??_C@_0BH@BJJMPGII@?$CKmaterial_transparency?$AA@ 000000014009c370     picomodel:pm_ase.obj
 0002:00003388       ??_C@_0P@HLIFADNP@?$CKmaterial_name?$AA@ 000000014009c388     picomodel:pm_ase.obj
 0002:00003398       ??_C@_0N@MEALMPML@?$CKsubmaterial?$AA@ 000000014009c398     picomodel:pm_ase.obj
 0002:000033a8       ??_C@_09PABICGAN@?$CKmaterial?$AA@ 000000014009c3a8     picomodel:pm_ase.obj
 0002:000033b8       ??_C@_0M@IMIMEGKG@?$CKmesh_cface?$AA@ 000000014009c3b8     picomodel:pm_ase.obj
 0002:000033c8       ??_C@_0O@JKHLJKFJ@?$CKmesh_vertcol?$AA@ 000000014009c3c8     picomodel:pm_ase.obj
 0002:000033d8       ??_C@_0M@JCFPHEIF@?$CKmesh_tface?$AA@ 000000014009c3d8     picomodel:pm_ase.obj
 0002:000033e8       ??_C@_0M@DDOAJOAH@?$CKmesh_tvert?$AA@ 000000014009c3e8     picomodel:pm_ase.obj
 0002:000033f8       ??_C@_0M@DDJAAEMC@?$CKMESH_MTLID?$AA@ 000000014009c3f8     picomodel:pm_ase.obj
 0002:00003408       ??_C@_0BA@IJPCGNFJ@?$CKMESH_SMOOTHING?$AA@ 000000014009c408     picomodel:pm_ase.obj
 0002:00003418       ??_C@_0L@GCALAEKI@?$CKmesh_face?$AA@ 000000014009c418     picomodel:pm_ase.obj
 0002:00003428       ??_C@_0O@JJLAGCDG@?$CKmesh_normals?$AA@ 000000014009c428     picomodel:pm_ase.obj
 0002:00003438       ??_C@_0BD@JFKOLNII@?$CKmesh_vertexnormal?$AA@ 000000014009c438     picomodel:pm_ase.obj
 0002:00003450       ??_C@_0BB@HELFDOPG@?$CKmesh_facenormal?$AA@ 000000014009c450     picomodel:pm_ase.obj
 0002:00003468       ??_C@_0N@IBCDDKNG@?$CKmesh_vertex?$AA@ 000000014009c468     picomodel:pm_ase.obj
 0002:00003478       ??_C@_0O@PHMCHNCN@?$CKmaterial_ref?$AA@ 000000014009c478     picomodel:pm_ase.obj
 0002:00003488       ??_C@_0BO@POLFOKHN@Missing?5MESH_NUMCVFACES?5value?$AA@ 000000014009c488     picomodel:pm_ase.obj
 0002:000034a8       ??_C@_0BB@JAGMJDHG@?$CKmesh_numcvfaces?$AA@ 000000014009c4a8     picomodel:pm_ase.obj
 0002:000034c0       ??_C@_0BB@BPICLKGH@?$CKmesh_numcvertex?$AA@ 000000014009c4c0     picomodel:pm_ase.obj
 0002:000034d8       ??_C@_0BE@CDINAEBJ@?$CFs?5in?5ASE?0?5line?5?$CFd?4?$AA@ 000000014009c4d8     picomodel:pm_ase.obj
 0002:000034f0       ??_C@_0BO@PNMKHMNB@Missing?5MESH_NUMTVFACES?5value?$AA@ 000000014009c4f0     picomodel:pm_ase.obj
 0002:00003510       ??_C@_0BB@OGBCKLEE@?$CKmesh_numtvfaces?$AA@ 000000014009c510     picomodel:pm_ase.obj
 0002:00003528       ??_C@_0BB@GJPMICFF@?$CKmesh_numtvertex?$AA@ 000000014009c528     picomodel:pm_ase.obj
 0002:00003540       ??_C@_0P@JNNDPBFN@?$CKmesh_numfaces?$AA@ 000000014009c540     picomodel:pm_ase.obj
 0002:00003550       ??_C@_0BA@KDGAICJE@?$CKmesh_numvertex?$AA@ 000000014009c550     picomodel:pm_ase.obj
 0002:00003560       ??_C@_05HOMDPLGH@?$CKmesh?$AA@ 000000014009c560     picomodel:pm_ase.obj
 0002:00003568       ??_C@_0L@DBFFAKAM@?$CKnode_name?$AA@ 000000014009c568     picomodel:pm_ase.obj
 0002:00003574       ??_C@_03HHOJDOGF@3ds?$AA@  000000014009c574     picomodel:pm_3ds.obj
 0002:00003578       ??_C@_0BC@HOFMLILG@Autodesk?53Dstudio?$AA@ 000000014009c578     picomodel:pm_3ds.obj
 0002:0000358c       ??_C@_06NEBJGJDJ@0?486?9b?$AA@ 000000014009c58c     picomodel:pm_3ds.obj
 0002:000035a0       picoModule3DS              000000014009c5a0     picomodel:pm_3ds.obj
 0002:00003600       ??_C@_0CA@CDKABFBP@3DS?5mesh?5is?5missing?5shader?5name?$AA@ 000000014009c600     picomodel:pm_3ds.obj
 0002:00003620       ??_C@_0BI@LDJBDGNA@models?1mapobjects?1?$CFs?1?$CFs?$AA@ 000000014009c620     picomodel:pm_3ds.obj
 0002:00003638       ??_C@_0DA@FEEFDPII@3DS?5version?5is?54?4?5Model?5might?5lo@ 000000014009c638     picomodel:pm_3ds.obj
 0002:00003668       ??_C@_03KMECAJPB@md3?$AA@  000000014009c668     picomodel:pm_md3.obj
 0002:00003670       ??_C@_0BC@HDLMEPDF@2002?5Randy?5Reddig?$AA@ 000000014009c670     picomodel:pm_md3.obj
 0002:00003688       ??_C@_0O@PHBIKDFB@Quake?53?5Arena?$AA@ 000000014009c688     picomodel:pm_md3.obj
 0002:000036a0       picoModuleMD3              000000014009c6a0     picomodel:pm_md3.obj
 0002:00003700       ??_C@_0CN@MCNBCGLH@Not?5an?5MD3?5file?5?$CImagic?5?$CFc?$CFc?$CFc?$CFc?0@ 000000014009c700     picomodel:pm_md3.obj
 0002:00003730       ??_C@_0CM@BJDCBCJN@Invalid?5or?5out?9of?9range?5MD3?5fram@ 000000014009c730     picomodel:pm_md3.obj
 0002:00003760       ??_C@_0BC@HFIACANE@MD3?5with?50?5frames?$AA@ 000000014009c760     picomodel:pm_md3.obj
 0002:00003778       ??_C@_0L@CAPFCNHL@?$CIsequence?$CJ?$AA@ 000000014009c778     picomodel:lwob.obj
 0002:00003788       ??_C@_0L@HNFGPOPK@Position?4X?$AA@ 000000014009c788     picomodel:lwob.obj
 0002:00003794       __real@41f00000            000000014009c794     picomodel:lwob.obj
 0002:00003798       ??_C@_05HOHBLJAP@Front?$AA@ 000000014009c798     picomodel:lwob.obj
 0002:000037a0       ??_C@_05GODKLOGC@Cubic?$AA@ 000000014009c7a0     picomodel:lwob.obj
 0002:000037a8       ??_C@_09BPHDNFPM@Spherical?$AA@ 000000014009c7a8     picomodel:lwob.obj
 0002:000037b8       ??_C@_0M@LMDNFNDP@Cylindrical?$AA@ 000000014009c7b8     picomodel:lwob.obj
 0002:000037c4       ??_C@_06BFMHGCLJ@Planar?$AA@ 000000014009c7c4     picomodel:lwob.obj
 0002:000037d0       ??_C@_09BHAKOGLC@Image?5Map?$AA@ 000000014009c7d0     picomodel:lwob.obj
 0002:000037dc       __real@3d44f9e3            000000014009c7dc     picomodel:lwob.obj
 0002:000037e0       ??_C@_0N@KDJFPOGB@IncDrawVerts?$AA@ 000000014009c7e0     bspfile_abstract.obj
 0002:000037f0       ??_C@_0CA@GKJOOLIB@realloc?$CI?$CJ?5failed?5?$CIIncDrawVerts?$CJ?$AA@ 000000014009c7f0     bspfile_abstract.obj
 0002:00003810       ??_C@_0BA@ECMAGCEJ@IncDrawSurfaces?$AA@ 000000014009c810     bspfile_abstract.obj
 0002:00003820       ??_C@_0CP@DAJNFHLC@GetLumpElements?3?5odd?5lump?5size?5?$CI@ 000000014009c820     bspfile_abstract.obj
 0002:00003850       ??_C@_0CJ@FJOIKIPF@CopyLump?3?5odd?5lump?5size?5?$CI?$CFd?$CJ?5in?5@ 000000014009c850     bspfile_abstract.obj
 0002:00003880       ??_C@_0CI@LLEAALGC@CopyLump?3?5odd?5lump?5size?5?$CI?$CFd?$CJ?5in?5@ 000000014009c880     bspfile_abstract.obj
 0002:000038a8       ??_C@_0CJ@EILJKGAG@LoadBSPFile?3?5unsupported?5BSP?5fil@ 000000014009c8a8     bspfile_abstract.obj
 0002:000038d8       ??_C@_0CK@NHOIPNAA@WriteBSPFile?3?5unsupported?5BSP?5fi@ 000000014009c8d8     bspfile_abstract.obj
 0002:00003908       ??_C@_07GKHNNJPF@?$CFs?4?$CF08X?$AA@ 000000014009c908     bspfile_abstract.obj
 0002:00003910       ??_C@_0DL@MJHKCGAF@Abstracted?5BSP?5file?5components?5?$CI@ 000000014009c910     bspfile_abstract.obj
 0002:00003950       ??_C@_0BH@IPLCFKDB@?$CF9d?5models?5?5?5?5?5?5?5?5?$CF9d?6?$AA@ 000000014009c950     bspfile_abstract.obj
 0002:00003968       ??_C@_0BH@OMFIKNHC@?$CF9d?5shaders?5?5?5?5?5?5?5?$CF9d?6?$AA@ 000000014009c968     bspfile_abstract.obj
 0002:00003980       ??_C@_0BH@JECIBDEO@?$CF9d?5brushes?5?5?5?5?5?5?5?$CF9d?6?$AA@ 000000014009c980     bspfile_abstract.obj
 0002:00003998       ??_C@_0BJ@MPHHLEBG@?$CF9d?5brushsides?5?5?5?5?$CF9d?5?$CK?6?$AA@ 000000014009c998     bspfile_abstract.obj
 0002:000039b8       ??_C@_0BH@BHANPBDM@?$CF9d?5fogs?5?5?5?5?5?5?5?5?5?5?$CF9d?6?$AA@ 000000014009c9b8     bspfile_abstract.obj
 0002:000039d0       ??_C@_0BH@JJFKPMDI@?$CF9d?5planes?5?5?5?5?5?5?5?5?$CF9d?6?$AA@ 000000014009c9d0     bspfile_abstract.obj
 0002:000039e8       ??_C@_0BH@CJKAGJFL@?$CF9d?5entdata?5?5?5?5?5?5?5?$CF9d?6?$AA@ 000000014009c9e8     bspfile_abstract.obj
 0002:00003a00       ??_C@_01EEMJAFIK@?6?$AA@   000000014009ca00     bspfile_abstract.obj
 0002:00003a08       ??_C@_0BH@GHGEGOAM@?$CF9d?5nodes?5?5?5?5?5?5?5?5?5?$CF9d?6?$AA@ 000000014009ca08     bspfile_abstract.obj
 0002:00003a20       ??_C@_0BH@NMDDPFAM@?$CF9d?5leafs?5?5?5?5?5?5?5?5?5?$CF9d?6?$AA@ 000000014009ca20     bspfile_abstract.obj
 0002:00003a38       ??_C@_0BH@OEPEAIDH@?$CF9d?5leafsurfaces?5?5?$CF9d?6?$AA@ 000000014009ca38     bspfile_abstract.obj
 0002:00003a50       ??_C@_0BH@OHEIPLPI@?$CF9d?5leafbrushes?5?5?5?$CF9d?6?$AA@ 000000014009ca50     bspfile_abstract.obj
 0002:00003a68       ??_C@_0BJ@HLOHEGCN@?$CF9d?5drawsurfaces?5?5?$CF9d?5?$CK?6?$AA@ 000000014009ca68     bspfile_abstract.obj
 0002:00003a88       ??_C@_0BJ@IICIJCIJ@?$CF9d?5drawverts?5?5?5?5?5?$CF9d?5?$CK?6?$AA@ 000000014009ca88     bspfile_abstract.obj
 0002:00003aa8       ??_C@_0BH@NPNKOHDJ@?$CF9d?5drawindexes?5?5?5?$CF9d?6?$AA@ 000000014009caa8     bspfile_abstract.obj
 0002:00003ac0       ??_C@_0BH@JHACOMBC@?$CF9d?5lightmaps?5?5?5?5?5?$CF9d?6?$AA@ 000000014009cac0     bspfile_abstract.obj
 0002:00003ad8       ??_C@_0BJ@HBMOABNA@?$CF9d?5lightgrid?5?5?5?5?5?$CF9d?5?$CK?6?$AA@ 000000014009cad8     bspfile_abstract.obj
 0002:00003af8       ??_C@_0BN@GIDDCKED@?5?5?5?5?5?5?5?5?5?5visibility?5?5?5?5?$CF9d?6?$AA@ 000000014009caf8     bspfile_abstract.obj
 0002:00003b18       ??_C@_0BE@CIBLPIIG@?9?9?9?5BSP?5models?5?9?9?9?6?$AA@ 000000014009cb18     bspfile_abstract.obj
 0002:00003b30       ??_C@_0CL@HAFGGAGH@modelno?5?3?5brushes?5?5drawsurfs?5?5fi@ 000000014009cb30     bspfile_abstract.obj
 0002:00003b60       ??_C@_0BJ@DDGIEILN@?$CK?$CF4i?5?5?3?5?$CF4i?5?5?5?$CF4i?5?5?5?$CFs?5?6?$AA@ 000000014009cb60     bspfile_abstract.obj
 0002:00003b80       ??_C@_0BK@KNIIEFHO@?4?4?2src?2bspfile_abstract?4c?$AA@ 000000014009cb80     bspfile_abstract.obj
 0002:00003ba0       ??_C@_0BL@MPIHAIFO@ParseEPair?3?5token?5too?5long?$AA@ 000000014009cba0     bspfile_abstract.obj
 0002:00003bc0       ??_C@_0BK@IGGDCDAB@ParseEpar?3?5token?5too?5long?$AA@ 000000014009cbc0     bspfile_abstract.obj
 0002:00003bdc       ??_C@_01HCONENDN@?$HL?$AA@ 000000014009cbdc     bspfile_abstract.obj
 0002:00003be0       ??_C@_0BJ@FJKNDMCD@ParseEntity?3?5?$HL?5not?5found?$AA@ 000000014009cbe0     bspfile_abstract.obj
 0002:00003c00       ??_C@_0CM@DICIFAGN@ParseEntity?3?5MAX_MAP_ENTITIES?5?$CI?$CF@ 000000014009cc00     bspfile_abstract.obj
 0002:00003c30       ??_C@_0CH@DFFBFKCE@ParseEntity?3?5EOF?5without?5closing@ 000000014009cc30     bspfile_abstract.obj
 0002:00003c58       ??_C@_01CELHOKLL@?$HN?$AA@ 000000014009cc58     bspfile_abstract.obj
 0002:00003c60       ??_C@_0O@BMAEGMFP@_mapEntityNum?$AA@ 000000014009cc60     bspfile_abstract.obj
 0002:00003c70       ??_C@_09CNJINBGN@classname?$AA@ 000000014009cc70     bspfile_abstract.obj
 0002:00003c80       ??_C@_0L@PMAFMKKM@misc_model?$AA@ 000000014009cc80     bspfile_abstract.obj
 0002:00003c8c       ??_C@_06NMHHNBPP@_decal?$AA@ 000000014009cc8c     bspfile_abstract.obj
 0002:00003c98       ??_C@_0L@LGEBDKA@misc_decal?$AA@ 000000014009cc98     bspfile_abstract.obj
 0002:00003ca8       ??_C@_07GIOIDGAG@_skybox?$AA@ 000000014009cca8     bspfile_abstract.obj
 0002:00003cb0       ??_C@_0M@JDOLGJKB@misc_skybox?$AA@ 000000014009ccb0     bspfile_abstract.obj
 0002:00003cbc       ??_C@_02KCPFEJNG@?$HL?6?$AA@ 000000014009ccbc     bspfile_abstract.obj
 0002:00003cc0       ??_C@_01IDAFKMJL@_?$AA@    000000014009ccc0     bspfile_abstract.obj
 0002:00003cc8       ??_C@_0L@KFNFGCAJ@?$CC?$CFs?$CC?5?$CC?$CFs?$CC?6?$AA@ 000000014009ccc8     bspfile_abstract.obj
 0002:00003cd4       ??_C@_02KGHIDFGE@?$HN?6?$AA@ 000000014009ccd4     bspfile_abstract.obj
 0002:00003cd8       ??_C@_0BF@KIJEKCEJ@Entity?5text?5too?5long?$AA@ 000000014009ccd8     bspfile_abstract.obj
 0002:00003ced       ??_C@_00CNPNBAHC@?$AA@     000000014009cced     bspfile_abstract.obj
 0002:00003cf0       ??_C@_0M@HBEEPJK@?$CFlf?5?$CFlf?5?$CFlf?$AA@ 000000014009ccf0     bspfile_abstract.obj
 0002:00003d00       ??_C@_0L@FEPNPAJD@targetname?$AA@ 000000014009cd00     bspfile_abstract.obj
 0002:00003d10       ??_C@_0N@FKNFEIBL@_castShadows?$AA@ 000000014009cd10     bspfile_abstract.obj
 0002:00003d20       ??_C@_03DFGGAFL@_cs?$AA@   000000014009cd20     bspfile_abstract.obj
 0002:00003d28       ??_C@_0BA@MMKCONOM@_receiveShadows?$AA@ 000000014009cd28     bspfile_abstract.obj
 0002:00003d38       ??_C@_03BOLCKJBM@_rs?$AA@  000000014009cd38     bspfile_abstract.obj
 0002:00003d3c       ??_C@_03IAKCHGG@_ls?$AA@   000000014009cd3c     bspfile_abstract.obj
 0002:00003d40       ??_C@_0P@EAPAJLNC@_lightmapscale?$AA@ 000000014009cd40     bspfile_abstract.obj
 0002:00003d50       ??_C@_0O@JMIJMGFN@lightmapscale?$AA@ 000000014009cd50     bspfile_abstract.obj
 0002:00003d60       ??_C@_03HAPOFHLF@_la?$AA@  000000014009cd60     bspfile_abstract.obj
 0002:00003d68       ??_C@_0O@EMDJGKGH@_lightmapaxis?$AA@ 000000014009cd68     bspfile_abstract.obj
 0002:00003d78       ??_C@_0N@ODGJCKEJ@lightmapaxis?$AA@ 000000014009cd78     bspfile_abstract.obj
 0002:00003d88       ??_C@_01GLPGHMHM@z?$AA@    000000014009cd88     bspfile_abstract.obj
 0002:00003d8c       ??_C@_02OFPLGCCC@?9z?$AA@  000000014009cd8c     bspfile_abstract.obj
 0002:00003d90       ??_C@_01EANLCPLP@y?$AA@    000000014009cd90     bspfile_abstract.obj
 0002:00003d94       ??_C@_02MONGDBOB@?9y?$AA@  000000014009cd94     bspfile_abstract.obj
 0002:00003d98       ??_C@_01FJMABOPO@x?$AA@    000000014009cd98     bspfile_abstract.obj
 0002:00003d9c       ??_C@_02NHMNAAKA@?9x?$AA@  000000014009cd9c     bspfile_abstract.obj
 0002:00003da0       ??_C@_08OEKJENGB@?$CFf?5?$CFf?5?$CFf?$AA@ 000000014009cda0     bspfile_abstract.obj
 0002:00003dac       ??_C@_03CAKDKAML@_np?$AA@  000000014009cdac     bspfile_abstract.obj
 0002:00003db0       ??_C@_0P@PFINHJHE@_smoothnormals?$AA@ 000000014009cdb0     bspfile_abstract.obj
 0002:00003dc0       ??_C@_06NHOPLGF@_color?$AA@ 000000014009cdc0     bspfile_abstract.obj
 0002:00003dc8       ??_C@_08OAIFDCEH@minlight?$AA@ 000000014009cdc8     bspfile_abstract.obj
 0002:00003dd8       ??_C@_09KNBJJDFK@_minlight?$AA@ 000000014009cdd8     bspfile_abstract.obj
 0002:00003de8       ??_C@_0P@PCHLLHDM@minvertexlight?$AA@ 000000014009cde8     bspfile_abstract.obj
 0002:00003df8       ??_C@_0BA@IPKAFANA@_minvertexlight?$AA@ 000000014009cdf8     bspfile_abstract.obj
 0002:00003e08       ??_C@_07LIABELBC@ambient?$AA@ 000000014009ce08     bspfile_abstract.obj
 0002:00003e10       ??_C@_08JGMBAOHC@_ambient?$AA@ 000000014009ce10     bspfile_abstract.obj
 0002:00003e20       ??_C@_09IFLPGAOL@_colormod?$AA@ 000000014009ce20     bspfile_abstract.obj
 0002:00003e30       ??_C@_0L@DHAJDCAI@_patchMeta?$AA@ 000000014009ce30     bspfile_abstract.obj
 0002:00003e40       ??_C@_09FEECMCHA@patchMeta?$AA@ 000000014009ce40     bspfile_abstract.obj
 0002:00003e4c       ??_C@_03MJHHECKN@_pm?$AA@  000000014009ce4c     bspfile_abstract.obj
 0002:00003e50       ??_C@_0O@JGNFOIND@_patchQuality?$AA@ 000000014009ce50     bspfile_abstract.obj
 0002:00003e60       ??_C@_0N@DJIFKIPN@patchQuality?$AA@ 000000014009ce60     bspfile_abstract.obj
 0002:00003e70       ??_C@_03CPAABPPA@_pq?$AA@  000000014009ce70     bspfile_abstract.obj
 0002:00003e78       ??_C@_0BA@MANMALBL@_patchSubdivide?$AA@ 000000014009ce78     bspfile_abstract.obj
 0002:00003e88       ??_C@_0P@LNAHOMPH@patchSubdivide?$AA@ 000000014009ce88     bspfile_abstract.obj
 0002:00003e98       ??_C@_03BNDGHNHC@_ps?$AA@  000000014009ce98     bspfile_abstract.obj
 0002:00003ea0       ??_C@_0BG@IHBFAALG@?4?4?2src?2bspfile_ibsp?4c?$AA@ 000000014009cea0     bspfile_ibsp.obj
 0002:00003eb8       ??_C@_0BE@DKNKKIGM@?$CFs?5is?5not?5a?5?$CFs?5file?$AA@ 000000014009ceb8     bspfile_ibsp.obj
 0002:00003ed0       ??_C@_0BJ@BCLADKK@?$CFs?5is?5version?5?$CFd?0?5not?5?$CFd?$AA@ 000000014009ced0     bspfile_ibsp.obj
 0002:00003eec       ??_C@_05POKHBNHI@1?45?43?$AA@ 000000014009ceec     bspfile_ibsp.obj
 0002:00003ef8       ??_C@_0CA@ICOJIFIF@Compiled?5with?5BloodMap?5?$CFs?5on?5?$CFs?$AA@ 000000014009cef8     bspfile_ibsp.obj
 0002:00003f18       ??_C@_0BK@FCIDGDEO@Wrote?5?$CF?41f?5MB?5?$CI?$CFd?5bytes?$CJ?6?$AA@ 000000014009cf18     bspfile_ibsp.obj
 0002:00003f38       ??_C@_0BG@OCMMMIIC@?4?4?2src?2bspfile_rbsp?4c?$AA@ 000000014009cf38     bspfile_rbsp.obj
 0002:00003f50       ??_C@_0BO@JBLPMIFF@Storing?5lightgrid?3?5?$CFd?5points?6?$AA@ 000000014009cf50     bspfile_rbsp.obj
 0002:00003f70       ??_C@_0BO@CJAJEMFI@WARNING?3?5Invalid?5DDS?5texture?6?$AA@ 000000014009cf70     image.obj
 0002:00003f90       ??_C@_0FF@CDIADLHP@WARNING?3?5Only?5DDS?5texture?5format@ 000000014009cf90     image.obj
 0002:00003fe8       ??_C@_0P@DOPNHJKO@?4?4?2src?2image?4c?$AA@ 000000014009cfe8     image.obj
 0002:00003ff8       ??_C@_0BL@BPHHEEEC@WARNING?3?5Invalid?5PNG?5file?6?$AA@ 000000014009cff8     image.obj
 0002:00004014       ??_C@_05EGBLHKBN@1?44?43?$AA@ 000000014009d014     image.obj
 0002:00004020       ??_C@_0CL@EADMMNH@WARNING?3?5Unable?5to?5create?5PNG?5re@ 000000014009d020     image.obj
 0002:00004050       ??_C@_0CL@PHIEJPNE@WARNING?3?5Unable?5to?5create?5PNG?5in@ 000000014009d050     image.obj
 0002:00004080       ??_C@_0CP@JHCANENN@WARNING?3?5Unable?5to?5create?5PNG?5en@ 000000014009d080     image.obj
 0002:000040b0       ??_C@_0CO@EAHAEGMK@WARNING?3?5An?5error?5occurred?5readi@ 000000014009d0b0     image.obj
 0002:000040e0       ??_C@_0BF@FDCBAKNN@WritePNG?3?5error?3?5?$CFs?6?$AA@ 000000014009d0e0     image.obj
 0002:000040f8       ??_C@_0BH@DDDDKIBH@WritePNG?3?5warning?3?5?$CFs?6?$AA@ 000000014009d0f8     image.obj
 0002:00004110       ??_C@_0CK@NGPCKMIJ@WritePNG?3?5png_create_write_struc@ 000000014009d110     image.obj
 0002:00004140       ??_C@_0CJ@MGDNIBLH@WritePNG?3?5png_create_info_struct@ 000000014009d140     image.obj
 0002:00004170       ??_C@_0BJ@HCFLAAJB@WritePNG?3?5setjmp?5failed?6?$AA@ 000000014009d170     image.obj
 0002:0000418c       ??_C@_02GMLFBBN@wb?$AA@    000000014009d18c     image.obj
 0002:00004190       ??_C@_0BO@HGANDPEC@WritePNG?3?5failed?5to?5write?5?$CFs?6?$AA@ 000000014009d190     image.obj
 0002:000041b0       ??_C@_0BC@HAHOCHDE@sRGB_IEC61966?92?41?$AA@ 000000014009d1b0     image.obj
 0002:000041c8       ??_C@_08KPIGECMN@?$CKdefault?$AA@ 000000014009d1c8     image.obj
 0002:000041e0       ??_C@_0FA@NGICIKHK@MAX_IMAGES?5?$CI?$CFd?$CJ?5exceeded?0?5there?5@ 000000014009d1e0     image.obj
 0002:00004230       ??_C@_04JCAPCJAP@?4tga?$AA@ 000000014009d230     image.obj
 0002:00004238       ??_C@_04EEOGCCFB@?4png?$AA@ 000000014009d238     image.obj
 0002:00004240       ??_C@_04GNPKBLNA@?4jpg?$AA@ 000000014009d240     image.obj
 0002:00004248       ??_C@_0BK@MGHPJHFN@WARNING?3?5LoadJPGBuff?3?5?$CFs?6?$AA@ 000000014009d248     image.obj
 0002:00004264       ??_C@_04LIKELABK@?4dds?$AA@ 000000014009d264     image.obj
 0002:00004270       ??_C@_08GLJEFHCJ@pf?5?$DN?5?$CFd?6?$AA@ 000000014009d270     image.obj
 0002:00004280       ??_C@_0P@NMEOONGG@_converted?4tga?$AA@ 000000014009d280     image.obj
 0002:00004290       ??_C@_0DG@FIIMAOLK@C?3?2games?2quake3?2baseq3?2textures?2@ 000000014009d290     image.obj
 0002:000042c8       ??_C@_0CA@FNHMDGMD@IBSP?5LUMP_LIGHTMAPS?5?$CI512?5x?5512?$CJ?$AA@ 000000014009d2c8     main.obj
 0002:000042e8       ??_C@_0CA@BKALDBKN@IBSP?5LUMP_LIGHTMAPS?5?$CI256?5x?5256?$CJ?$AA@ 000000014009d2e8     main.obj
 0002:00004308       ??_C@_0BE@GNJNCLAL@IBSP?5LUMP_LIGHTMAPS?$AA@ 000000014009d308     main.obj
 0002:00004320       ??_C@_0BG@KEKJPEBL@IBSP?5LUMP_DRAWINDEXES?$AA@ 000000014009d320     main.obj
 0002:00004338       ??_C@_0BE@DPDLOIJE@IBSP?5LUMP_DRAWVERTS?$AA@ 000000014009d338     main.obj
 0002:00004350       ??_C@_0BE@BALEJJLL@IBSP?5LUMP_DRAWSURFS?$AA@ 000000014009d350     main.obj
 0002:00004368       ??_C@_0BA@MKEEBBNC@IBSP?5LUMP_LEAFS?$AA@ 000000014009d368     main.obj
 0002:00004378       ??_C@_0BA@PIKEOGBD@IBSP?5LUMP_NODES?$AA@ 000000014009d378     main.obj
 0002:00004388       ??_C@_0BB@DDECBFHP@IBSP?5LUMP_MODELS?$AA@ 000000014009d388     main.obj
 0002:000043a0       ??_C@_0BF@FDPMAEEE@RBSP?5LUMP_BRUSHSIDES?$AA@ 000000014009d3a0     main.obj
 0002:000043b8       ??_C@_0BF@EGPEJNDN@IBSP?5LUMP_BRUSHSIDES?$AA@ 000000014009d3b8     main.obj
 0002:000043d0       ??_C@_0BC@DONFDEAE@IBSP?5LUMP_BRUSHES?$AA@ 000000014009d3d0     main.obj
 0002:000043e8       ??_C@_0BB@KDOPKJCB@IBSP?5LUMP_PLANES?$AA@ 000000014009d3e8     main.obj
 0002:00004400       ??_C@_09DEDNEMGE@?4prophecy?$AA@ 000000014009d400     main.obj
 0002:00004410       ??_C@_08GACKADNP@prophecy?$AA@ 000000014009d410     main.obj
 0002:0000441c       ??_C@_04DDNPNPBG@?4dq?5?$AA@ 000000014009d41c     main.obj
 0002:00004424       ??_C@_06HGGCBHNH@basedq?$AA@ 000000014009d424     main.obj
 0002:0000442c       ??_C@_02HJEEANKG@dq?$AA@   000000014009d42c     main.obj
 0002:00004430       ??_C@_0N@BNCADJJC@?4darkplaces?5?$AA@ 000000014009d430     main.obj
 0002:00004440       ??_C@_03BBBGPMCE@id1?$AA@  000000014009d440     main.obj
 0002:00004448       ??_C@_0L@ENBFKJLN@darkplaces?$AA@ 000000014009d448     main.obj
 0002:00004458       ??_C@_08LNDKNGBB@rq3_sand?$AA@ 000000014009d458     main.obj
 0002:00004468       ??_C@_0O@PINMKIL@rq3_hardsteps?$AA@ 000000014009d468     main.obj
 0002:00004478       ??_C@_09KDPBKDMI@rq3_snow2?$AA@ 000000014009d478     main.obj
 0002:00004488       ??_C@_0L@NCLEIGKB@rq3_marble?$AA@ 000000014009d488     main.obj
 0002:00004498       ??_C@_0L@DGCAHAHO@rq3_cement?$AA@ 000000014009d498     main.obj
 0002:000044a8       ??_C@_0L@ECAGMMB@rq3_leaves?$AA@ 000000014009d4a8     main.obj
 0002:000044b8       ??_C@_0O@FDMKOAHB@rq3_hardmetal?$AA@ 000000014009d4b8     main.obj
 0002:000044c8       ??_C@_09BLGANFEH@rq3_wood2?$AA@ 000000014009d4c8     main.obj
 0002:000044d8       ??_C@_07JMPNGLDL@rq3_mud?$AA@ 000000014009d4d8     main.obj
 0002:000044e0       ??_C@_08IFHEONOC@rq3_snow?$AA@ 000000014009d4e0     main.obj
 0002:000044f0       ??_C@_09JABCDIGN@rq3_grass?$AA@ 000000014009d4f0     main.obj
 0002:00004500       ??_C@_09EPMCBBIO@rq3_glass?$AA@ 000000014009d500     main.obj
 0002:00004510       ??_C@_0L@CBCKFFGK@rq3_metal2?$AA@ 000000014009d510     main.obj
 0002:00004520       ??_C@_0L@CEJDHKHH@rq3_carpet?$AA@ 000000014009d520     main.obj
 0002:00004530       ??_C@_08KJKHGNNF@rq3_wood?$AA@ 000000014009d530     main.obj
 0002:00004540       ??_C@_0L@NFKOAEIG@rq3_gravel?$AA@ 000000014009d540     main.obj
 0002:00004550       ??_C@_09NIGGGNNC@?4Reaction?$AA@ 000000014009d550     main.obj
 0002:00004560       ??_C@_09ONBINHKP@Boomstick?$AA@ 000000014009d560     main.obj
 0002:00004570       ??_C@_08OIAKAMK@reaction?$AA@ 000000014009d570     main.obj
 0002:0000457c       ??_C@_04LDCPIAA@FBSP?$AA@  000000014009d57c     main.obj
 0002:00004588       ??_C@_07JAHLMJH@qfusion?$AA@ 000000014009d588     main.obj
 0002:00004590       ??_C@_0L@OHLIOBFP@forcesight?$AA@ 000000014009d590     main.obj
 0002:0000459c       ??_C@_06OBELJJBF@inside?$AA@ 000000014009d59c     main.obj
 0002:000045a4       ??_C@_03KHPAOMPO@?4ja?$AA@ 000000014009d5a4     main.obj
 0002:000045a8       ??_C@_02DJBIDCPN@ja?$AA@   000000014009d5a8     main.obj
 0002:000045b0       ??_C@_0P@FJFJLJBH@gfx?1misc?1flare?$AA@ 000000014009d5b0     main.obj
 0002:000045c0       ??_C@_08MOLGCPD@GameData?$AA@ 000000014009d5c0     main.obj
 0002:000045cc       ??_C@_04LKEFPOFA@?4jk2?$AA@ 000000014009d5cc     main.obj
 0002:000045d4       ??_C@_03CDNCEHDE@jk2?$AA@  000000014009d5d4     main.obj
 0002:000045d8       ??_C@_0O@MGMHCHNB@?$CKmat_computer?$AA@ 000000014009d5d8     main.obj
 0002:000045e8       ??_C@_0L@LFLJFCLE@?$CKmat_armor?$AA@ 000000014009d5e8     main.obj
 0002:000045f8       ??_C@_0BC@ENMNDHPF@?$CKmat_shatterglass?$AA@ 000000014009d5f8     main.obj
 0002:00004610       ??_C@_0M@GGJEOBEG@?$CKmat_carpet?$AA@ 000000014009d610     main.obj
 0002:00004620       ??_C@_0L@FNKCLEPN@?$CKmat_tiles?$AA@ 000000014009d620     main.obj
 0002:00004630       ??_C@_0M@PDNAJJKB@?$CKmat_rubber?$AA@ 000000014009d630     main.obj
 0002:00004640       ??_C@_0M@KOKHPKAC@?$CKmat_canvas?$AA@ 000000014009d640     main.obj
 0002:00004650       ??_C@_0M@PCNMOMBK@?$CKmat_fabric?$AA@ 000000014009d650     main.obj
 0002:00004660       ??_C@_0BB@JGJAIBPG@?$CKmat_greenleaves?$AA@ 000000014009d660     main.obj
 0002:00004678       ??_C@_0P@OCMPCPIJ@?$CKmat_dryleaves?$AA@ 000000014009d678     main.obj
 0002:00004688       ??_C@_0N@OKOOKFOM@?$CKmat_bpglass?$AA@ 000000014009d688     main.obj
 0002:00004698       ??_C@_0L@BHMJMDMP@?$CKmat_flesh?$AA@ 000000014009d698     main.obj
 0002:000046a8       ??_C@_0M@JALDBNJA@?$CKmat_marble?$AA@ 000000014009d6a8     main.obj
 0002:000046b8       ??_C@_0O@DAIPOMEC@?$CKmat_concrete?$AA@ 000000014009d6b8     main.obj
 0002:000046c8       ??_C@_0P@GHADFKCO@?$CKmat_longgrass?$AA@ 000000014009d6c8     main.obj
 0002:000046d8       ??_C@_0BA@PMCMEDOF@?$CKmat_shortgrass?$AA@ 000000014009d6d8     main.obj
 0002:000046e8       ??_C@_0BB@BCKIIBE@?$CKmat_hollowmetal?$AA@ 000000014009d6e8     main.obj
 0002:00004700       ??_C@_0BA@KHBGGDDD@?$CKmat_solidmetal?$AA@ 000000014009d700     main.obj
 0002:00004710       ??_C@_0BA@JNBEOIKB@?$CKmat_hollowwood?$AA@ 000000014009d710     main.obj
 0002:00004720       ??_C@_0P@BNKIKIAE@?$CKmat_solidwood?$AA@ 000000014009d720     main.obj
 0002:00004730       ??_C@_0L@FKJPFEEF@nomiscents?$AA@ 000000014009d730     main.obj
 0002:00004740       ??_C@_07BCPNPMFC@outside?$AA@ 000000014009d740     main.obj
 0002:00004748       ??_C@_06DGKKIAKL@abseil?$AA@ 000000014009d748     main.obj
 0002:00004750       ??_C@_07JBFDOFDL@terrain?$AA@ 000000014009d750     main.obj
 0002:00004758       ??_C@_09NOFNMCCG@nonopaque?$AA@ 000000014009d758     main.obj
 0002:00004764       ??_C@_04JOFCMJEC@RBSP?$AA@ 000000014009d764     main.obj
 0002:00004770       ??_C@_0BE@PFBODKAM@gfx?1misc?1lens_flare?$AA@ 000000014009d770     main.obj
 0002:00004788       ??_C@_07PANOCICP@shaders?$AA@ 000000014009d788     main.obj
 0002:00004790       ??_C@_07MDEDDOHD@soldier?$AA@ 000000014009d790     main.obj
 0002:00004798       ??_C@_05PIGKELD@?4sof2?$AA@ 000000014009d798     main.obj
 0002:000047a0       ??_C@_04EFMAJGEL@sof2?$AA@ 000000014009d7a0     main.obj
 0002:000047a8       ??_C@_0L@FDGBAAHB@forcefield?$AA@ 000000014009d7a8     main.obj
 0002:000047b8       ??_C@_08PJMABAOL@shotclip?$AA@ 000000014009d7b8     main.obj
 0002:000047c4       ??_C@_05EHJKLNBO@elite?$AA@ 000000014009d7c4     main.obj
 0002:000047cc       ??_C@_03ODONDNAE@?4ef?$AA@ 000000014009d7cc     main.obj
 0002:000047d0       ??_C@_06HCCDPJHG@baseef?$AA@ 000000014009d7d0     main.obj
 0002:000047d8       ??_C@_02HNAFODAH@ef?$AA@   000000014009d7d8     main.obj
 0002:000047e0       ??_C@_0M@PGGHNOJ@?$CKmat_stucco?$AA@ 000000014009d7e0     main.obj
 0002:000047f0       ??_C@_0L@GHPAMDKD@?$CKmat_water?$AA@ 000000014009d7f0     main.obj
 0002:00004800       ??_C@_0L@PKMBEMKH@?$CKmat_glass?$AA@ 000000014009d800     main.obj
 0002:00004810       ??_C@_0L@HCPHNGPO@?$CKmat_plank?$AA@ 000000014009d810     main.obj
 0002:00004820       ??_C@_0O@BPEGMALD@?$CKmat_softwood?$AA@ 000000014009d820     main.obj
 0002:00004830       ??_C@_0O@LEBOLEGL@?$CKmat_hardwood?$AA@ 000000014009d830     main.obj
 0002:00004840       ??_C@_0P@IIMKMIOJ@?$CKmat_cardboard?$AA@ 000000014009d840     main.obj
 0002:00004850       ??_C@_0N@HMFDBFBE@?$CKmat_plastic?$AA@ 000000014009d850     main.obj
 0002:00004860       ??_C@_0N@CGJAMPGA@?$CKmat_plaster?$AA@ 000000014009d860     main.obj
 0002:00004870       ??_C@_08PLEGDJFG@?$CKmat_rug?$AA@ 000000014009d870     main.obj
 0002:00004880       ??_C@_0O@EIFACDLD@?$CKmat_linoleum?$AA@ 000000014009d880     main.obj
 0002:00004890       ??_C@_0BB@DDBILKGG@?$CKmat_ceramictile?$AA@ 000000014009d890     main.obj
 0002:000048a8       ??_C@_0N@KJIMMKMN@?$CKmat_ceramic?$AA@ 000000014009d8a8     main.obj
 0002:000048b8       ??_C@_09GOKIMOKM@?$CKmat_sand?$AA@ 000000014009d8b8     main.obj
 0002:000048c8       ??_C@_08FGMDFEII@?$CKmat_ice?$AA@ 000000014009d8c8     main.obj
 0002:000048d8       ??_C@_09FGOGPFFP@?$CKmat_snow?$AA@ 000000014009d8d8     main.obj
 0002:000048e8       ??_C@_08NIBBCNFM@?$CKmat_mud?$AA@ 000000014009d8e8     main.obj
 0002:000048f8       ??_C@_09CGCCOFJE@?$CKmat_dirt?$AA@ 000000014009d8f8     main.obj
 0002:00004908       ??_C@_0L@CFBBGFEE@?$CKmat_grass?$AA@ 000000014009d908     main.obj
 0002:00004918       ??_C@_09IBCKKNC@?$CKmat_clay?$AA@ 000000014009d918     main.obj
 0002:00004928       ??_C@_0L@COFFOHDB@?$CKmat_brick?$AA@ 000000014009d928     main.obj
 0002:00004938       ??_C@_0O@JCPILEJF@?$CKmat_pavement?$AA@ 000000014009d938     main.obj
 0002:00004948       ??_C@_0M@JHKJJPLH@?$CKmat_gravel?$AA@ 000000014009d948     main.obj
 0002:00004958       ??_C@_09DMFHBPLD@?$CKmat_rock?$AA@ 000000014009d958     main.obj
 0002:00004968       ??_C@_0M@HECHOLEP@?$CKmat_cement?$AA@ 000000014009d968     main.obj
 0002:00004978       ??_C@_0M@HAAEHENA@?$CKmat_copper?$AA@ 000000014009d978     main.obj
 0002:00004988       ??_C@_0L@HFNMPEPH@?$CKmat_brass?$AA@ 000000014009d988     main.obj
 0002:00004998       ??_C@_0L@GIIFJGGC@?$CKmat_steel?$AA@ 000000014009d998     main.obj
 0002:000049a8       ??_C@_0O@JGPKINPC@?$CKmat_titanium?$AA@ 000000014009d9a8     main.obj
 0002:000049b8       ??_C@_09PNHJDLED@?$CKmat_iron?$AA@ 000000014009d9b8     main.obj
 0002:000049c8       ??_C@_0O@MGAPKLMO@?$CKmat_aluminum?$AA@ 000000014009d9c8     main.obj
 0002:000049d8       ??_C@_08BKNDIHNH@?$CKmat_tin?$AA@ 000000014009d9d8     main.obj
 0002:000049e8       ??_C@_09PBMNLON@?$CKmat_none?$AA@ 000000014009d9e8     main.obj
 0002:000049f4       ??_C@_04JFDLNBFN@etut?$AA@ 000000014009d9f4     main.obj
 0002:000049fc       ??_C@_06JAPKNKHK@splash?$AA@ 000000014009d9fc     main.obj
 0002:00004a08       ??_C@_08IKEDDBIN@landmine?$AA@ 000000014009da08     main.obj
 0002:00004a18       ??_C@_07GFMBFJII@?4etwolf?$AA@ 000000014009da18     main.obj
 0002:00004a20       ??_C@_06HFOOJJAI@etmain?$AA@ 000000014009da20     main.obj
 0002:00004a28       ??_C@_02FPBJDNE@et?$AA@    000000014009da28     main.obj
 0002:00004a30       ??_C@_0BB@FPFPDCJM@monsterslickwest?$AA@ 000000014009da30     main.obj
 0002:00004a48       ??_C@_0BC@KAIIGEJJ@monsterslicksouth?$AA@ 000000014009da48     main.obj
 0002:00004a60       ??_C@_0BB@MKBNGBCJ@monsterslickeast?$AA@ 000000014009da60     main.obj
 0002:00004a78       ??_C@_0BC@ICBHENGF@monsterslicknorth?$AA@ 000000014009da78     main.obj
 0002:00004a90       ??_C@_0N@OJDPBEDK@monsterslick?$AA@ 000000014009da90     main.obj
 0002:00004aa0       ??_C@_0P@NAJJNKOA@ai_nopasslarge?$AA@ 000000014009daa0     main.obj
 0002:00004ab0       ??_C@_09FEFACIPA@ai_nopass?$AA@ 000000014009dab0     main.obj
 0002:00004ac0       ??_C@_0L@IPFGKLPA@ai_nosight?$AA@ 000000014009dac0     main.obj
 0002:00004ad0       ??_C@_09FBEBDLKF@roofsteps?$AA@ 000000014009dad0     main.obj
 0002:00004ae0       ??_C@_09GIFBNDKC@snowsteps?$AA@ 000000014009dae0     main.obj
 0002:00004af0       ??_C@_0M@BFHAHODD@carpetsteps?$AA@ 000000014009daf0     main.obj
 0002:00004afc       ??_C@_06GJBBMLPC@rubble?$AA@ 000000014009dafc     main.obj
 0002:00004b08       ??_C@_0M@MKNAHGEO@gravelsteps?$AA@ 000000014009db08     main.obj
 0002:00004b18       ??_C@_0L@HGJDCNBL@grasssteps?$AA@ 000000014009db18     main.obj
 0002:00004b28       ??_C@_09CAPHOBMI@woodsteps?$AA@ 000000014009db28     main.obj
 0002:00004b38       ??_C@_07DPBFPBKO@ceramic?$AA@ 000000014009db38     main.obj
 0002:00004b40       ??_C@_05NGDBJHKI@glass?$AA@ 000000014009db40     main.obj
 0002:00004b48       ??_C@_05MPIFAIJC@metal?$AA@ 000000014009db48     main.obj
 0002:00004b50       ??_C@_0BA@LKOGGOIA@nonotenterlarge?$AA@ 000000014009db50     main.obj
 0002:00004b60       ??_C@_08KGGIJCCP@clipshot?$AA@ 000000014009db60     main.obj
 0002:00004b70       ??_C@_0M@CFBECDPL@clipmissile?$AA@ 000000014009db70     main.obj
 0002:00004b7c       ??_C@_04JFPGIGDB@slag?$AA@ 000000014009db7c     main.obj
 0002:00004b84       ??_C@_05CJEGBPPF@?4wolf?$AA@ 000000014009db84     main.obj
 0002:00004b8c       ??_C@_04GHJNJNPO@main?$AA@ 000000014009db8c     main.obj
 0002:00004b94       ??_C@_04GDAACNAN@wolf?$AA@ 000000014009db94     main.obj
 0002:00004ba0       ??_C@_09IIEOEDHC@?4tenebrae?$AA@ 000000014009dba0     main.obj
 0002:00004bb0       ??_C@_08NMFJAMMJ@tenebrae?$AA@ 000000014009dbb0     main.obj
 0002:00004bc0       ??_C@_0P@HDDFKCGO@nobuildsurface?$AA@ 000000014009dbc0     main.obj
 0002:00004bd0       ??_C@_0BE@CMNACEBK@nohumanbuildsurface?$AA@ 000000014009dbd0     main.obj
 0002:00004be8       ??_C@_0BE@PMHJAILD@noalienbuildsurface?$AA@ 000000014009dbe8     main.obj
 0002:00004c00       ??_C@_07FADOELJD@nobuild?$AA@ 000000014009dc00     main.obj
 0002:00004c08       ??_C@_0N@LMLHLBKF@nohumanbuild?$AA@ 000000014009dc08     main.obj
 0002:00004c18       ??_C@_0N@MFOHHKPE@noalienbuild?$AA@ 000000014009dc18     main.obj
 0002:00004c28       ??_C@_0L@CBEPMGGM@?4tremulous?$AA@ 000000014009dc28     main.obj
 0002:00004c34       ??_C@_04BHIIPFEC@base?$AA@ 000000014009dc34     main.obj
 0002:00004c40       ??_C@_09HNKILLCH@tremulous?$AA@ 000000014009dc40     main.obj
 0002:00004c50       ??_C@_08JFJJHFPP@?4xonotic?$AA@ 000000014009dc50     main.obj
 0002:00004c60       ??_C@_07FMIBOHAJ@xonotic?$AA@ 000000014009dc60     main.obj
 0002:00004c68       ??_C@_0BD@EAGFPKKP@?4?4?1gfx?1?$CFs_mini?4tga?$AA@ 000000014009dc68     main.obj
 0002:00004c80       ??_C@_07PCAEGDNA@?4nexuiz?$AA@ 000000014009dc80     main.obj
 0002:00004c88       ??_C@_04PJOLNDGD@data?$AA@ 000000014009dc88     main.obj
 0002:00004c90       ??_C@_06OGLGBDKD@nexuiz?$AA@ 000000014009dc90     main.obj
 0002:00004c98       ??_C@_09CABJHAKD@quakelive?$AA@ 000000014009dc98     main.obj
 0002:00004ca4       ??_C@_04BEGKODDK@dust?$AA@ 000000014009dca4     main.obj
 0002:00004cb0       ??_C@_08LLBHFIEL@nodlight?$AA@ 000000014009dcb0     main.obj
 0002:00004cc0       ??_C@_07PPLNNCCH@nosteps?$AA@ 000000014009dcc0     main.obj
 0002:00004cc8       ??_C@_05DLDJBIMA@flesh?$AA@ 000000014009dcc8     main.obj
 0002:00004cd0       ??_C@_0L@BIBBDCEB@metalsteps?$AA@ 000000014009dcd0     main.obj
 0002:00004ce0       ??_C@_08IPOHNGKE@nodamage?$AA@ 000000014009dce0     main.obj
 0002:00004cec       ??_C@_06GGMOHJIJ@ladder?$AA@ 000000014009dcec     main.obj
 0002:00004cf8       ??_C@_07LDNMIKIJ@nomarks?$AA@ 000000014009dcf8     main.obj
 0002:00004d00       ??_C@_08FFFCKPOA@noimpact?$AA@ 000000014009dd00     main.obj
 0002:00004d0c       ??_C@_05BFPPMEOD@slick?$AA@ 000000014009dd0c     main.obj
 0002:00004d14       ??_C@_03BNEOMJOP@sky?$AA@  000000014009dd14     main.obj
 0002:00004d18       ??_C@_03KJMBPJEB@fog?$AA@  000000014009dd18     main.obj
 0002:00004d20       ??_C@_07CCAFDIPE@botclip?$AA@ 000000014009dd20     main.obj
 0002:00004d28       ??_C@_0L@BIKHJKPM@donotenter?$AA@ 000000014009dd28     main.obj
 0002:00004d38       ??_C@_0O@GEGDJGOB@clusterportal?$AA@ 000000014009dd38     main.obj
 0002:00004d48       ??_C@_06IBIIOGMH@nodrop?$AA@ 000000014009dd48     main.obj
 0002:00004d50       ??_C@_0M@IHNOGBMG@monsterclip?$AA@ 000000014009dd50     main.obj
 0002:00004d60       ??_C@_0L@BLJOELF@playerclip?$AA@ 000000014009dd60     main.obj
 0002:00004d6c       ??_C@_04MKBPEMMM@lava?$AA@ 000000014009dd6c     main.obj
 0002:00004d74       ??_C@_05IBOCMEGH@slime?$AA@ 000000014009dd74     main.obj
 0002:00004d7c       ??_C@_05ELAABIKM@water?$AA@ 000000014009dd7c     main.obj
 0002:00004d88       ??_C@_07DIDNFGDE@trigger?$AA@ 000000014009dd88     main.obj
 0002:00004d90       ??_C@_08POKGLNIM@nonsolid?$AA@ 000000014009dd90     main.obj
 0002:00004da0       ??_C@_0L@CHECABJO@pointlight?$AA@ 000000014009dda0     main.obj
 0002:00004db0       ??_C@_0L@MKEHCLJM@nolightmap?$AA@ 000000014009ddb0     main.obj
 0002:00004dc0       ??_C@_0M@FCGGILAO@lightfilter?$AA@ 000000014009ddc0     main.obj
 0002:00004dd0       ??_C@_0M@GKGEABAN@alphashadow?$AA@ 000000014009ddd0     main.obj
 0002:00004ddc       ??_C@_06MEFHFNAK@nodraw?$AA@ 000000014009dddc     main.obj
 0002:00004de4       ??_C@_04NPKLNGDP@hint?$AA@ 000000014009dde4     main.obj
 0002:00004df0       ??_C@_0L@GMELLABP@structural?$AA@ 000000014009ddf0     main.obj
 0002:00004dfc       ??_C@_06EENFNEPD@detail?$AA@ 000000014009ddfc     main.obj
 0002:00004e04       ??_C@_05JIFNPOFN@trans?$AA@ 000000014009de04     main.obj
 0002:00004e10       ??_C@_0L@PPDFKPM@areaportal?$AA@ 000000014009de10     main.obj
 0002:00004e1c       ??_C@_06NHCMNMEH@origin?$AA@ 000000014009de1c     main.obj
 0002:00004e24       ??_C@_06JEJEKGIK@region?$AA@ 000000014009de24     main.obj
 0002:00004e2c       ??_C@_04DLBGLKG@skip?$AA@  000000014009de2c     main.obj
 0002:00004e38       ??_C@_0L@FKDPHGBN@antiportal?$AA@ 000000014009de38     main.obj
 0002:00004e48       ??_C@_09HJBJDNDJ@lightgrid?$AA@ 000000014009de48     main.obj
 0002:00004e58       ??_C@_07DLHCIBDH@default?$AA@ 000000014009de58     main.obj
 0002:00004e60       ??_C@_04IJGCGPNB@IBSP?$AA@ 000000014009de60     main.obj
 0002:00004e68       ??_C@_06NJHCGIDI@?$CFs?4tga?$AA@ 000000014009de68     main.obj
 0002:00004e70       ??_C@_0M@BLNELFNC@flareshader?$AA@ 000000014009de70     main.obj
 0002:00004e80       ??_C@_07OMEBBDEO@scripts?$AA@ 000000014009de80     main.obj
 0002:00004e88       ??_C@_05GAODMEMC@quake?$AA@ 000000014009de88     main.obj
 0002:00004e90       ??_C@_04MOGEFPFB@?4q3a?$AA@ 000000014009de90     main.obj
 0002:00004e98       ??_C@_06KOMAFLML@baseq3?$AA@ 000000014009de98     main.obj
 0002:00004ea0       ??_C@_06IBGBCFGI@quake3?$AA@ 000000014009dea0     main.obj
 0002:00004ea8       ??_C@_0P@KGKPCPGC@SURFACE_SHADER?$AA@ 000000014009dea8     main.obj
 0002:00004eb8       ??_C@_0O@NFOHCMG@SURFACE_DECAL?$AA@ 000000014009deb8     main.obj
 0002:00004ec8       ??_C@_0BA@FLCCHJGK@SURFACE_FOGHULL?$AA@ 000000014009dec8     main.obj
 0002:00004ed8       ??_C@_0N@FIALCCLF@SURFACE_META?$AA@ 000000014009ded8     main.obj
 0002:00004ee8       ??_C@_0BE@FDAKJNDD@SURFACE_FORCED_META?$AA@ 000000014009dee8     main.obj
 0002:00004f00       ??_C@_0BA@OGJDEHJ@SURFACE_FOLIAGE?$AA@ 000000014009df00     main.obj
 0002:00004f10       ??_C@_0O@CICNNPFH@SURFACE_FLARE?$AA@ 000000014009df10     main.obj
 0002:00004f20       ??_C@_0BC@LBALDAHA@SURFACE_TRIANGLES?$AA@ 000000014009df20     main.obj
 0002:00004f38       ??_C@_0O@MKLPOKMH@SURFACE_PATCH?$AA@ 000000014009df38     main.obj
 0002:00004f48       ??_C@_0N@NNLMPEAC@SURFACE_FACE?$AA@ 000000014009df48     main.obj
 0002:00004f58       ??_C@_0M@HHBNHPOA@SURFACE_BAD?$AA@ 000000014009df58     main.obj
 0002:00004f64       ??_C@_04IJLBICMD@?4aas?$AA@ 000000014009df64     main.obj
 0002:00004f70       ??_C@_07LOOEBBLM@_b0?4aas?$AA@ 000000014009df70     main.obj
 0002:00004f78       ??_C@_07HFLIMCBJ@_b1?4aas?$AA@ 000000014009df78     main.obj
 0002:00004f80       ??_C@_0CF@HEAMJDCJ@Usage?3?5q3map?5?9fixaas?5?$FL?9v?$FN?5?$DMmapna@ 000000014009df80     main.obj
 0002:00004fa8       ??_C@_04KPILAJPA@?4bsp?$AA@ 000000014009dfa8     main.obj
 0002:00004fb0       ??_C@_0BA@DJHPHPOP@?9?9?9?5FixAAS?5?9?9?9?6?$AA@ 000000014009dfb0     main.obj
 0002:00004fc0       ??_C@_0BF@FBMKDKM@?9?9?9?5LoadBSPFile?5?9?9?9?6?$AA@ 000000014009dfc0     main.obj
 0002:00004fd8       ??_C@_0M@KOFNDIEA@loading?5?$CFs?6?$AA@ 000000014009dfd8     main.obj
 0002:00004fe8       ??_C@_0BG@ILMFNBLD@Creating?5checksum?4?4?4?6?$AA@ 000000014009dfe8     main.obj
 0002:00005000       ??_C@_0L@JAKDNNP@Trying?5?$CFs?6?$AA@ 000000014009e000     main.obj
 0002:0000500c       ??_C@_03HMFOOINA@r?$CLb?$AA@ 000000014009e00c     main.obj
 0002:00005010       ??_C@_0BN@JAHBLPCC@Error?5writing?5checksum?5to?5?$CFs?$AA@ 000000014009e010     main.obj
 0002:00005030       ??_C@_0DC@KIENAPMC@Usage?3?5q3map?5?9analyze?5?$FL?9lumpswap@ 000000014009e030     main.obj
 0002:00005068       ??_C@_09DHMCAIJC@?9lumpswap?$AA@ 000000014009e068     main.obj
 0002:00005078       ??_C@_0BP@NECHCEAC@?5Swapped?5lump?5structs?5enabled?6?$AA@ 000000014009e078     main.obj
 0002:00005098       ??_C@_0BE@EOAEHGMH@Unable?5to?5load?5?$CFs?4?6?$AA@ 000000014009e098     main.obj
 0002:000050b0       ??_C@_0BD@GFCJHINA@Identity?3?5?5?5?5?5?5?$CFs?6?$AA@ 000000014009e0b0     main.obj
 0002:000050c8       ??_C@_0BD@NODDNALH@Version?3?5?5?5?5?5?5?5?$CFd?6?$AA@ 000000014009e0c8     main.obj
 0002:000050e0       ??_C@_0CJ@NAGLDNBO@?9?9?9?9?9?9?9?9?9?9?9?9?9?9?9?9?9?9?9?9?9?9?9?9?9?9?9?9?9?9?9?9@ 000000014009e0e0     main.obj
 0002:00005110       ??_C@_0BD@EPFBOHEB@Lump?3?5?5?5?5?5?5?5?5?5?5?$CFd?6?$AA@ 000000014009e110     main.obj
 0002:00005128       ??_C@_0BJ@PJOPMHOA@Offset?3?5?5?5?5?5?5?5?5?$CFd?5bytes?6?$AA@ 000000014009e128     main.obj
 0002:00005148       ??_C@_0BJ@IGDNEFEA@Length?3?5?5?5?5?5?5?5?5?$CFd?5bytes?6?$AA@ 000000014009e148     main.obj
 0002:00005168       ??_C@_0BF@KDGMGPMG@As?5hex?3?5?5?5?5?5?5?5?5?$CF08X?6?$AA@ 000000014009e168     main.obj
 0002:00005180       ??_C@_0BD@LGLIDIHG@As?5int?3?5?5?5?5?5?5?5?5?$CFd?6?$AA@ 000000014009e180     main.obj
 0002:00005198       ??_C@_0BD@CHLNEINM@As?5float?3?5?5?5?5?5?5?$CFf?6?$AA@ 000000014009e198     main.obj
 0002:000051b0       ??_C@_0BD@MEAHICMC@As?5string?3?5?5?5?5?5?$CFs?6?$AA@ 000000014009e1b0     main.obj
 0002:000051c8       ??_C@_0CD@EJFBFPHH@Type?5guess?3?5?5?5?5IBSP?5LUMP_ENTITIE@ 000000014009e1c8     main.obj
 0002:000051f0       ??_C@_09CBPMOBF@textures?1?$AA@ 000000014009e1f0     main.obj
 0002:00005200       ??_C@_0CC@OBEKBGEA@Type?5guess?3?5?5?5?5IBSP?5LUMP_SHADERS@ 000000014009e200     main.obj
 0002:00005228       ??_C@_0BN@BAMEOJPK@Type?5guess?3?5?5?5?5?$CFs?5?$CI?$CFd?5x?5?$CFd?$CJ?6?$AA@ 000000014009e228     main.obj
 0002:00005248       ??_C@_0BD@GCOOGCIE@Lump?5count?3?5?5?5?5?$CFd?6?$AA@ 000000014009e248     main.obj
 0002:00005260       ??_C@_0BJ@PNBOJGGP@File?5size?3?5?5?5?5?5?$CFd?5bytes?6?$AA@ 000000014009e260     main.obj
 0002:00005280       ??_C@_0BM@BJOJAOJL@No?5files?5to?5dump?5info?5for?4?6?$AA@ 000000014009e280     main.obj
 0002:000052a0       ??_C@_0CD@NEAPBDPM@?9?9?9?9?9?9?9?9?9?9?9?9?9?9?9?9?9?9?9?9?9?9?9?9?9?9?9?9?9?9?9?9@ 000000014009e2a0     main.obj
 0002:000052c4       ??_C@_03HBNNNHNM@map?$AA@  000000014009e2c4     main.obj
 0002:000052c8       ??_C@_02JDPG@rb?$AA@       000000014009e2c8     main.obj
 0002:000052cc       ??_C@_03OFAPEBGM@?$CFs?6?$AA@ 000000014009e2cc     main.obj
 0002:000052d0       ??_C@_0BN@EEHNMFOC@?5?5?5?5?5?5?5?5?5?5total?5?5?5?5?5?5?5?5?5?$CF9d?6?$AA@ 000000014009e2d0     main.obj
 0002:000052f0       ??_C@_0CA@FMGLMOJE@?5?5?5?5?5?5?5?5?5?5?5?5?5?5?5?5?5?5?5?5?5?5?5?5?$CF9d?5KB?6?$AA@ 000000014009e2f0     main.obj
 0002:00005310       ??_C@_0CA@HJAAJBEI@?5?5?5?5?5?5?5?5?5?5?5?5?5?5?5?5?5?5?5?5?5?5?5?5?$CF9d?5MB?6?$AA@ 000000014009e310     main.obj
 0002:00005330       ??_C@_0CM@MGAEIBKK@Usage?3?5q3map?5?9scale?5?$DMvalue?$DO?5?$FL?9v?$FN@ 000000014009e330     main.obj
 0002:00005360       ??_C@_0CA@ELPFAHB@Non?9zero?5scale?5value?5required?4?6?$AA@ 000000014009e360     main.obj
 0002:00005380       ??_C@_0BC@EMHPAAL@?9?9?9?5ScaleBSP?5?9?9?9?6?$AA@ 000000014009e380     main.obj
 0002:00005398       ??_C@_0O@HLMNMPON@?$CF9d?5entities?6?$AA@ 000000014009e398     main.obj
 0002:000053a8       ??_C@_03MHHCOBAB@lip?$AA@  000000014009e3a8     main.obj
 0002:000053ac       ??_C@_02NJPGOMH@?$CFf?$AA@ 000000014009e3ac     main.obj
 0002:000053b0       ??_C@_08PLHKIFFJ@gridsize?$AA@ 000000014009e3b0     main.obj
 0002:000053c0       ??_C@_0BG@EIKEGAJA@?9?9?9?5WriteBSPFile?5?9?9?9?6?$AA@ 000000014009e3c0     main.obj
 0002:000053d8       ??_C@_06KMOOMHKC@_s?4bsp?$AA@ 000000014009e3d8     main.obj
 0002:000053e0       ??_C@_0M@BBJDCBAD@Writing?5?$CFs?6?$AA@ 000000014009e3e0     main.obj
 0002:000053f0       ??_C@_0BE@MGOLGLNK@?9?9?9?5ConvertBSP?5?9?9?9?6?$AA@ 000000014009e3f0     main.obj
 0002:00005408       ??_C@_0BF@GBLLHJCG@?9?9?9?5CommandLine?5?9?9?9?6?$AA@ 000000014009e408     main.obj
 0002:00005420       ??_C@_0O@NJOJBEFC@?9entitysaveid?$AA@ 000000014009e420     main.obj
 0002:00005430       ??_C@_0CM@INEDNECM@Entity?5unique?5savegame?5identifie@ 000000014009e430     main.obj
 0002:00005460       ??_C@_0BD@EMBAIPIF@?9collapsebytexture?$AA@ 000000014009e460     main.obj
 0002:00005478       ??_C@_0BL@BGPHPCCE@Collapsing?5by?5shader?5name?6?$AA@ 000000014009e478     main.obj
 0002:00005498       ??_C@_07KBHCBCNF@?9format?$AA@ 000000014009e498     main.obj
 0002:000054a0       ??_C@_03BDBMPJGO@ase?$AA@  000000014009e4a0     main.obj
 0002:000054a8       ??_C@_0DE@EOLOCIIA@Unknown?5conversion?5format?5?$CC?$CFs?$CC?4?5@ 000000014009e4a8     main.obj
 0002:000054dc       ??_C@_06KPDIMFDJ@_c?4bsp?$AA@ 000000014009e4dc     main.obj
 0002:000054e8       ??_C@_0N@JKMIOKFA@?9buildconfig?$AA@ 000000014009e4e8     main.obj
 0002:000054f8       ??_C@_0P@OONNAOEL@?9custinfoparms?$AA@ 000000014009e4f8     main.obj
 0002:00005508       ??_C@_08FABEHMEN@?9connect?$AA@ 000000014009e508     main.obj
 0002:00005514       ??_C@_02EJEOCNCO@?9v?$AA@  000000014009e514     main.obj
 0002:00005518       ??_C@_06JKBLPGIK@?9force?$AA@ 000000014009e518     main.obj
 0002:00005520       ??_C@_0O@IHOCAECB@?9subdivisions?$AA@ 000000014009e520     main.obj
 0002:00005530       ??_C@_08CFGFJOBF@?9threads?$AA@ 000000014009e530     main.obj
 0002:00005540       ??_C@_07DDJDGOOH@?9memlog?$AA@ 000000014009e540     main.obj
 0002:00005548       ??_C@_05DMOPOBBM@?9fake?$AA@ 000000014009e548     main.obj
 0002:00005550       ??_C@_0FB@MFGACMBB@?$HO?$HO?$HO?$HO?$HO?$HO?$HO?$HO?$HO?$HO?$HO?$HO?$HO?$HO?$HO?$HO?$HO?$HO?$HO?$HO?$HO?$HO?$HO?$HO?$HO?$HO?$HO?$HO?$HO?$HO?$HO?$HO@ 000000014009e550     main.obj
 0002:000055a8       ??_C@_0DC@FDIDHMEA@?5Q3Map?5?5?5?5?5?5?5?5?5?9?5v1?40r?5?$CIc?$CJ?51999?5@ 000000014009e5a8     main.obj
 0002:000055e0       ??_C@_0CA@GDBPAPNG@?5Q3Map?5?$CIydnar?$CJ?5?9?5v2?45?416?5FS20g?6?$AA@ 000000014009e5e0     main.obj
 0002:00005600       ??_C@_0BJ@OONPCNDM@?5GtkRadiant?5?5?5?5?9?5v1?45?40?6?$AA@ 000000014009e600     main.obj
 0002:00005620       ??_C@_0EL@HAOGKBED@?5BloodMap?5?5?5?5?5?5?9?5v1?45?43?5May?517?52@ 000000014009e620     main.obj
 0002:00005670       ??_C@_0BO@GFIOPNBF@Q3Map2?5with?5blood?5transfusion?$AA@ 000000014009e670     main.obj
 0002:00005690       ??_C@_04MDKIEGGJ@?5?$CFs?6?$AA@ 000000014009e690     main.obj
 0002:00005698       ??_C@_0CG@OBAJMJGM@?5Enabled?5usage?5of?5?4build?5config?5@ 000000014009e698     main.obj
 0002:000056c0       ??_C@_0BM@OEDCGPOL@?5Custom?5info?5parms?5enabled?6?$AA@ 000000014009e6c0     main.obj
 0002:000056e0       ??_C@_0CK@KJCDANL@?5Light?5styles?5are?5disabled?5in?5th@ 000000014009e6e0     main.obj
 0002:00005710       ??_C@_0CO@IJJIGLHK@Usage?3?5?$CFs?5?$FLgeneral?5options?$FN?5?$FLopt@ 000000014009e710     main.obj
 0002:00005740       ??_C@_07DIAMMABG@?9fixaas?$AA@ 000000014009e740     main.obj
 0002:00005748       ??_C@_08GFDBMCPJ@?9analyze?$AA@ 000000014009e748     main.obj
 0002:00005754       ??_C@_05BEOLBNEC@?9info?$AA@ 000000014009e754     main.obj
 0002:0000575c       ??_C@_04NMMMGIN@?9vis?$AA@ 000000014009e75c     main.obj
 0002:00005764       ??_C@_06IMILELBA@?9light?$AA@ 000000014009e764     main.obj
 0002:00005770       ??_C@_07DHGEIBMN@?9vlight?$AA@ 000000014009e770     main.obj
 0002:00005780       ??_C@_0EC@EFDHFHMI@VLight?5is?5no?5longer?5supported?0?5d@ 000000014009e780     main.obj
 0002:000057c4       ??_C@_05HNADDAME@?9fast?$AA@ 000000014009e7c4     main.obj
 0002:000057d0       ??_C@_07EAOALMKJ@?9export?$AA@ 000000014009e7d0     main.obj
 0002:000057d8       ??_C@_07NEFLEFPF@?9import?$AA@ 000000014009e7d8     main.obj
 0002:000057e0       ??_C@_06EFAADHOP@?9scale?$AA@ 000000014009e7e0     main.obj
 0002:000057e8       ??_C@_08BNGAGJEJ@?9convert?$AA@ 000000014009e7e8     main.obj
 0002:000057f8       ??_C@_09NIOABDLH@?9optimize?$AA@ 000000014009e7f8     main.obj
 0002:00005804       ??_C@_06GAGBIIPM@?9patch?$AA@ 000000014009e804     main.obj
 0002:00005810       ??_C@_0BH@DELFLHDA@?$CF9?40f?5seconds?5elapsed?6?$AA@ 000000014009e810     main.obj
 0002:00005828       ??_C@_0O@CEPCGEKG@?4?4?2src?2mesh?4c?$AA@ 000000014009e828     mesh.obj
 0002:00005838       ??_C@_0N@BPALGEAJ@WARNING?3?5?$CFs?6?$AA@ 000000014009e838     model.obj
 0002:00005848       ??_C@_0L@MJEBIGKE@ERROR?3?5?$CFs?6?$AA@ 000000014009e848     model.obj
 0002:00005860       ??_C@_0FA@OKBBEGJM@MAX_MODELS?5?$CI?$CFd?$CJ?5exceeded?0?5there?5@ 000000014009e860     model.obj
 0002:000058b0       ??_C@_0DL@NILBDDMI@LoadModel?3?5failed?5to?5load?5model?5@ 000000014009e8b0     model.obj
 0002:000058f0       ??_C@_0DN@LFDIGKCM@Can?8t?5invert?5model?5transform?5mat@ 000000014009e8f0     model.obj
 0002:00005930       ??_C@_0BE@NNBACDB@Remapping?5?$CFs?5to?5?$CFs?6?$AA@ 000000014009e930     model.obj
 0002:00005948       ??_C@_0BD@LGNJCGNN@Globbing?5?$CFs?5to?5?$CFs?6?$AA@ 000000014009e948     model.obj
 0002:00005960       ??_C@_08MLIALKDB@_RMG_BSP?$AA@ 000000014009e960     model.obj
 0002:0000596c       ??_C@_04GGMCANPD@_BSP?$AA@ 000000014009e96c     model.obj
 0002:00005978       ??_C@_0CB@JNCNCCKC@Failed?5to?5load?5shader?5image?5?8?$CFs?8@ 000000014009e978     model.obj
 0002:000059a0       ??_C@_0DA@CKCKLJFK@Failed?5to?5load?5shader?5image?5?8?$CFs?8@ 000000014009e9a0     model.obj
 0002:000059d0       ??_C@_0P@HKCNOLCE@?4?4?2src?2model?4c?$AA@ 000000014009e9d0     model.obj
 0002:000059e0       ??_C@_0DO@EIMBCPML@MAX_MAP_PLANES?5?$CI?$CFd?$CJ?5hit?5generati@ 000000014009e9e0     model.obj
 0002:00005a20       ??_C@_0BM@LPINEHC@?9?9?9?5LoadTriangleModels?5?9?9?9?6?$AA@ 000000014009ea20     model.obj
 0002:00005a3c       ??_C@_05MNHKBJP@?$CFd?4?4?4?$AA@ 000000014009ea3c     model.obj
 0002:00005a48       ??_C@_0P@HBHINBCE@misc_gamemodel?$AA@ 000000014009ea48     model.obj
 0002:00005a58       ??_C@_06CLBGAIPD@_model?$AA@ 000000014009ea58     model.obj
 0002:00005a60       ??_C@_05NCCFOPHA@model?$AA@ 000000014009ea60     model.obj
 0002:00005a68       ??_C@_06DBKOLBMA@_frame?$AA@ 000000014009ea68     model.obj
 0002:00005a70       ??_C@_05MIJNFGED@frame?$AA@ 000000014009ea70     model.obj
 0002:00005a78       ??_C@_0CD@JFLBOFDH@Failed?5to?5load?5model?5?8?$CFs?8?5frame?5@ 000000014009ea78     model.obj
 0002:00005a9c       ??_C@_06DGMHMLID@?5?$CI?$CFd?$CJ?6?$AA@ 000000014009ea9c     model.obj
 0002:00005aa8       ??_C@_0CF@HAFILHPF@?$CF9i?5unique?5model?1frame?5combinati@ 000000014009eaa8     model.obj
 0002:00005ad0       ??_C@_0BL@BIKDJGGB@?9?9?9?5AddTriangleModels?5?9?9?9?6?$AA@ 000000014009ead0     model.obj
 0002:00005af0       ??_C@_08KMBIPDMF@_vtcproj?$AA@ 000000014009eaf0     model.obj
 0002:00005afc       ??_C@_03DCJGFCAD@_vp?$AA@  000000014009eafc     model.obj
 0002:00005b00       ??_C@_06JJLAMBGK@target?$AA@ 000000014009eb00     model.obj
 0002:00005b08       ??_C@_0CL@KNOMJMC@misc_model?5at?5?$CFi?5?$CFi?5?$CFi?5without?5a@ 000000014009eb08     model.obj
 0002:00005b34       ??_C@_04NHPAFEHJ@skin?$AA@ 000000014009eb34     model.obj
 0002:00005b3c       ??_C@_05FNMILIOF@_skin?$AA@ 000000014009eb3c     model.obj
 0002:00005b48       ??_C@_0L@HLIKNEFC@spawnflags?$AA@ 000000014009eb48     model.obj
 0002:00005b58       ??_C@_0L@HDLPNNAF@modelscale?$AA@ 000000014009eb58     model.obj
 0002:00005b68       ??_C@_0P@OMAFFCFF@modelscale_vec?$AA@ 000000014009eb68     model.obj
 0002:00005b78       ??_C@_07HICMBFEB@uvscale?$AA@ 000000014009eb78     model.obj
 0002:00005b80       ??_C@_04ILBBDOIB@_uvs?$AA@ 000000014009eb80     model.obj
 0002:00005b88       ??_C@_0M@HGFIFCEE@uvautoscale?$AA@ 000000014009eb88     model.obj
 0002:00005b94       ??_C@_05IBIEPPKD@_uvas?$AA@ 000000014009eb94     model.obj
 0002:00005b9c       ??_C@_05FECBCJJD@angle?$AA@ 000000014009eb9c     model.obj
 0002:00005ba4       ??_C@_06GNEAMJOC@angles?$AA@ 000000014009eba4     model.obj
 0002:00005bac       ??_C@_06PFABKBH@_remap?$AA@ 000000014009ebac     model.obj
 0002:00005bb8       ??_C@_0DM@OIMFBIDM@Shader?5_remap?5key?5found?5in?5misc_@ 000000014009ebb8     model.obj
 0002:00005bf8       ??_C@_0L@KOHKMCAK@_celshader?$AA@ 000000014009ebf8     model.obj
 0002:00005c08       ??_C@_0M@HBPNKFIC@textures?1?$CFs?$AA@ 000000014009ec08     model.obj
 0002:00005c18       ??_C@_0M@DGOHJGFC@_noalphafix?$AA@ 000000014009ec18     model.obj
 0002:00005c28       ??_C@_0O@LJJHMKKA@_pushvertexes?$AA@ 000000014009ec28     model.obj
 0002:00005c38       ??_C@_03GAEBIJDH@_pv?$AA@  000000014009ec38     model.obj
 0002:00005c3c       ??_C@_04FFKNLAPH@_pv2?$AA@ 000000014009ec3c     model.obj
 0002:00005c48       ??_C@_0BE@JIPDNNFF@?$CF9d?5surfaces?5added?6?$AA@ 000000014009ec48     model.obj
 0002:00005c60       ??_C@_0BF@INIILAJL@?$CF9d?5triangles?5added?6?$AA@ 000000014009ec60     model.obj
 0002:00005c78       ??_C@_0BE@PMECPEGN@?$CF9d?5vertexes?5added?6?$AA@ 000000014009ec78     model.obj
 0002:00005c90       ??_C@_0BD@DCCFFHJG@?$CF9d?5brushes?5added?6?$AA@ 000000014009ec90     model.obj
 0002:00005ca4       ??_C@_06FICGEKME@noise4?$AA@ 000000014009eca4     optimize.obj
 0002:00005cac       ??_C@_06BHGHNMAD@noise3?$AA@ 000000014009ecac     optimize.obj
 0002:00005cb4       ??_C@_06OHMONEC@noise2?$AA@ 000000014009ecb4     optimize.obj
 0002:00005cbc       ??_C@_05GPLCCBII@noise?$AA@ 000000014009ecbc     optimize.obj
 0002:00005cc8       ??_C@_0BF@GAGODNIK@?9?9?9?5TidyShaders?5?9?9?9?6?$AA@ 000000014009ecc8     optimize.obj
 0002:00005ce0       ??_C@_0BL@POLAONIB@?9?9?9?5CreateMetaShaders?5?9?9?9?6?$AA@ 000000014009ece0     optimize.obj
 0002:00005d00       ??_C@_0BC@BLJGDMKC@?4?4?2src?2optimize?4c?$AA@ 000000014009ed00     optimize.obj
 0002:00005d18       ??_C@_0BB@CMLHFBBD@?$CF9d?5BSP?5shaders?6?$AA@ 000000014009ed18     optimize.obj
 0002:00005d30       ??_C@_0BG@DCJCDMBF@?$CF9d?5remapped?5shaders?6?$AA@ 000000014009ed30     optimize.obj
 0002:00005d48       ??_C@_0BN@JCKHNJGD@?9?9?9?5FindMergableShaders?5?9?9?9?6?$AA@ 000000014009ed48     optimize.obj
 0002:00005d68       ??_C@_0BK@GIGIEPME@?$CF9d?5shaders?5to?5be?5merged?6?$AA@ 000000014009ed68     optimize.obj
 0002:00005d88       ??_C@_0BG@IPMPCPLJ@?9?9?9?5MergeShaders?5?9?9?9?6?$AA@ 000000014009ed88     optimize.obj
 0002:00005da0       ??_C@_0BL@GPBJGINO@?$CF9d?5shaders?5after?5merging?6?$AA@ 000000014009eda0     optimize.obj
 0002:00005dc0       ??_C@_0BM@OGOAGCLP@?9?9?9?5UpdateDrawsurfaces?5?9?9?9?6?$AA@ 000000014009edc0     optimize.obj
 0002:00005de0       ??_C@_0BL@PHOLPBPK@?$CF9d?5drawsurfaces?5remapped?6?$AA@ 000000014009ede0     optimize.obj
 0002:00005e00       ??_C@_0BH@HCOKIDGA@?9?9?9?5UpdateBrushes?5?9?9?9?6?$AA@ 000000014009ee00     optimize.obj
 0002:00005e18       ??_C@_0BG@OFGOPOJA@?$CF9d?5brushes?5remapped?6?$AA@ 000000014009ee18     optimize.obj
 0002:00005e30       ??_C@_0BJ@IPLGEAFO@?$CF9d?5brushsides?5remapped?6?$AA@ 000000014009ee30     optimize.obj
 0002:00005e50       ??_C@_0BG@FJNECNCC@?9?9?9?5TidyEntities?5?9?9?9?6?$AA@ 000000014009ee50     optimize.obj
 0002:00005e68       ??_C@_0BG@GEKPILBJ@?$CF9d?5entity?5data?5size?6?$AA@ 000000014009ee68     optimize.obj
 0002:00005e80       ??_C@_0CN@PCGNLGDF@?$CF9d?5new?5entity?5data?5size?5?$CIreduce@ 000000014009ee80     optimize.obj
 0002:00005eb0       ??_C@_0BL@EADPCEEB@?9?9?9?5MergeDrawSurfaces?5?9?9?9?6?$AA@ 000000014009eeb0     optimize.obj
 0002:00005ed0       ??_C@_0BM@CLEKNFMN@?9?9?9?5CreateMetaSurfaces?5?9?9?9?6?$AA@ 000000014009eed0     optimize.obj
 0002:00005ef0       ??_C@_0BH@DACNKKHE@?$CF9d?5BSP?5draw?5surfaces?6?$AA@ 000000014009eef0     optimize.obj
 0002:00005f08       ??_C@_0BE@IIELBKON@?$CF9d?5BSP?5draw?5verts?6?$AA@ 000000014009ef08     optimize.obj
 0002:00005f20       ??_C@_0BG@EMOIPNGL@?$CF9d?5BSP?5draw?5indexes?6?$AA@ 000000014009ef20     optimize.obj
 0002:00005f38       ??_C@_0BO@GFCCEBKN@?9?9?9?5FindMergableSurfaces?5?9?9?9?6?$AA@ 000000014009ef38     optimize.obj
 0002:00005f58       ??_C@_0BF@DOLEBMGK@?$CF9d?5unique?5surfaces?6?$AA@ 000000014009ef58     optimize.obj
 0002:00005f70       ??_C@_0BC@OPFDMALD@?$CF9d?5unique?5verts?6?$AA@ 000000014009ef70     optimize.obj
 0002:00005f88       ??_C@_0BE@ONGNBGD@?$CF9d?5unique?5indexes?6?$AA@ 000000014009ef88     optimize.obj
 0002:00005fa0       ??_C@_0BL@JOHGAHC@?$CF9d?5surfaces?5to?5be?5merged?6?$AA@ 000000014009efa0     optimize.obj
 0002:00005fc0       ??_C@_0CA@CHFMMFLO@?$CF9d?5skipped?5?$CInomerge?$CJ?5surfaces?6?$AA@ 000000014009efc0     optimize.obj
 0002:00005fe0       ??_C@_0BL@JNDECLNM@?9?9?9?5MergeLeafSurfaces?5?9?9?9?6?$AA@ 000000014009efe0     optimize.obj
 0002:00006000       ??_C@_0BM@ENHKPBEI@?$CF9d?5surfaces?5after?5merging?6?$AA@ 000000014009f000     optimize.obj
 0002:00006020       ??_C@_0BI@ELAJLLA@?9?9?9?5MergeDrawVerts?5?9?9?9?6?$AA@ 000000014009f020     optimize.obj
 0002:00006038       ??_C@_0BJ@FPBLHHBB@?9?9?9?5CreateMetaVerts?5?9?9?9?6?$AA@ 000000014009f038     optimize.obj
 0002:00006058       ??_C@_0BL@PPBPHPMK@?9?9?9?5FindMergableVerts?5?9?9?9?6?$AA@ 000000014009f058     optimize.obj
 0002:00006078       ??_C@_0BI@NJAFDNBF@?$CF9d?5verts?5to?5be?5merged?6?$AA@ 000000014009f078     optimize.obj
 0002:00006090       ??_C@_0CA@PECLJNLN@Drawvert?5?$CFi?5out?5of?5range?50?5?9?5?$CFi?$AA@ 000000014009f090     optimize.obj
 0002:000060b0       ??_C@_0BM@OBFFCBPM@Degraded?5new?5index?5?$CFi?5?$CFi?5?$CFi?$AA@ 000000014009f0b0     optimize.obj
 0002:000060d0       ??_C@_0BH@BOFHNDOB@?$CF9d?5verts?5after?5merge?6?$AA@ 000000014009f0d0     optimize.obj
 0002:000060e8       ??_C@_0BJ@LJNEGGDH@?$CF9d?5indexes?5after?5merge?6?$AA@ 000000014009f0e8     optimize.obj
 0002:00006108       ??_C@_0BH@PIGENNIL@?$CF9d?5triangles?5removed?6?$AA@ 000000014009f108     optimize.obj
 0002:00006120       ??_C@_0DO@GAKOHGIF@?$CD?5Wavefront?5Objectfile?5containin@ 000000014009f120     optimize.obj
 0002:00006160       ??_C@_0BF@CHONJKHI@?$CD?5Resource?5listing?3?6?$AA@ 000000014009f160     optimize.obj
 0002:00006178       ??_C@_0L@BIFLFHPF@worldspawn?$AA@ 000000014009f178     optimize.obj
 0002:00006184       ??_C@_05CHCBKMLL@info_?$AA@ 000000014009f184     optimize.obj
 0002:0000618c       ??_C@_06PBLIODKG@sound?1?$AA@ 000000014009f18c     optimize.obj
 0002:00006194       ??_C@_01NBENCBCI@?$CK?$AA@ 000000014009f194     optimize.obj
 0002:00006198       ??_C@_09EFFEFADA@?$CD?5m?5?$CC?$CFs?$CC?6?$AA@ 000000014009f198     optimize.obj
 0002:000061a8       ??_C@_09CMGFHDCJ@?$CD?5s?5?$CC?$CFs?$CC?6?$AA@ 000000014009f1a8     optimize.obj
 0002:000061b8       ??_C@_09FANOECAC@?$CD?5c?5?$CC?$CFs?$CC?6?$AA@ 000000014009f1b8     optimize.obj
 0002:000061c8       ??_C@_0CL@BALELIBL@?$CD?5Loadable?5geometry?5?$CItexture?5ref@ 000000014009f1c8     optimize.obj
 0002:000061f8       ??_C@_07KDFJKODH@g?5base?6?$AA@ 000000014009f1f8     optimize.obj
 0002:00006200       ??_C@_0BP@JBIDMPFF@v?5?90?4000000?50?4000000?57?4000000?6?$AA@ 000000014009f200     optimize.obj
 0002:00006220       ??_C@_0CA@CCDCLDEI@v?5?97?4000000?50?4000000?5?94?4000000?6?$AA@ 000000014009f220     optimize.obj
 0002:00006240       ??_C@_0BP@HLFDODOI@v?57?4000000?50?4000000?5?94?4000000?6?$AA@ 000000014009f240     optimize.obj
 0002:00006260       ??_C@_09PLGPIKMH@vn?50?50?51?6?$AA@ 000000014009f260     optimize.obj
 0002:00006270       ??_C@_0BI@DFHNFCPA@vt?5?90?4000000?5?90?4218750?6?$AA@ 000000014009f270     optimize.obj
 0002:00006288       ??_C@_0BH@ODINKKPE@vt?5?90?4218750?50?4125000?6?$AA@ 000000014009f288     optimize.obj
 0002:000062a0       ??_C@_0BG@OHGOEKEF@vt?50?4218750?50?4125000?6?$AA@ 000000014009f2a0     optimize.obj
 0002:000062b8       ??_C@_0L@MGANIKCK@usemtl?5?$CFs?6?$AA@ 000000014009f2b8     optimize.obj
 0002:000062c8       ??_C@_0P@INIJOOE@f?53?13?52?12?51?11?6?$AA@ 000000014009f2c8     optimize.obj
 0002:000062d8       ??_C@_0CC@MANCPHBE@Usage?3?5q3map?5?9optimize?5?$DMmapname?$DO@ 000000014009f2d8     optimize.obj
 0002:00006300       ??_C@_0BF@PCAPAIGM@?9?9?9?5OptimizeBSP?5?9?9?9?6?$AA@ 000000014009f300     optimize.obj
 0002:00006318       ??_C@_0M@MFOMMCGD@?9mergeblock?$AA@ 000000014009f318     optimize.obj
 0002:00006328       ??_C@_0CG@BANDGJLC@?5Merge?5block?5set?5to?5?$HL?$CF?41f?5?$CF?41f?5?$CF@ 000000014009f328     optimize.obj
 0002:00006350       ??_C@_0N@KBGFEFHI@?9onlyshaders?$AA@ 000000014009f350     optimize.obj
 0002:00006360       ??_C@_0CG@BIKHFKNK@?5Only?5optimizing?5material?5refere@ 000000014009f360     optimize.obj
 0002:00006388       ??_C@_0N@OGADFJPN@?9tidyshaders?$AA@ 000000014009f388     optimize.obj
 0002:00006398       ??_C@_0CO@EBDFPKHO@?5Enabled?5optimisation?5of?5materia@ 000000014009f398     optimize.obj
 0002:000063c8       ??_C@_0P@NAPIKOED@?9notidyshaders?$AA@ 000000014009f3c8     optimize.obj
 0002:000063d8       ??_C@_0CP@FLLMIDGN@?5Disabled?5optimisation?5of?5materi@ 000000014009f3d8     optimize.obj
 0002:00006408       ??_C@_0P@LNEHBNBO@?9mergesurfaces?$AA@ 000000014009f408     optimize.obj
 0002:00006418       ??_C@_0CP@HGOKDEFP@?5Enabled?5merging?5of?5same?9shader?5@ 000000014009f418     optimize.obj
 0002:00006448       ??_C@_0BB@OENIMPGM@?9nomergesurfaces?$AA@ 000000014009f448     optimize.obj
 0002:00006460       ??_C@_0DA@PCEOPMPI@?5Disabled?5merging?5of?5same?9shader@ 000000014009f460     optimize.obj
 0002:00006490       ??_C@_0M@GJLKECHB@?9mergeverts?$AA@ 000000014009f490     optimize.obj
 0002:000064a0       ??_C@_0CO@HHHHBIME@?5Enabled?5merging?5of?5coincident?5d@ 000000014009f4a0     optimize.obj
 0002:000064d0       ??_C@_0O@JBAHAKNL@?9nomergeverts?$AA@ 000000014009f4d0     optimize.obj
 0002:000064e0       ??_C@_0CP@GNPOGBNH@?5Disabled?5merging?5of?5coincident?5@ 000000014009f4e0     optimize.obj
 0002:00006510       ??_C@_09EKCIJAOL@?9tidyents?$AA@ 000000014009f510     optimize.obj
 0002:00006520       ??_C@_0CL@DJPEHOCD@?5Enabled?5optimisation?5of?5entity?5@ 000000014009f520     optimize.obj
 0002:00006550       ??_C@_0M@MMAEIOEH@?9notidyents?$AA@ 000000014009f550     optimize.obj
 0002:00006560       ??_C@_0CM@MFCCOELB@?5Disabled?5optimisation?5of?5entity@ 000000014009f560     optimize.obj
 0002:00006590       ??_C@_07MKHEGFNK@?9resmap?$AA@ 000000014009f590     optimize.obj
 0002:00006598       ??_C@_0BK@IFFOMLGI@?5Generating?5resource?5map?6?$AA@ 000000014009f598     optimize.obj
 0002:000065b8       ??_C@_0CN@LLHOGDAI@?5Entity?5unique?5savegame?5identifi@ 000000014009f5b8     optimize.obj
 0002:000065e8       ??_C@_0O@NBCCHOJJ@?9externalpath?$AA@ 000000014009f5e8     optimize.obj
 0002:000065f8       ??_C@_0BP@COHIGBAD@?5External?5are?5stored?5under?5?$CFs?6?$AA@ 000000014009f5f8     optimize.obj
 0002:00006618       ??_C@_0BE@KEPMAJEK@Unknown?5option?5?$CC?$CFs?$CC?$AA@ 000000014009f618     optimize.obj
 0002:00006630       ??_C@_0BO@DJILFFIN@?9?9?9?5WriteResourceOBJFile?5?9?9?9?6?$AA@ 000000014009f630     optimize.obj
 0002:00006650       ??_C@_08CAHNNCPD@?4res?4obj?$AA@ 000000014009f650     optimize.obj
 0002:00006660       ??_C@_0BD@DDFGFMMD@Writing?5resmap?5?$CFs?6?$AA@ 000000014009f660     optimize.obj
 0002:00006678       ??_C@_0CA@PJMFIHFG@numEntities?5?$DN?$DN?5MAX_MAP_ENTITIES?$AA@ 000000014009f678     patchbsp.obj
 0002:00006698       ??_C@_0BH@EGCBBIJG@?9?9?9?5PatchEntities?5?9?9?9?6?$AA@ 000000014009f698     patchbsp.obj
 0002:000066b0       ??_C@_08BMKPIIHI@trigger_?$AA@ 000000014009f6b0     patchbsp.obj
 0002:000066c0       ??_C@_0CD@JBDNEHGP@?$CF9d?5?4bsp?5submodel?5entities?5copie@ 000000014009f6c0     patchbsp.obj
 0002:000066e8       ??_C@_0CE@PAAFIHAJ@?$CF9d?5?4bsp?5submodel?5entities?5patch@ 000000014009f6e8     patchbsp.obj
 0002:00006710       ??_C@_0CB@CEKGGAGM@?$CF9d?5?4bsp?5point?5entities?5skipped?6@ 000000014009f710     patchbsp.obj
 0002:00006734       ??_C@_04FIAKMPII@mins?$AA@ 000000014009f734     patchbsp.obj
 0002:0000673c       ??_C@_04IFBFDIKF@maxs?$AA@ 000000014009f73c     patchbsp.obj
 0002:00006748       ??_C@_0CA@BPPJLNN@?$CF9d?5?4map?5point?5entities?5copied?6?$AA@ 000000014009f748     patchbsp.obj
 0002:00006768       ??_C@_0BK@EKOEHAAL@?$CF9d?5?4map?5triggers?5copied?6?$AA@ 000000014009f768     patchbsp.obj
 0002:00006788       ??_C@_0CE@NMDGNANB@?$CF9d?5?4map?5submodel?5entities?5skipp@ 000000014009f788     patchbsp.obj
 0002:000067b0       ??_C@_0CC@PGALLGL@Usage?3?5q3map?5?9entities?5?$DMmapname?$DO@ 000000014009f7b0     patchbsp.obj
 0002:000067d8       ??_C@_0BC@OKEHIFAB@?9?9?9?5PatchBSP?5?9?9?9?6?$AA@ 000000014009f7d8     patchbsp.obj
 0002:000067ec       ??_C@_06OEPGEIMH@?$CFs?4bsp?$AA@ 000000014009f7ec     patchbsp.obj
 0002:000067f4       ??_C@_04OCLKAFDL@?4reg?$AA@ 000000014009f7f4     patchbsp.obj
 0002:000067fc       ??_C@_06KJMHEEAM@?$CFs?4reg?$AA@ 000000014009f7fc     patchbsp.obj
 0002:00006804       ??_C@_04OIEKGOLI@?4map?$AA@ 000000014009f804     patchbsp.obj
 0002:00006810       ??_C@_07HOJDMNBL@?9source?$AA@ 000000014009f810     patchbsp.obj
 0002:00006818       ??_C@_04HKKABCEL@?9out?$AA@ 000000014009f818     patchbsp.obj
 0002:00006820       ??_C@_09BOGNDEDE@?9entityid?$AA@ 000000014009f820     patchbsp.obj
 0002:00006830       ??_C@_0DE@MIKINFPE@?5Using?5entity?5key?5?$CC?$CFs?$CC?5as?5unique@ 000000014009f830     patchbsp.obj
 0002:00006868       ??_C@_09JKLOBHGO@?9triggers?$AA@ 000000014009f868     patchbsp.obj
 0002:00006878       ??_C@_0CO@GOAPLLLK@?5Enable?5patching?5BSP?5by?5map?5trig@ 000000014009f878     patchbsp.obj
 0002:000068a8       ??_C@_0CI@BFFLHLEC@?5Patching?5BSP?5entities?5by?5MAP?5en@ 000000014009f8a8     patchbsp.obj
 0002:000068d0       ??_C@_0BF@FMOCFBNF@?9?9?9?5LoadMapFile?5?9?9?9?6?$AA@ 000000014009f8d0     patchbsp.obj
 0002:000068e8       ??_C@_0BJ@GEPJHBJA@?9?9?9?5CompileEntities?5?9?9?9?6?$AA@ 000000014009f8e8     patchbsp.obj
 0002:00006908       ??_C@_0BC@CNBMOAAJ@?4?4?2src?2patchbsp?4c?$AA@ 000000014009f908     patchbsp.obj
 0002:00006920       ??_C@_0BB@COMHBAKB@?$CF9d?5entDataSize?6?$AA@ 000000014009f920     patchbsp.obj
 0002:00006934       ??_C@_06LDFHEHOK@quake1?$AA@ 000000014009f934     path_init.obj
 0002:0000693c       ??_C@_06JIHKBECJ@quake2?$AA@ 000000014009f93c     path_init.obj
 0002:00006944       ??_C@_06OBIKIAAF@unreal?$AA@ 000000014009f944     path_init.obj
 0002:0000694c       ??_C@_05PDELPFPK@ut2k3?$AA@ 000000014009f94c     path_init.obj
 0002:00006954       ??_C@_04KJCKKMDF@dn3d?$AA@ 000000014009f954     path_init.obj
 0002:0000695c       ??_C@_03BLBBGKLM@dnf?$AA@  000000014009f95c     path_init.obj
 0002:00006960       ??_C@_02IPDCJINO@hl?$AA@   000000014009f960     path_init.obj
 0002:00006968       ??_C@_0BM@GCDEACGB@April?5fools?0?5silly?5rabbit?$CB?6?$AA@ 000000014009f968     path_init.obj
 0002:00006988       ??_C@_0BD@DGDBBJIA@?4?4?2src?2path_init?4c?$AA@ 000000014009f988     path_init.obj
 0002:000069a0       ??_C@_0BD@HHPHGECB@?9?9?9?5InitPaths?5?9?9?9?6?$AA@ 000000014009f9a0     path_init.obj
 0002:000069b4       ??_C@_05FACLEBO@?9game?$AA@ 000000014009f9b4     path_init.obj
 0002:000069c0       ??_C@_0CN@HOLBDHEP@Out?5of?5arguments?3?5No?5game?5specif@ 000000014009f9c0     path_init.obj
 0002:000069f0       ??_C@_0N@IDJALOPL@?9fs_basepath?$AA@ 000000014009f9f0     path_init.obj
 0002:00006a00       ??_C@_0CO@BDCPMBKC@Out?5of?5arguments?3?5No?5path?5specif@ 000000014009fa00     path_init.obj
 0002:00006a30       ??_C@_08KMJJKLKH@?9fs_game?$AA@ 000000014009fa30     path_init.obj
 0002:00006a40       ??_C@_0CE@EDELAEGI@Searching?5for?5?$CC?$CFs?$CC?5in?5?$CC?$CFs?$CC?5?$CI?$CFd?$CJ?4@ 000000014009fa40     path_init.obj
 0002:00006a68       ??_C@_0CC@DJKPBCHN@Failed?5to?5find?5a?5valid?5base?5path@ 000000014009fa68     path_init.obj
 0002:00006a8c       ??_C@_06OCHGEAGI@?$CFs?1?$CFs?1?$AA@ 000000014009fa8c     path_init.obj
 0002:00006a98       ??_C@_0BK@JEMGMOCH@?$CFs?1?4?4?1?$CFs?1q3map2_?$CFs?4shader?$AA@ 000000014009fa98     shaders.obj
 0002:00006ab8       ??_C@_0CH@MDIODBLP@Map?5has?5shader?5script?5?$CFs?0?5removi@ 000000014009fab8     shaders.obj
 0002:00006ae0       ??_C@_0BM@OMBKKDKM@?9?9?9?5WriteMapShaderFile?5?9?9?9?6?$AA@ 000000014009fae0     shaders.obj
 0002:00006b00       ??_C@_0L@HCPPLGMF@Writing?5?$CFs?$AA@ 000000014009fb00     shaders.obj
 0002:00006b0c       ??_C@_01NOFIACDB@w?$AA@    000000014009fb0c     shaders.obj
 0002:00006b10       ??_C@_0CO@HCDCLHIK@Unable?5to?5open?5map?5shader?5file?5?$CF@ 000000014009fb10     shaders.obj
 0002:00006b40       ??_C@_0HK@COAKFNBM@?1?1?5Custom?5shader?5file?5for?5?$CFs?4bsp@ 000000014009fb40     shaders.obj
 0002:00006bbc       ??_C@_05JMJKDBEJ@?$CFs?$CFs?6?$AA@ 000000014009fbbc     shaders.obj
 0002:00006bc4       ??_C@_01LFCBOECM@?4?$AA@   000000014009fbc4     shaders.obj
 0002:00006bc8       ??_C@_0BM@PAOGNHGB@?$CF9d?5custom?5shaders?5emitted?6?$AA@ 000000014009fbc8     shaders.obj
 0002:00006bf0       ??_C@_0KF@LIGLBDKM@?6?$HL?5?1?1?5Q3Map2?5defaulted?5?$CIimplicit@ 000000014009fbf0     shaders.obj
 0002:00006ca0       ??_C@_0BAD@FKKDIMPI@?6?$HL?5?1?1?5Q3Map2?5defaulted?5?$CIimplicit@ 000000014009fca0     shaders.obj
 0002:00006db0       ??_C@_0NA@NHNGOKAK@?6?$HL?5?1?1?5Q3Map2?5defaulted?5?$CIimplicit@ 000000014009fdb0     shaders.obj
 0002:00006e80       ??_C@_0JL@HDLINLPJ@?6?$HL?5?1?1?5Q3Map2?5defaulted?6?7?$HL?6?7?7map?5@ 000000014009fe80     shaders.obj
 0002:00006f20       ??_C@_0EB@OCMILGNH@Custom?5shader?5name?5length?5?$CI?$CFd?$CJ?5e@ 000000014009ff20     shaders.obj
 0002:00006f70       ??_C@_0EE@MDJHMAAC@?$CFs?1?$CF02X?$CF02X?$CF02X?$CF02X?$CF02X?$CF02X?$CF02X?$CF@ 000000014009ff70     shaders.obj
 0002:00006fb8       ??_C@_0BB@IDFHAOCK@?4?4?2src?2shaders?4c?$AA@ 000000014009ffb8     shaders.obj
 0002:00006fd0       ??_C@_0GF@ICKENDIH@MAX_SHADER_INFO?5exceeded?4?5Remove@ 000000014009ffd0     shaders.obj
 0002:00007038       ??_C@_08POLIGIOH@noshader?$AA@ 00000001400a0038     shaders.obj
 0002:00007048       ??_C@_0CM@GNPJPFFH@WARNING?3?5Couldn?8t?5find?5image?5for@ 00000001400a0048     shaders.obj
 0002:00007078       ??_C@_0BJ@ICEOLHLD@Shader?5?$CFs?5has?6?5?5?5?5NM?5?$CFs?6?$AA@ 00000001400a0078     shaders.obj
 0002:00007098       ??_C@_0CE@HBNJHHLF@WARNING?3?5Null?5or?5empty?5shader?5na@ 00000001400a0098     shaders.obj
 0002:000070c0       ??_C@_07NCACNKHJ@missing?$AA@ 00000001400a00c0     shaders.obj
 0002:000070c8       ??_C@_0DL@JPIFGKKE@MAX_SHADER_DEPRECATION_DEPTH?5?$CI?$CFi@ 00000001400a00c8     shaders.obj
 0002:00007104       ??_C@_01GPOEFGEJ@?7?$AA@   00000001400a0104     shaders.obj
 0002:00007108       ??_C@_01CLKCMJKC@?5?$AA@   00000001400a0108     shaders.obj
 0002:0000710c       ??_C@_01ODHLEDKK@?$CI?$AA@ 00000001400a010c     shaders.obj
 0002:00007110       ??_C@_0CN@ECLGCCNL@Parse1DMatrixAppend?$CI?$CJ?3?5line?5?$CFd?3?5@ 00000001400a0110     shaders.obj
 0002:00007140       ??_C@_0DC@MMAMMDH@Parse1DMatrixAppend?$CI?$CJ?3?5line?5?$CFd?3?5@ 00000001400a0140     shaders.obj
 0002:00007174       ??_C@_01PKGAHCOL@?$CJ?$AA@ 00000001400a0174     shaders.obj
 0002:00007178       ??_C@_0CN@JPCAPLFO@Parse1DMatrixAppend?$CI?$CJ?3?5line?5?$CFd?3?5@ 00000001400a0178     shaders.obj
 0002:000071a8       ??_C@_06OHBJDBJA@?3q3map?$AA@ 00000001400a01a8     shaders.obj
 0002:000071b0       ??_C@_0FF@DGLLACIG@ParseShaderFile?$CI?$CJ?3?5?$CFs?0?5line?5?$CFd?3?5@ 00000001400a01b0     shaders.obj
 0002:00007208       ??_C@_0DP@NOOMHOJL@ParseShaderFile?$CI?$CJ?3?5?$CFs?0?5line?5?$CFd?3?5@ 00000001400a0208     shaders.obj
 0002:00007248       ??_C@_08JEHBAANP@clampMap?$AA@ 00000001400a0248     shaders.obj
 0002:00007258       ??_C@_07BMBIACGE@animMap?$AA@ 00000001400a0258     shaders.obj
 0002:00007260       ??_C@_0N@FELJGLCN@clampAnimMap?$AA@ 00000001400a0260     shaders.obj
 0002:00007270       ??_C@_07OEPGDLCF@mapComp?$AA@ 00000001400a0270     shaders.obj
 0002:00007278       ??_C@_09CBJEELNM@mapNoComp?$AA@ 00000001400a0278     shaders.obj
 0002:00007288       ??_C@_0M@IGAGIIGH@surfaceparm?$AA@ 00000001400a0288     shaders.obj
 0002:00007298       ??_C@_0BO@ENBFKPCB@?$CFs?3?5Unknown?5surfaceparm?3?5?$CC?$CFs?$CC?$AA@ 00000001400a0298     shaders.obj
 0002:000072b8       ??_C@_08FLAOJKGO@fogparms?$AA@ 00000001400a02b8     shaders.obj
 0002:000072c8       ??_C@_0O@PJPLHMPB@polygonoffset?$AA@ 00000001400a02c8     shaders.obj
 0002:000072d8       ??_C@_08EPFBNHI@tessSize?$AA@ 00000001400a02d8     shaders.obj
 0002:000072e8       ??_C@_0P@BBCKHPGL@q3map_tessSize?$AA@ 00000001400a02e8     shaders.obj
 0002:000072f8       ??_C@_04DDCLEDDO@cull?$AA@ 00000001400a02f8     shaders.obj
 0002:00007300       ??_C@_04CGFJFPFD@none?$AA@ 00000001400a0300     shaders.obj
 0002:00007308       ??_C@_07DBNODEFN@disable?$AA@ 00000001400a0308     shaders.obj
 0002:00007310       ??_C@_08INIPHAGC@twosided?$AA@ 00000001400a0310     shaders.obj
 0002:00007320       ??_C@_0P@FJMHOEJC@deformVertexes?$AA@ 00000001400a0320     shaders.obj
 0002:00007330       ??_C@_0L@OJCKPKMG@autosprite?$AA@ 00000001400a0330     shaders.obj
 0002:0000733c       ??_C@_04HDMMNHEL@move?$AA@ 00000001400a033c     shaders.obj
 0002:00007344       ??_C@_05OEPGNJB@light?$AA@ 00000001400a0344     shaders.obj
 0002:00007350       ??_C@_0N@DNMDINBK@damageShader?$AA@ 00000001400a0350     shaders.obj
 0002:00007360       ??_C@_0M@LPIIOOGK@implicitMap?$AA@ 00000001400a0360     shaders.obj
 0002:00007370       ??_C@_0N@CJJHAMJN@implicitMask?$AA@ 00000001400a0370     shaders.obj
 0002:00007380       ??_C@_0O@PFHJGKJK@implicitBlend?$AA@ 00000001400a0380     shaders.obj
 0002:00007390       ??_C@_0BA@LAIPCEL@qer_editorImage?$AA@ 00000001400a0390     shaders.obj
 0002:000073a0       ??_C@_0BD@PBEELBGL@q3map_textureImage?$AA@ 00000001400a03a0     shaders.obj
 0002:000073b8       ??_C@_0BC@EJBILALP@q3map_normalImage?$AA@ 00000001400a03b8     shaders.obj
 0002:000073d0       ??_C@_0BB@JNEBKIEN@q3map_lightImage?$AA@ 00000001400a03d0     shaders.obj
 0002:000073e8       ??_C@_08JFOHBAP@skyParms?$AA@ 00000001400a03e8     shaders.obj
 0002:000073f4       ??_C@_01JOAMLHOP@?9?$AA@   00000001400a03f4     shaders.obj
 0002:000073f8       ??_C@_04PLMLMMEO@full?$AA@ 00000001400a03f8     shaders.obj
 0002:00007400       ??_C@_09OOIJJCMH@?$CFs_up?4tga?$AA@ 00000001400a0400     shaders.obj
 0002:00007410       ??_C@_09IMHELNEI@dpreflect?$AA@ 00000001400a0410     shaders.obj
 0002:00007420       ??_C@_07CHCJBIAM@dpwater?$AA@ 00000001400a0420     shaders.obj
 0002:00007428       ??_C@_0L@JHHJONII@dp_reflect?$AA@ 00000001400a0428     shaders.obj
 0002:00007438       ??_C@_08GEIJHFMH@dp_water?$AA@ 00000001400a0438     shaders.obj
 0002:00007444       ??_C@_03OHFMDAD@sun?$AA@   00000001400a0444     shaders.obj
 0002:00007448       ??_C@_09BFMCMBDI@q3map_sun?$AA@ 00000001400a0448     shaders.obj
 0002:00007458       ??_C@_0N@DAIINMLL@q3map_sunExt?$AA@ 00000001400a0458     shaders.obj
 0002:00007468       ??_C@_0N@JALKHDIF@q3map_sunext?$AA@ 00000001400a0468     shaders.obj
 0002:00007478       ??_C@_06CBIIIEEM@q3map_?$AA@ 00000001400a0478     shaders.obj
 0002:00007480       ??_C@_0BB@IEAKFJFJ@q3map_baseShader?$AA@ 00000001400a0480     shaders.obj
 0002:00007498       ??_C@_0BD@DIDPKAD@q3map_surfacemodel?$AA@ 00000001400a0498     shaders.obj
 0002:000074b0       ??_C@_0O@MJHEOHMH@q3map_foliage?$AA@ 00000001400a04b0     shaders.obj
 0002:000074c0       ??_C@_0N@HAMFILBB@q3map_bounce?$AA@ 00000001400a04c0     shaders.obj
 0002:000074d0       ??_C@_0BC@FBNGOIFB@q3map_bounceScale?$AA@ 00000001400a04d0     shaders.obj
 0002:000074e8       ??_C@_0P@HGKIGJLM@q3map_skyLight?$AA@ 00000001400a04e8     shaders.obj
 0002:000074f8       ??_C@_0BD@NPOJHIOC@q3map_surfacelight?$AA@ 00000001400a04f8     shaders.obj
 0002:00007510       ??_C@_0BB@MLAEOMNC@q3map_lightStyle?$AA@ 00000001400a0510     shaders.obj
 0002:00007528       ??_C@_0P@JKAIINK@q3map_lightRGB?$AA@ 00000001400a0528     shaders.obj
 0002:00007538       ??_C@_0BF@FBBAGADA@q3map_lightSubdivide?$AA@ 00000001400a0538     shaders.obj
 0002:00007550       ??_C@_0BB@HKLAKBOK@q3map_backsplash?$AA@ 00000001400a0550     shaders.obj
 0002:00007568       ??_C@_0BB@JHKHAAMA@q3map_floodLight?$AA@ 00000001400a0568     shaders.obj
 0002:00007580       ??_C@_0BJ@OPLDHPP@q3map_lightmapSampleSize?$AA@ 00000001400a0580     shaders.obj
 0002:000075a0       ??_C@_0BL@KPJMNFBA@q3map_lightmapSampleOffset?$AA@ 00000001400a05a0     shaders.obj
 0002:000075c0       ??_C@_0BL@BPAPFLGO@q3map_lightmapFilterRadius?$AA@ 00000001400a05c0     shaders.obj
 0002:000075e0       ??_C@_0BD@EACKNPEJ@q3map_lightmapAxis?$AA@ 00000001400a05e0     shaders.obj
 0002:000075f8       ??_C@_0CO@CAMDHKEJ@?$CFs?3?5Unknown?5value?5for?5q3map_ligh@ 00000001400a05f8     shaders.obj
 0002:00007628       ??_C@_0BD@LAFHIDKP@q3map_lightmapSize?$AA@ 00000001400a0628     shaders.obj
 0002:00007640       ??_C@_0DG@LGAHPGOJ@?$CFs?3?5Non?5power?9of?9two?5lightmap?5si@ 00000001400a0640     shaders.obj
 0002:00007678       ??_C@_0BJ@LKGDMHNL@q3map_lightmapBrightness?$AA@ 00000001400a0678     shaders.obj
 0002:00007698       ??_C@_0BE@FBNFIGMO@q3map_lightmapGamma?$AA@ 00000001400a0698     shaders.obj
 0002:000076b0       ??_C@_0BC@KHDDEBEJ@q3map_vertexScale?$AA@ 00000001400a06b0     shaders.obj
 0002:000076c8       ??_C@_0BI@BJGLOBE@q3map_vertexPointSample?$AA@ 00000001400a06c8     shaders.obj
 0002:000076e0       ??_C@_0O@HAHIKMOG@q3map_aoScale?$AA@ 00000001400a06e0     shaders.obj
 0002:000076f0       ??_C@_0BC@GDAOPEH@q3map_aoGainScale?$AA@ 00000001400a06f0     shaders.obj
 0002:00007708       ??_C@_0BD@FOLHLJKG@q3map_ambientLight?$AA@ 00000001400a0708     shaders.obj
 0002:00007720       ??_C@_0P@PCPGFFGC@q3map_minLight?$AA@ 00000001400a0720     shaders.obj
 0002:00007730       ??_C@_0BF@OPIMPFLO@q3map_minVertexLight?$AA@ 00000001400a0730     shaders.obj
 0002:00007748       ??_C@_0BE@OKOKBBLL@q3map_noVertexLight?$AA@ 00000001400a0748     shaders.obj
 0002:00007760       ??_C@_0M@NCILAOEO@q3map_flare?$AA@ 00000001400a0760     shaders.obj
 0002:00007770       ??_C@_0BC@ILKOFHBC@q3map_flareShader?$AA@ 00000001400a0770     shaders.obj
 0002:00007788       ??_C@_0BB@DNEAAJBK@q3map_backShader?$AA@ 00000001400a0788     shaders.obj
 0002:000077a0       ??_C@_0BC@EHDAKBNE@q3map_cloneShader?$AA@ 00000001400a07a0     shaders.obj
 0002:000077b8       ??_C@_0BC@EENHBOGB@q3map_remapShader?$AA@ 00000001400a07b8     shaders.obj
 0002:000077d0       ??_C@_0BG@HBNHJAN@q3map_deprecateShader?$AA@ 00000001400a07d0     shaders.obj
 0002:000077e8       ??_C@_0BD@KNJILPMB@q3map_engineShader?$AA@ 00000001400a07e8     shaders.obj
 0002:00007800       ??_C@_0N@OEHKIGKL@q3map_offset?$AA@ 00000001400a0800     shaders.obj
 0002:00007810       ??_C@_09JEHCDLMI@q3map_fur?$AA@ 00000001400a0810     shaders.obj
 0002:00007820       ??_C@_0O@JEBMLPGG@q3map_terrain?$AA@ 00000001400a0820     shaders.obj
 0002:00007830       ??_C@_0BA@EIGKGMKI@q3map_forceMeta?$AA@ 00000001400a0830     shaders.obj
 0002:00007840       ??_C@_0N@IMDAOFNC@q3map_noMeta?$AA@ 00000001400a0840     shaders.obj
 0002:00007850       ??_C@_0BB@CIFMEAEB@q3map_shadeAngle?$AA@ 00000001400a0850     shaders.obj
 0002:00007868       ??_C@_0BC@CKPMIKGB@q3map_textureSize?$AA@ 00000001400a0868     shaders.obj
 0002:00007880       ??_C@_0M@GBABKGND@q3map_tcGen?$AA@ 00000001400a0880     shaders.obj
 0002:0000788c       ??_C@_06NBFPPGEG@vector?$AA@ 00000001400a088c     shaders.obj
 0002:00007898       ??_C@_07OGLFENMB@ivector?$AA@ 00000001400a0898     shaders.obj
 0002:000078a0       ??_C@_0CD@OBMCONNB@?$CFs?3?5Unknown?5q3map_tcGen?5method?3?5@ 00000001400a08a0     shaders.obj
 0002:000078c8       ??_C@_0BC@NEDJBACD@q3map_alphaLayers?$AA@ 00000001400a08c8     shaders.obj
 0002:000078e0       ??_C@_0P@OFALIBOD@q3map_colorGen?$AA@ 00000001400a08e0     shaders.obj
 0002:000078f0       ??_C@_0P@HNMOAMNL@q3map_colorMod?$AA@ 00000001400a08f0     shaders.obj
 0002:00007900       ??_C@_0N@BDMLJLON@q3map_rgbGen?$AA@ 00000001400a0900     shaders.obj
 0002:00007910       ??_C@_0N@ILAOBGNF@q3map_rgbMod?$AA@ 00000001400a0910     shaders.obj
 0002:00007920       ??_C@_0P@NPEJIFNG@q3map_alphaGen?$AA@ 00000001400a0920     shaders.obj
 0002:00007930       ??_C@_0P@EHIMAIOO@q3map_alphaMod?$AA@ 00000001400a0930     shaders.obj
 0002:00007940       ??_C@_03KCHOJKKI@set?$AA@  00000001400a0940     shaders.obj
 0002:00007944       ??_C@_05BNCCCJPP@const?$AA@ 00000001400a0944     shaders.obj
 0002:0000794c       ??_C@_05MHMEBBGO@scale?$AA@ 00000001400a094c     shaders.obj
 0002:00007954       ??_C@_06NLFCANPD@random?$AA@ 00000001400a0954     shaders.obj
 0002:00007960       ??_C@_0N@DAGJJMLM@randomjitter?$AA@ 00000001400a0960     shaders.obj
 0002:00007970       ??_C@_0M@HJPDFLGI@randomscale?$AA@ 00000001400a0970     shaders.obj
 0002:00007980       ??_C@_0L@BPDEKBGO@dotProduct?$AA@ 00000001400a0980     shaders.obj
 0002:00007990       ??_C@_0M@EHGFCMIP@dotProduct2?$AA@ 00000001400a0990     shaders.obj
 0002:0000799c       ??_C@_06CIAPFFAP@invert?$AA@ 00000001400a099c     shaders.obj
 0002:000079a4       ??_C@_06EMCPHFGM@volume?$AA@ 00000001400a09a4     shaders.obj
 0002:000079b0       ??_C@_0L@PNIALNHI@wateralpha?$AA@ 00000001400a09b0     shaders.obj
 0002:000079c0       ??_C@_0M@DJOKLIOM@waterspring?$AA@ 00000001400a09c0     shaders.obj
 0002:000079d0       ??_C@_09LOJHBDME@watermove?$AA@ 00000001400a09d0     shaders.obj
 0002:000079e0       ??_C@_09EEKEKFBM@waterwarp?$AA@ 00000001400a09e0     shaders.obj
 0002:000079f0       ??_C@_08GFIHGMBN@lightmap?$AA@ 00000001400a09f0     shaders.obj
 0002:00007a00       ??_C@_0L@DMCOEHFA@vegetation?$AA@ 00000001400a0a00     shaders.obj
 0002:00007a10       ??_C@_0CG@PJADLDMP@?$CFs?3?5Unknown?5q3map_colorMod?5metho@ 00000001400a0a10     shaders.obj
 0002:00007a38       ??_C@_0M@PJMECLOL@q3map_tcMod?$AA@ 00000001400a0a38     shaders.obj
 0002:00007a48       ??_C@_09ODNGOEIO@translate?$AA@ 00000001400a0a48     shaders.obj
 0002:00007a54       ??_C@_05CLOOKOFG@shift?$AA@ 00000001400a0a54     shaders.obj
 0002:00007a5c       ??_C@_06KLHHMIGM@offset?$AA@ 00000001400a0a5c     shaders.obj
 0002:00007a64       ??_C@_06CEHMNFAL@rotate?$AA@ 00000001400a0a64     shaders.obj
 0002:00007a70       ??_C@_0CD@GOKFCMHK@?$CFs?3?5Unknown?5q3map_tcMod?5method?3?5@ 00000001400a0a70     shaders.obj
 0002:00007a98       ??_C@_0N@FJDBCFPK@q3map_fogDir?$AA@ 00000001400a0a98     shaders.obj
 0002:00007aa8       ??_C@_0BE@ILLHABDA@q3map_globaltexture?$AA@ 00000001400a0aa8     shaders.obj
 0002:00007ac0       ??_C@_0BA@KJKCLKKO@q3map_nonplanar?$AA@ 00000001400a0ac0     shaders.obj
 0002:00007ad0       ??_C@_0N@MIOOCIAO@q3map_noclip?$AA@ 00000001400a0ad0     shaders.obj
 0002:00007ae0       ??_C@_0M@FNLKNFDO@q3map_nobsp?$AA@ 00000001400a0ae0     shaders.obj
 0002:00007af0       ??_C@_0P@LBOPKICH@q3map_noSmooth?$AA@ 00000001400a0af0     shaders.obj
 0002:00007b00       ??_C@_0O@FBDNDPJB@q3map_noMerge?$AA@ 00000001400a0b00     shaders.obj
 0002:00007b10       ??_C@_0P@IEAHGLLP@q3map_noStitch?$AA@ 00000001400a0b10     shaders.obj
 0002:00007b20       ??_C@_0N@PHGHFNAG@q3map_stitch?$AA@ 00000001400a0b20     shaders.obj
 0002:00007b30       ??_C@_0O@DEEEFKJF@q3map_notjunc?$AA@ 00000001400a0b30     shaders.obj
 0002:00007b40       ??_C@_0M@MCGHJMOL@q3map_nofog?$AA@ 00000001400a0b40     shaders.obj
 0002:00007b50       ??_C@_0O@KIAOGMIJ@q3map_indexed?$AA@ 00000001400a0b50     shaders.obj
 0002:00007b60       ??_C@_0N@GHACBLMI@q3map_invert?$AA@ 00000001400a0b60     shaders.obj
 0002:00007b70       ??_C@_0BH@OJFAHLIG@q3map_lightmapMergable?$AA@ 00000001400a0b70     shaders.obj
 0002:00007b88       ??_C@_0N@EGHILDAF@q3map_noFast?$AA@ 00000001400a0b88     shaders.obj
 0002:00007b98       ??_C@_0BD@PCJJMKEE@q3map_patchShadows?$AA@ 00000001400a0b98     shaders.obj
 0002:00007bb0       ??_C@_0BE@CIAGIJMG@q3map_vertexShadows?$AA@ 00000001400a0bb0     shaders.obj
 0002:00007bc8       ??_C@_0BK@HDAFANJM@q3map_vertexOcclusionBias?$AA@ 00000001400a0bc8     shaders.obj
 0002:00007be8       ??_C@_0BG@KPHABPDK@q3map_noVertexShadows?$AA@ 00000001400a0be8     shaders.obj
 0002:00007c00       ??_C@_0BB@PFJGHFCJ@q3map_splotchfix?$AA@ 00000001400a0c00     shaders.obj
 0002:00007c18       ??_C@_0BE@HGMKMNFL@q3map_forceSunlight?$AA@ 00000001400a0c18     shaders.obj
 0002:00007c30       ??_C@_0BJ@KBOMCKPG@q3map_onlyVertexLighting?$AA@ 00000001400a0c30     shaders.obj
 0002:00007c50       ??_C@_0P@LIDLKLNP@q3map_material?$AA@ 00000001400a0c50     shaders.obj
 0002:00007c60       ??_C@_07HOAKFIBH@?$CKmat_?$CFs?$AA@ 00000001400a0c60     shaders.obj
 0002:00007c68       ??_C@_0BL@MBKFDHBC@?$CFs?3?5Unknown?5material?5?$CC?$CFs?$CC?6?$AA@ 00000001400a0c68     shaders.obj
 0002:00007c88       ??_C@_0BA@KHINBOGB@q3map_clipmodel?$AA@ 00000001400a0c88     shaders.obj
 0002:00007c98       ??_C@_0BC@DEJGPLNA@q3map_styleMarker?$AA@ 00000001400a0c98     shaders.obj
 0002:00007cb0       ??_C@_0BD@GLJHBAFO@q3map_styleMarker2?$AA@ 00000001400a0cb0     shaders.obj
 0002:00007cc8       ??_C@_0BK@MBMAEOAJ@scripts?1custinfoparms?4txt?$AA@ 00000001400a0cc8     shaders.obj
 0002:00007ce4       ??_C@_02NJNOFBBI@?$CFx?$AA@ 00000001400a0ce4     shaders.obj
 0002:00007cf0       ??_C@_0ED@ENAJHPIM@custinfoparms?4txt?3?5Couldn?8t?5find@ 00000001400a0cf0     shaders.obj
 0002:00007d38       ??_C@_0BJ@GNIBIPBG@?9?9?9?5LoadShaderFiles?5?9?9?9?6?$AA@ 00000001400a0d38     shaders.obj
 0002:00007d58       ??_C@_0BC@LPNFBFJJ@?$CFs?1shaderlist?4txt?$AA@ 00000001400a0d58     shaders.obj
 0002:00007d70       ??_C@_0DJ@LPKGLLPK@MAX_SHADER_FILES?5?$CI?$CFd?$CJ?5reached?0?5t@ 00000001400a0d70     shaders.obj
 0002:00007db0       ??_C@_0N@OOOIEFPJ@?$CFs?1?$CFs?4shader?$AA@ 00000001400a0db0     shaders.obj
 0002:00007dc0       ??_C@_0P@PNECJDOL@?$CF9d?5materials?6?$AA@ 00000001400a0dc0     shaders.obj
 0002:00007dd0       ??_C@_0P@NEMCAMN@?4?4?2src?2brush?4c?$AA@ 00000001400a0dd0     brush.obj
 0002:00007de0       ??_C@_0CF@IHPJDCEP@AllocBrush?5called?5with?5numsides?5@ 00000001400a0de0     brush.obj
 0002:00007e08       ??_C@_0CI@PKEBOEBM@Attempt?5to?5free?5an?5already?5freed@ 00000001400a0e08     brush.obj
 0002:00007e30       ??_C@_0M@JKCPKPL@writing?5?$CFs?6?$AA@ 00000001400a0e30     brush.obj
 0002:00007e40       ??_C@_0BA@EKJFECAL@Can?8t?5write?5?$CFs?$AI?$AA@ 00000001400a0e40     brush.obj
 0002:00007e50       ??_C@_0BM@HFNKBGGH@?$HL?6?$CCclassname?$CC?5?$CCworldspawn?$CC?6?$AA@ 00000001400a0e50     brush.obj
 0002:00007e70       ??_C@_0O@IOEHJOAM@?$CI?5?$CFi?5?$CFi?5?$CFi?5?$CJ?5?$AA@ 00000001400a0e70     brush.obj
 0002:00007e80       ??_C@_0BL@OECLHOPN@notexture?50?50?50?51?51?50?50?50?6?$AA@ 00000001400a0e80     brush.obj
 0002:00007ea0       ??_C@_0BG@GJFBLLDN@?$CFs?5?$CFi?5?$CFi?50?51?51?50?50?50?6?$AA@ 00000001400a0ea0     brush.obj
 0002:00007eb8       ??_C@_0CF@CJJOPCJG@?9?9?9?5FilterDetailBrushesIntoTree?5@ 00000001400a0eb8     brush.obj
 0002:00007ee0       ??_C@_0BE@FCPKPHEA@?$CF9d?5detail?5brushes?6?$AA@ 00000001400a0ee0     brush.obj
 0002:00007ef8       ??_C@_0BI@NACDEBHP@?$CF9d?5cluster?5references?6?$AA@ 00000001400a0ef8     brush.obj
 0002:00007f10       ??_C@_0CJ@CACGCNGG@?9?9?9?5FilterStructuralBrushesIntoT@ 00000001400a0f10     brush.obj
 0002:00007f40       ??_C@_0BI@NOAIHMDC@?$CF9d?5structural?5brushes?6?$AA@ 00000001400a0f40     brush.obj
 0002:00007f58       ??_C@_0N@KPBAEOKI@Huge?5winding?$AA@ 00000001400a0f58     brush.obj
 0002:00007f68       ??_C@_0BI@PNMADFKF@bogus?5brush?5after?5clip?6?$AA@ 00000001400a0f68     brush.obj
 0002:00007f80       ??_C@_0BF@HEKJJEMO@split?5removed?5brush?6?$AA@ 00000001400a0f80     brush.obj
 0002:00007f98       ??_C@_0BJ@MIBLAJDN@split?5not?5on?5both?5sides?6?$AA@ 00000001400a0f98     brush.obj
 0002:00007fb4       ??_C@_06FMCKMAPK@_clone?$AA@ 00000001400a0fb4     bsp.obj
 0002:00007fbc       ??_C@_03COCDEFBB@?$CK?$CFd?$AA@ 00000001400a0fbc     bsp.obj
 0002:00007fc0       ??_C@_04IDOLCEGO@_ins?$AA@ 00000001400a0fc0     bsp.obj
 0002:00007fc8       ??_C@_09BEIHOAN@_instance?$AA@ 00000001400a0fc8     bsp.obj
 0002:00007fd8       ??_C@_0L@IINPCPKP@_clonename?$AA@ 00000001400a0fd8     bsp.obj
 0002:00007fe8       ??_C@_0DB@FFDOKJGJ@Cloned?5entity?5?$CFs?5referenced?5enti@ 00000001400a0fe8     bsp.obj
 0002:00008020       ??_C@_0BH@MAOOHPCJ@?9?9?9?5FixBrushFaces?5?9?9?9?6?$AA@ 00000001400a1020     bsp.obj
 0002:00008038       ??_C@_0BE@EIAKKLGA@?$CF9d?5verts?5stitched?6?$AA@ 00000001400a1038     bsp.obj
 0002:00008050       ??_C@_0BH@OIFMPNOK@?$CF9d?5surfaces?5stitched?6?$AA@ 00000001400a1050     bsp.obj
 0002:00008068       ??_C@_0BG@PFDHJGJG@?9?9?9?5ProcessWorld?5?9?9?9?6?$AA@ 00000001400a1068     bsp.obj
 0002:00008080       ??_C@_0L@HIGNIKAI@_blocksize?$AA@ 00000001400a1080     bsp.obj
 0002:00008090       ??_C@_09BLCGHKHA@blocksize?$AA@ 00000001400a1090     bsp.obj
 0002:000080a0       ??_C@_08LAHKIMAB@chopsize?$AA@ 00000001400a10a0     bsp.obj
 0002:000080b0       ??_C@_08OOHKHLPO@?$CFd?5?$CFd?5?$CFd?$AA@ 00000001400a10b0     bsp.obj
 0002:000080c0       ??_C@_0BP@ICCINFNL@BSP?5block?5size?5?$DN?5?$HL?5?$CFd?5?$CFd?5?$CFd?5?$HN?6?$AA@ 00000001400a10c0     bsp.obj
 0002:000080e0       ??_C@_0N@IEIEKIIM@_ignoreleaks?$AA@ 00000001400a10e0     bsp.obj
 0002:000080f0       ??_C@_0M@NONPMKCF@ignoreleaks?$AA@ 00000001400a10f0     bsp.obj
 0002:00008100       ??_C@_0BA@EKALHGJP@Ignoring?5leaks?6?$AA@ 00000001400a1100     bsp.obj
 0002:00008110       ??_C@_0BC@CFGEJNG@?9?9?9?5BuildBSP?5?9?9?9?6?$AA@ 00000001400a1110     bsp.obj
 0002:00008128       ??_C@_0BE@KALAGHIE@?9?9?9?5RebuildBSP?5?9?9?9?6?$AA@ 00000001400a1128     bsp.obj
 0002:00008140       ??_C@_0BI@CHHEOFGC@?$CK?$CK?$CK?$CK?$CK?$CK?$CK?$CK?$CK?$CK?$CK?$CK?$CK?$CK?$CK?$CK?$CK?$CK?$CK?$CK?$CK?$CK?6?$AA@ 00000001400a1140     bsp.obj
 0002:00008158       ??_C@_0BI@EJLFBDFG@?$CK?$CK?$CK?$CK?$CK?$CK?$CK?5leaked?5?$CK?$CK?$CK?$CK?$CK?$CK?$CK?6?$AA@ 00000001400a1158     bsp.obj
 0002:00008170       ??_C@_07ONPBMBOP@message?$AA@ 00000001400a1170     bsp.obj
 0002:00008178       ??_C@_0M@KEFFBFDO@MAP?5LEAKED?6?$AA@ 00000001400a1178     bsp.obj
 0002:00008184       ??_C@_05KJNJLLGA@level?$AA@ 00000001400a1184     bsp.obj
 0002:00008190       ??_C@_0BP@FCHPMEGL@MAP?5LEAKED?0?5ABORTING?5LEAKTEST?6?$AA@ 00000001400a1190     bsp.obj
 0002:000081b0       ??_C@_0BM@EPJHAEKI@?9?9?9?5CreateMapDrawsurfs?5?9?9?9?6?$AA@ 00000001400a11b0     bsp.obj
 0002:000081d0       ??_C@_08LHLALFOJ@_foghull?$AA@ 00000001400a11d0     bsp.obj
 0002:000081e0       ??_C@_0N@EBIPNHHL@_flareshader?$AA@ 00000001400a11e0     bsp.obj
 0002:000081f0       ??_C@_06PJAEHMGO@_flare?$AA@ 00000001400a11f0     bsp.obj
 0002:000081f8       ??_C@_06HJJKMCAP@_style?$AA@ 00000001400a11f8     bsp.obj
 0002:00008200       ??_C@_05IAKJCFIM@style?$AA@ 00000001400a1200     bsp.obj
 0002:00008208       ??_C@_0P@IMBGCIP@?$CF9d?5drawsurfs?6?$AA@ 00000001400a1208     bsp.obj
 0002:00008218       ??_C@_0BH@MDAOAACA@?9?9?9?5ProcessModels?5?9?9?9?6?$AA@ 00000001400a1218     bsp.obj
 0002:00008230       ??_C@_0P@CLIDFFJE@?$CF9i?5submodels?6?$AA@ 00000001400a1230     bsp.obj
 0002:00008240       ??_C@_0BH@EEEILAFD@?9?9?9?5RegionScissor?5?9?9?9?6?$AA@ 00000001400a1240     bsp.obj
 0002:00008258       ??_C@_06PHHMIKBC@_light?$AA@ 00000001400a1258     bsp.obj
 0002:00008260       ??_C@_0BF@HDKEGLLA@?$CF9d?5brushes?5removed?6?$AA@ 00000001400a1260     bsp.obj
 0002:00008278       ??_C@_0BF@KAGPAPOC@?$CF9d?5patches?5removed?6?$AA@ 00000001400a1278     bsp.obj
 0002:00008290       ??_C@_0BE@NHAKGDHD@?$CF9d?5models?5removed?6?$AA@ 00000001400a1290     bsp.obj
 0002:000082a8       ??_C@_0BE@GKMBPILH@?$CF9d?5lights?5removed?6?$AA@ 00000001400a12a8     bsp.obj
 0002:000082c0       ??_C@_0BG@MDENNMHB@?$CF9d?5entities?5removed?6?$AA@ 00000001400a12c0     bsp.obj
 0002:000082d8       ??_C@_0N@CONFBLKK@?9?9?9?5BSP?5?9?9?9?6?$AA@ 00000001400a12d8     bsp.obj
 0002:000082e8       ??_C@_0N@KPPPIPDC@?4?4?2src?2bsp?4c?$AA@ 00000001400a12e8     bsp.obj
 0002:000082f8       ??_C@_0BG@DPBGLDBM@?9?9?9?5GameSpecific?5?9?9?9?6?$AA@ 00000001400a12f8     bsp.obj
 0002:00008310       ??_C@_0BI@BEBOGLFG@?5max?5surface?5verts?3?5?$CFi?6?$AA@ 00000001400a1310     bsp.obj
 0002:00008328       ??_C@_0CE@PPBCFDIB@?5max?5lightmapped?5surface?5verts?3?5@ 00000001400a1328     bsp.obj
 0002:00008350       ??_C@_0BK@KEPOMEAF@?5max?5surface?5indexes?3?5?$CFi?6?$AA@ 00000001400a1350     bsp.obj
 0002:00008370       ??_C@_07MHHIKOPA@enabled?$AA@ 00000001400a1370     bsp.obj
 0002:00008378       ??_C@_08BEHKFNNO@disabled?$AA@ 00000001400a1378     bsp.obj
 0002:00008388       ??_C@_0BC@GBNNJONK@?5emit?5flares?3?5?$CFs?6?$AA@ 00000001400a1388     bsp.obj
 0002:0000839c       ??_C@_04FBDBODBG@sRGB?$AA@ 00000001400a139c     bsp.obj
 0002:000083a4       ??_C@_06HPJICMPM@linear?$AA@ 00000001400a13a4     bsp.obj
 0002:000083b0       ??_C@_0CE@GIINJHAN@?5entity?5_color?5keys?5colorspace?3?5@ 00000001400a13b0     bsp.obj
 0002:000083d8       ??_C@_0CB@PODAKCLI@?5texture?5default?5colorspace?3?5?$CFs?6@ 00000001400a13d8     bsp.obj
 0002:00008400       ??_C@_09IPMMJNNA@?9tempname?$AA@ 00000001400a1400     bsp.obj
 0002:00008410       ??_C@_07NHBNKOHO@?9tmpout?$AA@ 00000001400a1410     bsp.obj
 0002:00008418       ??_C@_04PBCBKGHJ@?1tmp?$AA@ 00000001400a1418     bsp.obj
 0002:00008420       ??_C@_08NHOKEGNA@?9nowater?$AA@ 00000001400a1420     bsp.obj
 0002:00008430       ??_C@_0BC@CIEGOMGD@?5Disabling?5water?6?$AA@ 00000001400a1430     bsp.obj
 0002:00008448       ??_C@_09BNPKADLK@?9nodetail?$AA@ 00000001400a1448     bsp.obj
 0002:00008458       ??_C@_0BK@GILCDEI@?5Ignoring?5detail?5brushes?6?$AA@ 00000001400a1458     bsp.obj
 0002:00008478       ??_C@_0M@LBOAMCBH@?9fulldetail?$AA@ 00000001400a1478     bsp.obj
 0002:00008488       ??_C@_0DB@MNNIFAAO@?5Turning?5detail?5brushes?5into?5str@ 00000001400a1488     bsp.obj
 0002:000084c0       ??_C@_0BD@DBIJONGB@?9nodetailcollision?$AA@ 00000001400a14c0     bsp.obj
 0002:000084d8       ??_C@_0CJ@PABFKFJM@?5Disabling?5collision?5for?5detail?5@ 00000001400a14d8     bsp.obj
 0002:00008508       ??_C@_0L@MDGCGLHJ@?9nofoliage?$AA@ 00000001400a1508     bsp.obj
 0002:00008518       ??_C@_0BE@DAFBMLGO@?5Disabling?5foliage?6?$AA@ 00000001400a1518     bsp.obj
 0002:00008530       ??_C@_09EKLIEFN@?9nodecals?$AA@ 00000001400a1530     bsp.obj
 0002:00008540       ??_C@_0BD@CILCGLMP@?5Disabling?5decals?6?$AA@ 00000001400a1540     bsp.obj
 0002:00008554       ??_C@_06JCBPCPMJ@?9nofog?$AA@ 00000001400a1554     bsp.obj
 0002:00008560       ??_C@_0BH@FDGAKPOG@?5Fog?5volumes?5disabled?6?$AA@ 00000001400a1560     bsp.obj
 0002:00008578       ??_C@_0N@EPIDHEF@?9nosubdivide?$AA@ 00000001400a1578     bsp.obj
 0002:00008588       ??_C@_0CD@MONEECIN@?5Disabling?5brush?5face?5subdivisio@ 00000001400a1588     bsp.obj
 0002:000085b0       ??_C@_0N@DJMFFIEK@?9noclipmodel?$AA@ 00000001400a15b0     bsp.obj
 0002:000085c0       ??_C@_0CI@FGHPOEFA@?5Disabling?5misc_model?5autoclip?5f@ 00000001400a15c0     bsp.obj
 0002:000085e8       ??_C@_09NGDGFAIL@?9leaktest?$AA@ 00000001400a15e8     bsp.obj
 0002:000085f8       ??_C@_0BD@MFKBKALI@?5Leaktest?5enabled?6?$AA@ 00000001400a15f8     bsp.obj
 0002:00008610       ??_C@_09FNEFFCND@?9nocurves?$AA@ 00000001400a1610     bsp.obj
 0002:00008620       ??_C@_0CF@JFCOBGHG@?5Ignoring?5curved?5surfaces?5?$CIpatch@ 00000001400a1620     bsp.obj
 0002:00008648       ??_C@_08MBJOKOPL@?9notjunc?$AA@ 00000001400a1648     bsp.obj
 0002:00008658       ??_C@_0BO@DOLECDDE@?5Disabling?5T?9junction?5fixing?6?$AA@ 00000001400a1658     bsp.obj
 0002:00008678       ??_C@_07BNNOBBFJ@?9noclip?$AA@ 00000001400a1678     bsp.obj
 0002:00008680       ??_C@_0CG@NCBGHMKI@?5Disabling?5face?5clipping?5by?5BSP?5@ 00000001400a1680     bsp.obj
 0002:000086a8       ??_C@_08MNIKJAFD@?9fakemap?$AA@ 00000001400a16a8     bsp.obj
 0002:000086b8       ??_C@_0BJ@FLIFMKBO@?5Generating?5fakemap?4map?6?$AA@ 00000001400a16b8     bsp.obj
 0002:000086d8       ??_C@_0M@PHLCKHND@?9samplesize?$AA@ 00000001400a16d8     bsp.obj
 0002:000086e8       ??_C@_0CK@LBLJFPNH@?5Lightmap?5sample?5size?5set?5to?5?$CFfx@ 00000001400a16e8     bsp.obj
 0002:00008718       ??_C@_0O@LHEFEBGJ@?9lightmapsize?$AA@ 00000001400a1718     bsp.obj
 0002:00008730       ??_C@_0EN@MNEMCJBH@Given?5lightmap?5size?5?$CI?$CFi?$CJ?5must?5be@ 00000001400a1730     bsp.obj
 0002:00008780       ??_C@_0CO@IEPHOHLI@?5Default?5lightmap?5size?5set?5to?5?$CFd@ 00000001400a1780     bsp.obj
 0002:000087b0       ??_C@_0BI@ENHAIPHE@?9maxsurfacelightmapsize?$AA@ 00000001400a17b0     bsp.obj
 0002:000087c8       ??_C@_0DC@HBHODEFP@?5Max?5surface?5lightmap?5size?5set?5t@ 00000001400a17c8     bsp.obj
 0002:00008800       ??_C@_07CGHNJGCB@?9rename?$AA@ 00000001400a1800     bsp.obj
 0002:00008808       ??_C@_0DF@IJGOOOOD@?5Appending?5_bsp?5suffix?5to?5misc_m@ 00000001400a1808     bsp.obj
 0002:00008840       ??_C@_03NGCACOMI@?9ne?$AA@ 00000001400a1840     bsp.obj
 0002:00008848       ??_C@_0BL@JMCLLOKN@?5Normal?5epsilon?5set?5to?5?$CFf?6?$AA@ 00000001400a1848     bsp.obj
 0002:00008864       ??_C@_03NLLHKLBO@?9de?$AA@ 00000001400a1864     bsp.obj
 0002:00008868       ??_C@_0BN@HNOLIGP@?5Distance?5epsilon?5set?5to?5?$CFf?6?$AA@ 00000001400a1868     bsp.obj
 0002:00008888       ??_C@_03LFIJNBAD@?9mv?$AA@ 00000001400a1888     bsp.obj
 0002:00008890       ??_C@_0DF@ECMEAHKD@?5Maximum?5lightmapped?5surface?5ver@ 00000001400a1890     bsp.obj
 0002:000088c8       ??_C@_0CJ@INMMPAGP@?5Maximum?5surface?5vertex?5count?5se@ 00000001400a18c8     bsp.obj
 0002:000088f4       ??_C@_03HINDNPJN@?9mi?$AA@ 00000001400a18f4     bsp.obj
 0002:000088f8       ??_C@_0CM@HCPBENOA@?5Maximum?5per?9surface?5index?5count@ 00000001400a18f8     bsp.obj
 0002:00008924       ??_C@_03OBJFMINM@?9np?$AA@ 00000001400a1924     bsp.obj
 0002:00008930       ??_C@_0EB@KMCICDKP@?5Forcing?5nonplanar?5surfaces?5with@ 00000001400a1930     bsp.obj
 0002:00008974       ??_C@_05PGKOIKHK@?9snap?$AA@ 00000001400a1974     bsp.obj
 0002:00008980       ??_C@_0CK@EJKIDHDJ@?5Snapping?5brush?5bevel?5planes?5to?5@ 00000001400a1980     bsp.obj
 0002:000089b0       ??_C@_09CAEGINOD@?9texrange?$AA@ 00000001400a19b0     bsp.obj
 0002:000089c0       ??_C@_0DC@BOBMGFBC@?5Limiting?5per?9surface?5texture?5ra@ 00000001400a19c0     bsp.obj
 0002:000089f8       ??_C@_07DMPDADPL@?9nohint?$AA@ 00000001400a19f8     bsp.obj
 0002:00008a00       ??_C@_0BI@ECBADNCK@?5Hint?5brushes?5disabled?6?$AA@ 00000001400a1a00     bsp.obj
 0002:00008a18       ??_C@_05JAMLJPAH@?9flat?$AA@ 00000001400a1a18     bsp.obj
 0002:00008a20       ??_C@_0BG@GMBFHPJD@?5Flatshading?5enabled?6?$AA@ 00000001400a1a20     bsp.obj
 0002:00008a38       ??_C@_05LHELGGBD@?9meta?$AA@ 00000001400a1a38     bsp.obj
 0002:00008a40       ??_C@_0CK@OOOPKMGO@?5Creating?5meta?5surfaces?5from?5bru@ 00000001400a1a40     bsp.obj
 0002:00008a70       ??_C@_0L@FAIGPGDO@?9patchmeta?$AA@ 00000001400a1a70     bsp.obj
 0002:00008a80       ??_C@_0CG@HDHFHIMP@?5Creating?5meta?5surfaces?5from?5pat@ 00000001400a1a80     bsp.obj
 0002:00008aa8       ??_C@_07EAJEPEPL@?9flares?$AA@ 00000001400a1aa8     bsp.obj
 0002:00008ab0       ??_C@_0BJ@GDNNAJBM@?5Flare?5surfaces?5enabled?6?$AA@ 00000001400a1ab0     bsp.obj
 0002:00008ad0       ??_C@_09IDIGFECC@?9noflares?$AA@ 00000001400a1ad0     bsp.obj
 0002:00008ae0       ??_C@_0BK@KHLHMBLO@?5Flare?5surfaces?5disabled?6?$AA@ 00000001400a1ae0     bsp.obj
 0002:00008b00       ??_C@_07NHCELAO@?9skyfix?$AA@ 00000001400a1b00     bsp.obj
 0002:00008b08       ??_C@_0CL@LANCHIAE@?5GL_CLAMP?5sky?5fix?1hack?1workaroun@ 00000001400a1b08     bsp.obj
 0002:00008b38       ??_C@_0P@ONGGKCJF@?9debugsurfaces?$AA@ 00000001400a1b38     bsp.obj
 0002:00008b48       ??_C@_0BK@OJLKPNIB@?5emitting?5debug?5surfaces?6?$AA@ 00000001400a1b48     bsp.obj
 0002:00008b68       ??_C@_0M@HIHPKAEA@?9debuginset?$AA@ 00000001400a1b68     bsp.obj
 0002:00008b78       ??_C@_0CL@LJPNKLOM@?5Debug?5surface?5triangle?5insettin@ 00000001400a1b78     bsp.obj
 0002:00008ba8       ??_C@_0O@FHOIGHGN@?9debugportals?$AA@ 00000001400a1ba8     bsp.obj
 0002:00008bb8       ??_C@_0CA@EDMDDOBE@?5Debug?5portal?5surfaces?5enabled?6?$AA@ 00000001400a1bb8     bsp.obj
 0002:00008bd8       ??_C@_08IBBEBMEL@?9sRGBtex?$AA@ 00000001400a1bd8     bsp.obj
 0002:00008be8       ??_C@_0CC@JENPGLNL@Default?5texture?5colorspace?3?5sRGB@ 00000001400a1be8     bsp.obj
 0002:00008c10       ??_C@_0L@HONIGEJL@?9nosRGBtex?$AA@ 00000001400a1c10     bsp.obj
 0002:00008c20       ??_C@_0CE@KFKMGBKI@Default?5texture?5colorspace?3?5line@ 00000001400a1c20     bsp.obj
 0002:00008c48       ??_C@_0L@NCBGDGLG@?9sRGBcolor?$AA@ 00000001400a1c48     bsp.obj
 0002:00008c58       ??_C@_0CF@NFHIHBIL@Entity?5_color?5keys?5colorspace?3?5s@ 00000001400a1c58     bsp.obj
 0002:00008c80       ??_C@_0N@NPAPFGL@?9nosRGBcolor?$AA@ 00000001400a1c80     bsp.obj
 0002:00008c90       ??_C@_0CH@OCHFIECB@Entity?5_color?5keys?5colorspace?3?5l@ 00000001400a1c90     bsp.obj
 0002:00008cb8       ??_C@_07LCGJDGNC@?9nosRGB?$AA@ 00000001400a1cb8     bsp.obj
 0002:00008cc0       ??_C@_04OICLHDCA@?9bsp?$AA@ 00000001400a1cc0     bsp.obj
 0002:00008cc8       ??_C@_0BM@EFFKIJDC@?5?9bsp?5argument?5unnecessary?6?$AA@ 00000001400a1cc8     bsp.obj
 0002:00008ce8       ??_C@_0BP@KOAEKLLF@usage?3?5q3map?5?$FLoptions?$FN?5mapfile?$AA@ 00000001400a1ce8     bsp.obj
 0002:00008d08       ??_C@_06HLEIHIOA@?$CFs?4prt?$AA@ 00000001400a1d08     bsp.obj
 0002:00008d10       ??_C@_06MBNJCGIN@?$CFs?4lin?$AA@ 00000001400a1d10     bsp.obj
 0002:00008d18       ??_C@_0BI@PKDNCKOF@Running?5region?5compile?6?$AA@ 00000001400a1d18     bsp.obj
 0002:00008d30       ??_C@_0CO@JJOPAGHN@Bad?5texture?5matrix?$CB?5?$CIA?$CJ?5?$CI?$CFf?0?5?$CFf?$CJ@ 00000001400a1d30     decals.obj
 0002:00008d60       ??_C@_0CO@KMACLACO@Bad?5texture?5matrix?$CB?5?$CIB?$CJ?5?$CI?$CFf?0?5?$CFf?$CJ@ 00000001400a1d60     decals.obj
 0002:00008d90       ??_C@_0CO@JIJCACA@Bad?5texture?5matrix?$CB?5?$CIC?$CJ?5?$CI?$CFf?0?5?$CFf?$CJ@ 00000001400a1d90     decals.obj
 0002:00008dc0       ??_C@_0EC@KHMPNINE@MAX_PROJECTORS?5?$CI?$CFd?$CJ?5exceeded?0?5no@ 00000001400a1dc0     decals.obj
 0002:00008e08       ??_C@_0BH@DDICIEA@?9?9?9?5ProcessDecals?5?9?9?9?6?$AA@ 00000001400a1e08     decals.obj
 0002:00008e20       ??_C@_0DB@CCCOMBOI@Decal?5entity?5without?5any?5patch?5m@ 00000001400a1e20     decals.obj
 0002:00008e58       ??_C@_0CP@PKLAHCO@Decal?5entity?5without?5a?5valid?5tar@ 00000001400a1e58     decals.obj
 0002:00008e88       ??_C@_0O@LJBLGCNJ@_backfacecull?$AA@ 00000001400a1e88     decals.obj
 0002:00008e98       ??_C@_04BADLOAIG@_bfc?$AA@ 00000001400a1e98     decals.obj
 0002:00008ea0       ??_C@_0BG@IPNEJCLC@?$CF9d?5decal?5projectors?6?$AA@ 00000001400a1ea0     decals.obj
 0002:00008eb8       ??_C@_0BA@FANJOOLJ@?4?4?2src?2decals?4c?$AA@ 00000001400a1eb8     decals.obj
 0002:00008ec8       ??_C@_0BK@MNFFKFCF@?9?9?9?5MakeEntityDecals?5?9?9?9?6?$AA@ 00000001400a1ec8     decals.obj
 0002:00008ee8       ??_C@_0BE@OAAOJLPF@?$CF9d?5decal?5surfaces?6?$AA@ 00000001400a1ee8     decals.obj
 0002:00008f00       ??_C@_0BF@EAAMGHDA@?4?4?2src?2decorations?4c?$AA@ 00000001400a1f00     decorations.obj
 0002:00008f18       ??_C@_0DF@LHOCBBHF@NewDecoreGroup?3?5numDecoreGroups?5@ 00000001400a1f18     decorations.obj
 0002:00008f50       ??_C@_0BO@FGGNIEDI@NewDecoreGroup?3?5?$CFs?5redefined?6?$AA@ 00000001400a1f50     decorations.obj
 0002:00008f70       ??_C@_0CG@PPHBMEJN@?$CFs?3?5unexpected?5end?5of?5line?5on?5li@ 00000001400a1f70     decorations.obj
 0002:00008f98       ??_C@_0BL@MFPKIPNG@?$CFs?3?5bad?5parm?5?$CFi?5on?5line?5?$CFi?$AA@ 00000001400a1f98     decorations.obj
 0002:00008fb8       ??_C@_0DH@CPMLBDFC@DecoreParseActions?3?5unexpected?5e@ 00000001400a1fb8     decorations.obj
 0002:00008ff0       ??_C@_0CN@CHPIAHMM@DecoreParseActions?3?5unexpected?5?$HL@ 00000001400a1ff0     decorations.obj
 0002:00009020       ??_C@_0EA@FIPCPLKM@DecoreParseActions?3?5numActions?5?$DN@ 00000001400a2020     decorations.obj
 0002:00009060       ??_C@_07FEDAGCNC@flagset?$AA@ 00000001400a2060     decorations.obj
 0002:00009068       ??_C@_09CJKDKMFF@flagunset?$AA@ 00000001400a2068     decorations.obj
 0002:00009078       ??_C@_0L@EDNFEKCF@flagtoggle?$AA@ 00000001400a2078     decorations.obj
 0002:00009084       ??_C@_03ICICOMAL@yes?$AA@  00000001400a2084     decorations.obj
 0002:00009088       ??_C@_04LOAJBDKD@true?$AA@ 00000001400a2088     decorations.obj
 0002:00009090       ??_C@_02LIELOMNJ@on?$AA@   00000001400a2090     decorations.obj
 0002:00009094       ??_C@_01HIHLOKLC@1?$AA@    00000001400a2094     decorations.obj
 0002:00009098       ??_C@_07MDDDPOPH@_decore?$AA@ 00000001400a2098     decorations.obj
 0002:000090a0       ??_C@_0BI@JMABKGHG@scripts?1decorations?4txt?$AA@ 00000001400a20a0     decorations.obj
 0002:000090b8       ??_C@_0BJ@BCKFOPMF@?9?9?9?5LoadDecorations?5?9?9?9?6?$AA@ 00000001400a20b8     decorations.obj
 0002:000090d8       ??_C@_0DB@JBMMIAAK@LoadDecorationScript?$CI?$CJ?3?5unexpect@ 00000001400a20d8     decorations.obj
 0002:0000910c       ??_C@_05MGJOOGAJ@group?$AA@ 00000001400a210c     decorations.obj
 0002:00009114       ??_C@_05ENKANFLO@class?$AA@ 00000001400a2114     decorations.obj
 0002:00009120       ??_C@_0P@IJFBICPJ@importrtlights?$AA@ 00000001400a2120     decorations.obj
 0002:00009130       ??_C@_06MDLIGPKC@active?$AA@ 00000001400a2130     decorations.obj
 0002:00009138       ??_C@_0L@DLJMKKHG@colorScale?$AA@ 00000001400a2138     decorations.obj
 0002:00009148       ??_C@_08MEKLKAIJ@saturate?$AA@ 00000001400a2148     decorations.obj
 0002:00009158       ??_C@_09CBKHFEIP@radiusMod?$AA@ 00000001400a2158     decorations.obj
 0002:00009168       ??_C@_0BB@CKBEIPIB@noShadowDeviance?$AA@ 00000001400a2168     decorations.obj
 0002:00009180       ??_C@_0BA@HEFBLOML@noShadowSamples?$AA@ 00000001400a2180     decorations.obj
 0002:00009190       ??_C@_0BA@JMIOAGGK@noShadowMinDist?$AA@ 00000001400a2190     decorations.obj
 0002:000091a0       ??_C@_0P@DJIHAGGA@shadowDeviance?$AA@ 00000001400a21a0     decorations.obj
 0002:000091b0       ??_C@_0O@ILEAAJND@shadowSamples?$AA@ 00000001400a21b0     decorations.obj
 0002:000091c0       ??_C@_0O@GDJPLBHC@shadowMinDist?$AA@ 00000001400a21c0     decorations.obj
 0002:000091d0       ??_C@_0P@BADJIJGF@skipCubemapped?$AA@ 00000001400a21d0     decorations.obj
 0002:000091e0       ??_C@_09DFMJKDDG@skipStyle?$AA@ 00000001400a21e0     decorations.obj
 0002:000091f0       ??_C@_0DP@DGKPMOFI@DecoreParseActions?3?5SkipStylesNu@ 00000001400a21f0     decorations.obj
 0002:00009230       ??_C@_0M@LIAKBOOA@mergeModels?$AA@ 00000001400a2230     decorations.obj
 0002:00009240       ??_C@_0M@EKLHLEPA@mergeRadius?$AA@ 00000001400a2240     decorations.obj
 0002:00009250       ??_C@_09FOMJIFNN@mergeAxis?$AA@ 00000001400a2250     decorations.obj
 0002:0000925c       ??_C@_03POMAGKDD@xyz?$AA@  00000001400a225c     decorations.obj
 0002:00009260       ??_C@_02KEKBNNLK@xy?$AA@   00000001400a2260     decorations.obj
 0002:00009268       ??_C@_0N@IKHNEIKC@mergeMaxSize?$AA@ 00000001400a2268     decorations.obj
 0002:00009278       ??_C@_06GOJKNBFM@entity?$AA@ 00000001400a2278     decorations.obj
 0002:00009280       ??_C@_0DM@ODJLHDBM@LoadDecorationScript?3?5double?5?8en@ 00000001400a2280     decorations.obj
 0002:000092c0       ??_C@_0BH@BOAJNJEK@?$CF9i?5decoration?5groups?6?$AA@ 00000001400a22c0     decorations.obj
 0002:000092d8       ??_C@_02IKAHHCAI@?$CFi?$AA@ 00000001400a22d8     decorations.obj
 0002:000092e0       ??_C@_0BF@KOBCINHH@?9?9?9?5LoadFoliage?5?9?9?9?6?$AA@ 00000001400a22e0     decorations.obj
 0002:000092f8       ??_C@_0P@MFMMDBLO@?$CFs_foliage?4reg?$AA@ 00000001400a22f8     decorations.obj
 0002:00009308       ??_C@_0BB@GMMKNKDM@?$CFs_foliage?$CFi?4reg?$AA@ 00000001400a2308     decorations.obj
 0002:00009320       ??_C@_0BH@GCOCGFGK@?$CF9d?5entities?5imported?6?$AA@ 00000001400a2320     decorations.obj
 0002:00009338       ??_C@_0M@BKGAKIEJ@_keepLights?$AA@ 00000001400a2338     decorations.obj
 0002:00009348       ??_C@_0BG@OJOHIKCE@?9?9?9?5LoadRtlights?5?9?9?9?6?$AA@ 00000001400a2348     decorations.obj
 0002:00009360       ??_C@_09FKCJDGNI@?4rtlights?$AA@ 00000001400a2360     decorations.obj
 0002:00009370       ??_C@_0BM@HPCLLBLN@?5map?5has?5no?5?4rtlights?5file?6?$AA@ 00000001400a2370     decorations.obj
 0002:00009390       ??_C@_0DJ@ICCHNBKM@?$CFf?5?$CFf?5?$CFf?5?$CFf?5?$CFf?5?$CFf?5?$CFf?5?$CFd?5?$CF127s?5?$CFf@ 00000001400a2390     decorations.obj
 0002:000093cc       ??_C@_02JMMFPCED@?$CC?$CC?$AA@ 00000001400a23cc     decorations.obj
 0002:000093d0       ??_C@_09EABNLLOO@_deviance?$AA@ 00000001400a23d0     decorations.obj
 0002:000093e0       ??_C@_08MNEFCDNK@_samples?$AA@ 00000001400a23e0     decorations.obj
 0002:000093f0       ??_C@_08OEFLLEHP@_mindist?$AA@ 00000001400a23f0     decorations.obj
 0002:00009400       ??_C@_0BI@KIHHJHKO@?5invalid?5rtlights?5file?6?$AA@ 00000001400a2400     decorations.obj
 0002:00009418       ??_C@_0BF@BAEMIOML@?$CF9d?5lights?5imported?6?$AA@ 00000001400a2418     decorations.obj
 0002:00009430       ??_C@_04ECJHHKO@?90?41?$AA@ 00000001400a2430     decorations.obj
 0002:00009438       ??_C@_0P@FAEIEGCK@__decgrp_?$CFs_?$CFi?$AA@ 00000001400a2438     decorations.obj
 0002:00009448       ??_C@_08KPLCFIJD@_noflood?$AA@ 00000001400a2448     decorations.obj
 0002:00009458       ??_C@_0BO@LFDHFCPK@?9?9?9?5FindDecorationGroups?5?9?9?9?6?$AA@ 00000001400a2458     decorations.obj
 0002:00009478       ??_C@_0BG@LICJAIFP@?$CF9i?5entities?5in?5?8?$CFs?8?6?$AA@ 00000001400a2478     decorations.obj
 0002:00009490       ??_C@_0M@FELPJLHE@_mergetests?$AA@ 00000001400a2490     decorations.obj
 0002:000094a0       ??_C@_0BM@IOBGGCKI@?9?9?9?5ProcessDecorations?5?9?9?9?6?$AA@ 00000001400a24a0     decorations.obj
 0002:000094c0       ??_C@_0BF@DBELPED@?$CF9i?5tests?5performed?6?$AA@ 00000001400a24c0     decorations.obj
 0002:000094d8       ??_C@_0CB@CNDDCACE@?$CF9i?5models?5merged?5to?5?$CFi?5in?5?8?$CFs?8?6@ 00000001400a24d8     decorations.obj
 0002:00009500       ??_C@_0CH@CAKIKGE@?$CF9i?5large?5models?5pushed?5to?5world@ 00000001400a2500     decorations.obj
 0002:00009528       ??_C@_0BB@DIPBEIPC@?4?4?2src?2facebsp?4c?$AA@ 00000001400a2528     facebsp.obj
 0002:00009540       ??_C@_0BB@FDHHFBJC@?9?9?9?5FaceBSP?5?9?9?9?6?$AA@ 00000001400a2540     facebsp.obj
 0002:00009558       ??_C@_0L@FKFAOHIF@?$CF9d?5faces?6?$AA@ 00000001400a2558     facebsp.obj
 0002:00009568       ??_C@_0L@NMEAGFD@?$CF9d?5leafs?6?$AA@ 00000001400a2568     facebsp.obj
 0002:00009578       ??_C@_0N@FMLANIIB@?4?4?2src?2fog?4c?$AA@ 00000001400a2578     fog.obj
 0002:00009588       ??_C@_0BN@NKONEEEK@No?5crossing?5points?5in?5patch?6?$AA@ 00000001400a2588     fog.obj
 0002:000095a8       ??_C@_0DC@HJOCLDJP@multiple?5crossing?5points?5for?5pat@ 00000001400a25a8     fog.obj
 0002:000095e0       ??_C@_0DD@DIEBKKM@differing?5crossing?5points?5for?5pa@ 00000001400a25e0     fog.obj
 0002:00009618       ??_C@_0BL@KLAFGKPI@MAX_PATCH_SIZE?5after?5split?$AA@ 00000001400a2618     fog.obj
 0002:00009638       ??_C@_0BA@JGBNGEPH@MAX_BRUSH_SIDES?$AA@ 00000001400a2638     fog.obj
 0002:00009650       ??_C@_0EA@PNADKMCC@WindingFromDrawSurf?5failed?3?5MAX_@ 00000001400a2650     fog.obj
 0002:00009690       ??_C@_0BI@KAKEBGDC@?9?9?9?9?5FogDrawSurfs?5?9?9?9?9?6?$AA@ 00000001400a2690     fog.obj
 0002:000096a8       ??_C@_0BL@MOJKIPNN@?$CF9d?5fog?5polygon?5fragments?6?$AA@ 00000001400a26a8     fog.obj
 0002:000096c8       ??_C@_0BJ@NLFOIMEL@?$CF9d?5fog?5patch?5fragments?6?$AA@ 00000001400a26c8     fog.obj
 0002:000096e8       ??_C@_0BG@GCKPJAKH@?$CF9d?5fogged?5drawsurfs?6?$AA@ 00000001400a26e8     fog.obj
 0002:00009700       ??_C@_0BH@PLDJHGAK@?9?9?9?5CreateMapFogs?5?9?9?9?6?$AA@ 00000001400a2700     fog.obj
 0002:00009718       ??_C@_0BL@KDDECJKI@Exceeded?5MAX_MAP_FOGS?5?$CI?$CFd?$CJ?$AA@ 00000001400a2718     fog.obj
 0002:00009734       ??_C@_04PEOEIJFK@_fog?$AA@ 00000001400a2734     fog.obj
 0002:00009740       ??_C@_0DE@IOCCHFNM@Exceeded?5MAX_MAP_FOGS?5?$CI?$CFd?$CJ?5tryin@ 00000001400a2740     fog.obj
 0002:00009778       ??_C@_0BO@KIANBEGO@Map?5has?5global?5fog?5shader?5?$CFs?6?$AA@ 00000001400a2778     fog.obj
 0002:00009798       ??_C@_0DI@IDAHGBNA@Invalid?5shader?5?$CC?$CFs?$CC?5referenced?5t@ 00000001400a2798     fog.obj
 0002:000097d0       ??_C@_09GDOJEDKL@?$CF9d?5fogs?6?$AA@ 00000001400a27d0     fog.obj
 0002:000097e0       ??_C@_0BC@LPEHNNEG@?9?9?9?5LeakFile?5?9?9?9?6?$AA@ 00000001400a27e0     leakfile.obj
 0002:000097f8       ??_C@_0BC@ONJICBGP@Couldn?8t?5open?5?$CFs?6?$AA@ 00000001400a27f8     leakfile.obj
 0002:00009810       ??_C@_08MAIKLLAG@polyline?$AA@ 00000001400a2810     leakfile.obj
 0002:00009820       ??_C@_09MALOBAAJ@?$CFf?5?$CFf?5?$CFf?6?$AA@ 00000001400a2820     leakfile.obj
 0002:00009830       ??_C@_0BE@POPPONPO@?$CF9d?5point?5linefile?6?$AA@ 00000001400a2830     leakfile.obj
 0002:00009848       ??_C@_0BI@HFPNHBMD@FloatPlane?3?5bad?5normal?6?$AA@ 00000001400a2848     map.obj
 0002:00009860       ??_C@_0P@OPCJGGAO@MAX_MAP_PLANES?$AA@ 00000001400a2860     map.obj
 0002:00009870       ??_C@_0DH@HOAAKMAF@Mixed?5detail?5and?5structural?5?$CIdef@ 00000001400a2870     map.obj
 0002:000098a8       ??_C@_0BF@EBCOMMPB@MAX_BUILD_SIDES?5?$CI?$CFd?$CJ?$AA@ 00000001400a28a8     map.obj
 0002:000098c0       ??_C@_0CE@IAIBIDND@Origin?5brushes?5not?5allowed?5in?5wo@ 00000001400a28c0     map.obj
 0002:000098e8       ??_C@_0DI@JKHOMMAE@Entity?5?$CFi?0?5Brush?5?$CFi?3?5areaportals@ 00000001400a28e8     map.obj
 0002:00009920       ??_C@_0BB@CCMIIFGG@Degenerate?5plane?$AA@ 00000001400a2920     map.obj
 0002:00009938       ??_C@_0BA@JEFOAIEH@Duplicate?5plane?$AA@ 00000001400a2938     map.obj
 0002:00009948       ??_C@_0P@BMEKEJOK@Mirrored?5plane?$AA@ 00000001400a2948     map.obj
 0002:00009958       ??_C@_03KLIPLJLL@min?$AA@  00000001400a2958     map.obj
 0002:0000995c       ??_C@_03LJAEFNNE@max?$AA@  00000001400a295c     map.obj
 0002:00009960       ??_C@_09CAMPGFBE@_indexmap?$AA@ 00000001400a2960     map.obj
 0002:00009970       ??_C@_08NGFBDPJM@alphamap?$AA@ 00000001400a2970     map.obj
 0002:00009980       ??_C@_07DCDICIBG@_layers?$AA@ 00000001400a2980     map.obj
 0002:00009988       ??_C@_06EGHAMJGL@layers?$AA@ 00000001400a2988     map.obj
 0002:00009990       ??_C@_0IG@GKEHLHDE@Entity?5with?5index?1alpha?5map?5?$CC?$CFs?$CC@ 00000001400a2990     map.obj
 0002:00009a20       ??_C@_0HD@GOBMCAJA@Entity?5with?5index?1alpha?5map?5?$CC?$CFs?$CC@ 00000001400a2a20     map.obj
 0002:00009a98       ??_C@_07GMPPKKGL@_shader?$AA@ 00000001400a2a98     map.obj
 0002:00009aa0       ??_C@_06BILHELBG@shader?$AA@ 00000001400a2aa0     map.obj
 0002:00009ab0       ??_C@_0IG@CFLDMEPG@Entity?5with?5index?1alpha?5map?5?$CC?$CFs?$CC@ 00000001400a2ab0     map.obj
 0002:00009b38       ??_C@_0CK@NBFEBNJA@Entity?5?$CFd?5?$CI?$CFs?$CJ?5has?5shader?5index?5@ 00000001400a2b38     map.obj
 0002:00009b64       ??_C@_03LJIJAGL@tga?$AA@   00000001400a2b64     map.obj
 0002:00009b68       ??_C@_0N@EEIJPJAF@?4?4?2src?2map?4c?$AA@ 00000001400a2b68     map.obj
 0002:00009b80       ??_C@_0HL@GKOFOHMO@Entity?5with?5index?1alpha?5map?5?$CC?$CFs?$CC@ 00000001400a2b80     map.obj
 0002:00009c00       ??_C@_08GOHNDFOO@_offsets?$AA@ 00000001400a2c00     map.obj
 0002:00009c10       ??_C@_07EALNHAIO@offsets?$AA@ 00000001400a2c10     map.obj
 0002:00009c20       ??_C@_0JI@LELIPPBM@ParseEntity?3?5?$HL?5not?5found?0?5found?5@ 00000001400a2c20     map.obj
 0002:00009cb8       ??_C@_0BP@OJKANGJJ@MAX_MAP_ENTITIES?5?$CI?$CFd?$CJ?5exceeded?$AA@ 00000001400a2cb8     map.obj
 0002:00009ce0       ??_C@_0GF@PGEIFBDM@ParseEntity?3?5EOF?5without?5closing@ 00000001400a2ce0     map.obj
 0002:00009d48       ??_C@_09NHGGNJII@patchDef2?$AA@ 00000001400a2d48     map.obj
 0002:00009d58       ??_C@_0L@JAJIAHIH@terrainDef?$AA@ 00000001400a2d58     map.obj
 0002:00009d68       ??_C@_0DE@HPNFMIDA@Terrain?5entity?5parsing?5not?5suppo@ 00000001400a2d68     map.obj
 0002:00009da0       ??_C@_08HGHPGCHB@brushDef?$AA@ 00000001400a2da0     map.obj
 0002:00009db0       ??_C@_0DF@MOJLPFMA@Old?5brush?5format?5not?5allowed?5in?5@ 00000001400a2db0     map.obj
 0002:00009de8       ??_C@_0DF@GGLOJFKA@New?5brush?5format?5not?5allowed?5in?5@ 00000001400a2de8     map.obj
 0002:00009e20       ??_C@_0L@KLICIANB@func_group?$AA@ 00000001400a2e20     map.obj
 0002:00009e30       ??_C@_09LDDKBMJB@_nonsolid?$AA@ 00000001400a2e30     map.obj
 0002:00009e3c       ??_C@_03LIOPDAI@_ns?$AA@   00000001400a2e3c     map.obj
 0002:00009e40       ??_C@_07PDKLIHLE@_noclip?$AA@ 00000001400a2e40     map.obj
 0002:00009e48       ??_C@_03EBEMOBFJ@_nc?$AA@  00000001400a2e48     map.obj
 0002:00009e50       ??_C@_08BPMLEFKI@_notjunc?$AA@ 00000001400a2e50     map.obj
 0002:00009e5c       ??_C@_04JEINJDGJ@_ntj?$AA@ 00000001400a2e5c     map.obj
 0002:00009e68       ??_C@_0L@IIBFHGHD@group_info?$AA@ 00000001400a2e68     map.obj
 0002:00009e78       ??_C@_0BE@ONBJBBMC@?$CF9d?5foliage?5models?6?$AA@ 00000001400a2e78     map.obj
 0002:00009e90       ??_C@_0BE@GPGMGMEL@?$CF9d?5light?5entities?6?$AA@ 00000001400a2e90     map.obj
 0002:00009ea8       ??_C@_0BH@HOMFAANM@?$CF9d?5lightgrid?5brushes?6?$AA@ 00000001400a2ea8     map.obj
 0002:00009ec0       ??_C@_0FB@PABCHPCO@Over?590?5percent?5structural?5map?5d@ 00000001400a2ec0     map.obj
 0002:00009f18       ??_C@_0BJ@BNFDKJCN@?$CF9d?5total?5world?5brushes?6?$AA@ 00000001400a2f18     map.obj
 0002:00009f38       ??_C@_0N@LENEEGG@?$CF9d?5patches?6?$AA@ 00000001400a2f38     map.obj
 0002:00009f48       ??_C@_0P@DJPLBJFN@?$CF9d?5boxbevels?6?$AA@ 00000001400a2f48     map.obj
 0002:00009f58       ??_C@_0BA@INIKGOKF@?$CF9d?5edgebevels?6?$AA@ 00000001400a2f58     map.obj
 0002:00009f68       ??_C@_0M@KICOFNCI@?$CF9d?5planes?6?$AA@ 00000001400a2f68     map.obj
 0002:00009f78       ??_C@_0BB@KKDMFNAH@?$CF9d?5areaportals?6?$AA@ 00000001400a2f78     map.obj
 0002:00009f90       ??_C@_0CN@ODAENFDH@Size?3?5?$HL?5?$CF?40f?5?$CF?40f?5?$CF?40f?5?$HN?5?$HL?5?$CF?40f?5@ 00000001400a2f90     map.obj
 0002:00009fc0       ??_C@_0CP@IPKHGNEM@Region?3?5?$HL?5?$CF?40f?5?$CF?40f?5?$CF?40f?5?$HN?5?$HL?5?$CF?40@ 00000001400a2fc0     map.obj
 0002:00009ff0       ??_C@_0M@FBHGBLEM@fakemap?4map?$AA@ 00000001400a2ff0     map.obj
 0002:0000a000       ??_C@_0DB@KMEMMIME@Failed?5to?5load?5shader?5image?5?8?$CFs?8@ 00000001400a3000     map.obj
 0002:0000a034       ??_C@_05NOJGJHG@func_?$AA@ 00000001400a3034     map.obj
 0002:0000a040       ??_C@_0O@GLBEPFPD@effect_glares?$AA@ 00000001400a3040     map.obj
 0002:0000a050       ??_C@_0BE@FKCBEADL@trigger_changelevel?$AA@ 00000001400a3050     map.obj
 0002:0000a068       ??_C@_0N@JFLGFCMM@trigger_hurt?$AA@ 00000001400a3068     map.obj
 0002:0000a078       ??_C@_0BE@NNMLNNMC@trigger_environment?$AA@ 00000001400a3078     map.obj
 0002:0000a090       ??_C@_0O@POFFKELF@trigger_event?$AA@ 00000001400a3090     map.obj
 0002:0000a0a0       ??_C@_0N@IPDPACDB@trigger_exit?$AA@ 00000001400a30a0     map.obj
 0002:0000a0b0       ??_C@_0O@MGHDFJDI@trigger_multi?$AA@ 00000001400a30b0     map.obj
 0002:0000a0c0       ??_C@_0N@OOLDLEBF@trigger_once?$AA@ 00000001400a30c0     map.obj
 0002:0000a0d0       ??_C@_0BB@HLPFCPGP@trigger_savegame?$AA@ 00000001400a30d0     map.obj
 0002:0000a0e8       ??_C@_0P@KOOILBF@trigger_speech?$AA@ 00000001400a30e8     map.obj
 0002:0000a0f8       ??_C@_0BB@COMMHECA@trigger_teleport?$AA@ 00000001400a30f8     map.obj
 0002:0000a110       ??_C@_0DB@NEOLFCBI@Group?5entity?5?$CFs?5with?5no?5brushes?1@ 00000001400a3110     map.obj
 0002:0000a144       ??_C@_03OBKGHBJN@sid?$AA@  00000001400a3144     map.obj
 0002:0000a148       ??_C@_0P@NNKNFMO@Missing?5SaveID?$AA@ 00000001400a3148     map.obj
 0002:0000a158       ??_C@_0BG@HNGEAIIF@Duplicate?5SaveID?5?$CI?$CFs?$CJ?$AA@ 00000001400a3158     map.obj
 0002:0000a170       ??_C@_0P@MOFINEOP@?4?4?2src?2patch?4c?$AA@ 00000001400a3170     patch.obj
 0002:0000a180       ??_C@_0BF@JENDBJHH@ParsePatch?3?5bad?5size?$AA@ 00000001400a3180     patch.obj
 0002:0000a198       ??_C@_0BB@OJALGE@Degenerate?5patch?$AA@ 00000001400a3198     patch.obj
 0002:0000a1b0       ??_C@_0BL@NOOGEMJA@?9?9?9?5PatchMapDrawSurfs?5?9?9?9?6?$AA@ 00000001400a31b0     patch.obj
 0002:0000a1d0       ??_C@_0BG@BHDLOPNF@?$CF9d?5patch?5LOD?5groups?6?$AA@ 00000001400a31d0     patch.obj
 0002:0000a1e8       ??_C@_0BB@NNKKBJBD@?4?4?2src?2portals?4c?$AA@ 00000001400a31e8     portals.obj
 0002:0000a200       ??_C@_0BP@LIHEBGBH@Portal_EntityFlood?3?5not?5a?5leaf?$AA@ 00000001400a3200     portals.obj
 0002:0000a220       ??_C@_0CD@JFIEIEKB@AddPortalToNode?3?5allready?5includ@ 00000001400a3220     portals.obj
 0002:0000a248       ??_C@_0CJ@IIKHMOPG@RemovePortalFromNode?3?5portal?5not@ 00000001400a3248     portals.obj
 0002:0000a278       ??_C@_0CP@CAKEOEAK@RemovePortalFromNode?3?5portal?5not@ 00000001400a3278     portals.obj
 0002:0000a2a8       ??_C@_0BG@BAOOPHAF@Backwards?5tree?5volume?$AA@ 00000001400a32a8     portals.obj
 0002:0000a2c0       ??_C@_0CD@BKLIBDI@CutNodePortals_r?3?5mislinked?5port@ 00000001400a32c0     portals.obj
 0002:0000a2e8       ??_C@_0CD@IJDJNC@SplitNodePortals?3?5mislinked?5port@ 00000001400a32e8     portals.obj
 0002:0000a310       ??_C@_0BG@ILBJCEGO@Node?5without?5a?5volume?$AA@ 00000001400a3310     portals.obj
 0002:0000a328       ??_C@_0BJ@DLGHOKJL@Node?5has?5?$CFd?5tiny?5portals?$AA@ 00000001400a3328     portals.obj
 0002:0000a348       ??_C@_0BL@GDEHHKAG@Node?5With?5Unbounded?5Volume?$AA@ 00000001400a3348     portals.obj
 0002:0000a368       ??_C@_0BJ@HAJDOKAC@?9?9?9?5MakeTreePortals?5?9?9?9?6?$AA@ 00000001400a3368     portals.obj
 0002:0000a388       ??_C@_0BC@GILNCCL@?$CF9d?5tiny?5portals?6?$AA@ 00000001400a3388     portals.obj
 0002:0000a3a0       ??_C@_0BB@NMIGLNJL@?$CF9d?5bad?5portals?6?$AA@ 00000001400a33a0     portals.obj
 0002:0000a3b8       ??_C@_0BH@HLBIBACP@?9?9?9?5FloodEntities?5?9?9?9?6?$AA@ 00000001400a33b8     portals.obj
 0002:0000a3d0       ??_C@_03DMDLBFBM@_nf?$AA@  00000001400a33d0     portals.obj
 0002:0000a3d4       ??_C@_06DOPHPGON@_scale?$AA@ 00000001400a33d4     portals.obj
 0002:0000a3e0       ??_C@_0DB@GGNOHFGG@FloodEntities?3?5entity?5?8?$CFs?8?5reach@ 00000001400a33e0     portals.obj
 0002:0000a418       ??_C@_0BE@JPKDCMHH@Model?5entity?5leaked?$AA@ 00000001400a3418     portals.obj
 0002:0000a430       ??_C@_0O@FKJNNIKJ@Entity?5leaked?$AA@ 00000001400a3430     portals.obj
 0002:0000a440       ??_C@_0BD@DJDGKBOJ@?$CF9d?5flooded?5leafs?6?$AA@ 00000001400a3440     portals.obj
 0002:0000a458       ??_C@_0DC@FBOKCKKG@FloodEntities?3?5no?5entities?5in?5op@ 00000001400a3458     portals.obj
 0002:0000a490       ??_C@_0DK@OAGHNHOK@FloodEntities?3?5entity?5reached?5fr@ 00000001400a3490     portals.obj
 0002:0000a4d0       ??_C@_0CG@FJJLNLHI@Areaportal?5brush?5?$CFi?5touches?5?$DO?52?5@ 00000001400a34d0     portals.obj
 0002:0000a4f8       ??_C@_0BE@PLEMBIKP@?9?9?9?5FloodAreas?5?9?9?9?6?$AA@ 00000001400a34f8     portals.obj
 0002:0000a510       ??_C@_0L@BKJHMLMJ@?$CF9d?5areas?6?$AA@ 00000001400a3510     portals.obj
 0002:0000a520       ??_C@_0BB@BFANMJAA@?$CF9d?5solid?5leafs?6?$AA@ 00000001400a3520     portals.obj
 0002:0000a538       ??_C@_0BC@KPNDPHOM@?$CF9d?5leafs?5filled?6?$AA@ 00000001400a3538     portals.obj
 0002:0000a550       ??_C@_0BC@IHJMBGPB@?$CF9d?5inside?5leafs?6?$AA@ 00000001400a3550     portals.obj
 0002:0000a564       ??_C@_03JLNFKLOC@?$CFi?5?$AA@ 00000001400a3564     prtfile.obj
 0002:0000a568       ??_C@_03JAIJOMNP@?$CFf?5?$AA@ 00000001400a3568     prtfile.obj
 0002:0000a570       ??_C@_09IKGGOGBI@?$CFi?5?$CFi?5?$CFi?5?$AA@ 00000001400a3570     prtfile.obj
 0002:0000a57c       ??_C@_02LAJDINOI@1?5?$AA@  00000001400a357c     prtfile.obj
 0002:0000a580       ??_C@_02LBFBOHNP@0?5?$AA@  00000001400a3580     prtfile.obj
 0002:0000a584       ??_C@_02KCKGHPCA@?$CJ?5?$AA@ 00000001400a3584     prtfile.obj
 0002:0000a588       ??_C@_06FEECMMCN@?$CFi?5?$CFi?5?$AA@ 00000001400a3588     prtfile.obj
 0002:0000a590       ??_C@_0BI@NGNDDIPA@?9?9?9?5NumberClusters?5?9?9?9?6?$AA@ 00000001400a3590     prtfile.obj
 0002:0000a5a8       ??_C@_0BB@BIMKHLJM@?$CF9d?5visclusters?6?$AA@ 00000001400a35a8     prtfile.obj
 0002:0000a5c0       ??_C@_0BA@HELOIKFI@?$CF9d?5visportals?6?$AA@ 00000001400a35c0     prtfile.obj
 0002:0000a5d0       ??_C@_0BA@EIEGDCAN@?$CF9d?5solidfaces?6?$AA@ 00000001400a35d0     prtfile.obj
 0002:0000a5e0       ??_C@_0BJ@PPHGGLDL@?9?9?9?5WritePortalFile?5?9?9?9?6?$AA@ 00000001400a35e0     prtfile.obj
 0002:0000a600       ??_C@_0BB@KKAAPNA@Error?5opening?5?$CFs?$AA@ 00000001400a3600     prtfile.obj
 0002:0000a614       ??_C@_04MNCCIBNO@PRT1?$AA@ 00000001400a3614     prtfile.obj
 0002:0000a61c       ??_C@_03PELOGHMK@?$CFi?6?$AA@ 00000001400a361c     prtfile.obj
 0002:0000a620       ??_C@_0DE@FDCBJMJO@AllocDrawSurface?3?5Invalid?5surfac@ 00000001400a3620     surface.obj
 0002:0000a658       ??_C@_0CB@OGKDNAPN@MAX_MAP_DRAW_SURFS?5?$CI?$CFd?$CJ?5exceeded@ 00000001400a3658     surface.obj
 0002:0000a680       ??_C@_0BB@IBAHIIK@?4?4?2src?2surface?4c?$AA@ 00000001400a3680     surface.obj
 0002:0000a698       ??_C@_0BM@MLJGICJC@?9?9?9?5TidyEntitySurfaces?5?9?9?9?6?$AA@ 00000001400a3698     surface.obj
 0002:0000a6b8       ??_C@_0CJ@KEDHJMCE@?$CF9d?5empty?5or?5malformed?5surfaces?5@ 00000001400a36b8     surface.obj
 0002:0000a6e8       ??_C@_0P@FOLEDMMO@textures?1?$CFs_?$CFd?$AA@ 00000001400a36e8     surface.obj
 0002:0000a6f8       ??_C@_0BD@OHJJBJHM@textures?1?$CFs_?$CFdto?$CFd?$AA@ 00000001400a36f8     surface.obj
 0002:0000a710       ??_C@_0CN@EEBDBJOP@DrawSurfaceForSide?3?5w?9?$DOnumpoints@ 00000001400a3710     surface.obj
 0002:0000a740       ??_C@_05EGCKLBFH@?$CFs_lf?$AA@ 00000001400a3740     surface.obj
 0002:0000a748       ??_C@_05CIGGEPPO@?$CFs_rt?$AA@ 00000001400a3748     surface.obj
 0002:0000a750       ??_C@_05DDEJEEFC@?$CFs_ft?$AA@ 00000001400a3750     surface.obj
 0002:0000a758       ??_C@_05PJBKOCBA@?$CFs_bk?$AA@ 00000001400a3758     surface.obj
 0002:0000a760       ??_C@_05EJEFJMHP@?$CFs_up?$AA@ 00000001400a3760     surface.obj
 0002:0000a768       ??_C@_05IAOAGKOH@?$CFs_dn?$AA@ 00000001400a3768     surface.obj
 0002:0000a770       ??_C@_0CM@ODMMNCJL@DrawSurfaceForMesh?3?5bogus?5plane?5@ 00000001400a3770     surface.obj
 0002:0000a7a0       ??_C@_0CL@KPHKJEBL@SubdivideFace_r?3?5Bad?5w?9?$DOnumpoint@ 00000001400a37a0     surface.obj
 0002:0000a7d0       ??_C@_0BP@JAEGDJN@?9?9?9?5SubdivideFaceSurfaces?5?9?9?9?6?$AA@ 00000001400a37d0     surface.obj
 0002:0000a7f0       ??_C@_0BJ@HAELOPHB@?$CF9d?5hidden?5faces?5culled?6?$AA@ 00000001400a37f0     surface.obj
 0002:0000a810       ??_C@_0BN@BEMLBINF@?$CF9d?5coincident?5faces?5culled?6?$AA@ 00000001400a3810     surface.obj
 0002:0000a830       ??_C@_0BL@LNCGCHAE@?9?9?9?5ClipSidesIntoTree?5?9?9?9?6?$AA@ 00000001400a3830     surface.obj
 0002:0000a850       ??_C@_0CG@MHEBBAKN@Index?5?$CFd?5greater?5than?5vertex?5cou@ 00000001400a3850     surface.obj
 0002:0000a878       ??_C@_0BD@EJNEGGJ@MAX_MAP_DRAW_VERTS?$AA@ 00000001400a3878     surface.obj
 0002:0000a890       ??_C@_0CD@MAJPMLBO@MAX_MAP_DRAW_INDEXES?5?$CI?$CFd?$CJ?5exceed@ 00000001400a3890     surface.obj
 0002:0000a8b8       ??_C@_0CN@BEBMOFPH@Drawsurface?5?$CFd?5?$CFs?5has?5invalid?5in@ 00000001400a38b8     surface.obj
 0002:0000a8e8       ??_C@_0BD@CLBCDHEG@MAX_MAP_DRAW_SURFS?$AA@ 00000001400a38e8     surface.obj
 0002:0000a900       ??_C@_0O@JPMFJECH@debugsurfaces?$AA@ 00000001400a3900     surface.obj
 0002:0000a910       ??_C@_0CF@DPAHOIIN@MakePortalSurfs_r?3?5w?9?$DOnumpoints?5@ 00000001400a3910     surface.obj
 0002:0000a938       ??_C@_0BO@NKDHMDCF@?9?9?9?5MakeDebugPortalSurfs?5?9?9?9?6?$AA@ 00000001400a3938     surface.obj
 0002:0000a958       ??_C@_0N@PDLJFAKL@debugportals?$AA@ 00000001400a3958     surface.obj
 0002:0000a968       ??_C@_0BK@JKFMJHCL@?9?9?9?5MakeFogHullSurfs?5?9?9?9?6?$AA@ 00000001400a3968     surface.obj
 0002:0000a988       ??_C@_0CA@LPJPDLNE@?9?9?9?5AddEntitySurfaceModels?5?9?9?9?6?$AA@ 00000001400a3988     surface.obj
 0002:0000a9a8       ??_C@_0BI@FABDAFBB@?9?9?9?5FixVertexAlpha?5?9?9?9?6?$AA@ 00000001400a39a8     surface.obj
 0002:0000a9c0       ??_C@_0BE@CAGLKDLO@?$CF9d?5vertexes?5fixed?6?$AA@ 00000001400a39c0     surface.obj
 0002:0000a9d8       ??_C@_0BJ@ILHNAHIK@?9?9?9?5ApplyVertexMods?5?9?9?9?6?$AA@ 00000001400a39d8     surface.obj
 0002:0000a9f8       ??_C@_0CB@CDPFBCDK@?9?9?9?5FilterDrawsurfsIntoTree?5?9?9?9?6@ 00000001400a39f8     surface.obj
 0002:0000aa20       ??_C@_0DL@GDEGNMBI@?6WARNING?3?5Potentially?5bad?5?$CFs?5sur@ 00000001400a3a20     surface.obj
 0002:0000aa60       ??_C@_0BA@LKDANFNP@?$CF9d?5references?6?$AA@ 00000001400a3a60     surface.obj
 0002:0000aa70       ??_C@_0O@FGGEBAAJ@?$CF9d?5surfaces?6?$AA@ 00000001400a3a70     surface.obj
 0002:0000aa80       ??_C@_0BP@CCEKGODD@?$CF9d?5skybox?5surfaces?5generated?6?$AA@ 00000001400a3a80     surface.obj
 0002:0000aaa0       ??_C@_0BH@LCKJPNDC@?$CF9d?5emitted?5drawsurfs?6?$AA@ 00000001400a3aa0     surface.obj
 0002:0000aab8       ??_C@_0BM@HPBDBHCF@?$CF9d?5stripped?5face?5surfaces?6?$AA@ 00000001400a3ab8     surface.obj
 0002:0000aad8       ??_C@_0BK@DJKDMKCM@?$CF9d?5fanned?5face?5surfaces?6?$AA@ 00000001400a3ad8     surface.obj
 0002:0000aaf8       ??_C@_0BO@IBDIAOGG@?$CF9d?5surface?5models?5generated?6?$AA@ 00000001400a3af8     surface.obj
 0002:0000ab18       ??_C@_0BB@KCICFIIH@?$CF9d?5?$CFs?5surfaces?6?$AA@ 00000001400a3b18     surface.obj
 0002:0000ab30       ??_C@_0DD@CHJGGNFG@?$CF9d?5redundant?5indexes?5supressed?0@ 00000001400a3b30     surface.obj
 0002:0000ab68       ??_C@_0BH@DKILOFFK@?4?4?2src?2surface_extra?4c?$AA@ 00000001400a3b68     surface_extra.obj
 0002:0000ab80       ??_C@_0BP@EILLNLNL@?9?9?9?5WriteSurfaceExtraFile?5?9?9?9?6?$AA@ 00000001400a3b80     surface_extra.obj
 0002:0000aba0       ??_C@_04FKHEOGOK@?4srf?$AA@ 00000001400a3ba0     surface_extra.obj
 0002:0000aba8       ??_C@_0BN@OEFCJEFF@Error?5opening?5?$CFs?5for?5writing?$AA@ 00000001400a3ba8     surface_extra.obj
 0002:0000abc8       ??_C@_02DPKJAMEF@?$CFd?$AA@ 00000001400a3bc8     surface_extra.obj
 0002:0000abcc       ??_C@_06NKHKFLCF@planar?$AA@ 00000001400a3bcc     surface_extra.obj
 0002:0000abd8       ??_C@_0BH@CFBDBDHG@?5?1?1?5?$CFs?5V?3?5?$CFd?5I?3?5?$CFd?5?$CFs?6?$AA@ 00000001400a3bd8     surface_extra.obj
 0002:0000abf0       ??_C@_0M@MGNLMJNC@?7shader?5?$CFs?6?$AA@ 00000001400a3bf0     surface_extra.obj
 0002:0000ac00       ??_C@_0M@DHPMPICB@?7parent?5?$CFd?6?$AA@ 00000001400a3c00     surface_extra.obj
 0002:0000ac10       ??_C@_0M@ECNDHHLO@?7entity?5?$CFd?6?$AA@ 00000001400a3c10     surface_extra.obj
 0002:0000ac20       ??_C@_0P@EPJKGNEC@?7mapEntity?5?$CFd?6?$AA@ 00000001400a3c20     surface_extra.obj
 0002:0000ac30       ??_C@_0BB@IAFPDFKJ@?7castShadows?5?$CFd?6?$AA@ 00000001400a3c30     surface_extra.obj
 0002:0000ac48       ??_C@_0BE@IBHBIABL@?7receiveShadows?5?$CFd?6?$AA@ 00000001400a3c48     surface_extra.obj
 0002:0000ac60       ??_C@_0BA@LMJLGMFO@?7sampleSize?5?$CFf?6?$AA@ 00000001400a3c60     surface_extra.obj
 0002:0000ac70       ??_C@_0BC@GPMKGGMG@?7longestCurve?5?$CFf?6?$AA@ 00000001400a3c70     surface_extra.obj
 0002:0000ac88       ??_C@_0BM@FCFDGLNP@?7lightmapAxis?5?$CI?5?$CFf?5?$CFf?5?$CFf?5?$CJ?6?$AA@ 00000001400a3c88     surface_extra.obj
 0002:0000aca8       ??_C@_0BA@HEGIPNAK@?7shadeAngle?5?$CFf?6?$AA@ 00000001400a3ca8     surface_extra.obj
 0002:0000acb8       ??_C@_0BD@NMKKKIOJ@?7lightmapStitch?51?6?$AA@ 00000001400a3cb8     surface_extra.obj
 0002:0000acd0       ??_C@_0BH@GNBDKCAP@?7ambient?5?$CI?5?$CFf?5?$CFf?5?$CFf?5?$CJ?6?$AA@ 00000001400a3cd0     surface_extra.obj
 0002:0000ace8       ??_C@_0BI@ILJAMCMN@?7minLight?5?$CI?5?$CFf?5?$CFf?5?$CFf?5?$CJ?6?$AA@ 00000001400a3ce8     surface_extra.obj
 0002:0000ad00       ??_C@_0BO@MKHOJNLH@?7minVertexLight?5?$CI?5?$CFf?5?$CFf?5?$CFf?5?$CJ?6?$AA@ 00000001400a3d00     surface_extra.obj
 0002:0000ad20       ??_C@_0BI@HFEACKOB@?7colorMod?5?$CI?5?$CFf?5?$CFf?5?$CFf?5?$CJ?6?$AA@ 00000001400a3d20     surface_extra.obj
 0002:0000ad38       ??_C@_03LAJGDFPO@?$HN?6?6?$AA@ 00000001400a3d38     surface_extra.obj
 0002:0000ad40       ??_C@_0DA@BKPJADDI@Unable?5to?5find?5surface?5file?5?$CFs?0?5@ 00000001400a3d40     surface_extra.obj
 0002:0000ad70       ??_C@_0DK@OBEKAHMA@ReadSurfaceExtraFile?$CI?$CJ?3?5?$CFs?0?5line@ 00000001400a3d70     surface_extra.obj
 0002:0000adb0       ??_C@_0DB@BLCHPAHK@ReadSurfaceExtraFile?$CI?$CJ?3?5?$CFs?0?5line@ 00000001400a3db0     surface_extra.obj
 0002:0000ade4       ??_C@_06MLKDMCBD@parent?$AA@ 00000001400a3de4     surface_extra.obj
 0002:0000adf0       ??_C@_09BMJANEHP@mapEntity?$AA@ 00000001400a3df0     surface_extra.obj
 0002:0000ae00       ??_C@_0M@IOCKLC@castShadows?$AA@ 00000001400a3e00     surface_extra.obj
 0002:0000ae10       ??_C@_0P@LBHJAKAA@receiveShadows?$AA@ 00000001400a3e10     surface_extra.obj
 0002:0000ae20       ??_C@_0L@KALPCFEC@sampleSize?$AA@ 00000001400a3e20     surface_extra.obj
 0002:0000ae30       ??_C@_0N@BCKPNJFM@longestCurve?$AA@ 00000001400a3e30     surface_extra.obj
 0002:0000ae40       ??_C@_0N@CCKIAFEN@lightmapAxis?$AA@ 00000001400a3e40     surface_extra.obj
 0002:0000ae50       ??_C@_0L@OKAPBEHI@shadeAngle?$AA@ 00000001400a3e50     surface_extra.obj
 0002:0000ae60       ??_C@_0P@MIFMAGJM@lightmapStitch?$AA@ 00000001400a3e60     surface_extra.obj
 0002:0000ae70       ??_C@_08OHCJDHHB@minLight?$AA@ 00000001400a3e70     surface_extra.obj
 0002:0000ae80       ??_C@_0P@ONOGGJPC@minVertexLight?$AA@ 00000001400a3e80     surface_extra.obj
 0002:0000ae90       ??_C@_08GIBBGOMI@colorMod?$AA@ 00000001400a3e90     surface_extra.obj
 0002:0000aea0       ??_C@_0BJ@HFKONJNJ@?4?4?2src?2surface_foliage?4c?$AA@ 00000001400a3ea0     surface_foliage.obj
 0002:0000aec0       ??_C@_0BG@BKBFPIGF@?4?4?2src?2surface_meta?4c?$AA@ 00000001400a3ec0     surface_meta.obj
 0002:0000aed8       ??_C@_0DG@LACJPHCC@MAX_INDEXES?5exceeded?5for?5surface@ 00000001400a3ed8     surface_meta.obj
 0002:0000af10       ??_C@_0BD@EAAFGJBA@?9?9?9?5MetaStats?5?9?9?9?6?$AA@ 00000001400a3f10     surface_meta.obj
 0002:0000af28       ??_C@_0BJ@EBKICDJA@?$CF9d?5total?5meta?5surfaces?6?$AA@ 00000001400a3f28     surface_meta.obj
 0002:0000af48       ??_C@_0BH@PDLEOEGE@?$CF9d?5stripped?5surfaces?6?$AA@ 00000001400a3f48     surface_meta.obj
 0002:0000af60       ??_C@_0BF@HABANEJM@?$CF9d?5fanned?5surfaces?6?$AA@ 00000001400a3f60     surface_meta.obj
 0002:0000af78       ??_C@_0BJ@DMHFCAAA@?$CF9d?5patch?5meta?5surfaces?6?$AA@ 00000001400a3f78     surface_meta.obj
 0002:0000af98       ??_C@_0BA@CENMKLGI@?$CF9d?5meta?5verts?6?$AA@ 00000001400a3f98     surface_meta.obj
 0002:0000afa8       ??_C@_0BE@PDOAIBGI@?$CF9d?5meta?5triangles?6?$AA@ 00000001400a3fa8     surface_meta.obj
 0002:0000afc0       ??_C@_0BF@EFBEJDHO@?$CF9d?5surfaces?5merged?6?$AA@ 00000001400a3fc0     surface_meta.obj
 0002:0000afd8       ??_C@_0BF@GNHCJKMJ@?$CF9d?5vertexes?5merged?6?$AA@ 00000001400a3fd8     surface_meta.obj
 0002:0000aff0       ??_C@_0CB@NCEPKFGG@?9?9?9?5MakeEntityMetaTriangles?5?9?9?9?6@ 00000001400a3ff0     surface_meta.obj
 0002:0000b018       ??_C@_0BN@INOLJKNM@?9?9?9?5SmoothMetaTriangles?5?9?9?9?6?$AA@ 00000001400a4018     surface_meta.obj
 0002:0000b038       ??_C@_0BF@EKKLJKLC@?$CF9d?5smooth?5vertexes?6?$AA@ 00000001400a4038     surface_meta.obj
 0002:0000b050       ??_C@_0BD@GAOGFNMO@?$CF9d?5smooth?5points?6?$AA@ 00000001400a4050     surface_meta.obj
 0002:0000b068       ??_C@_0CC@KAKKOCLM@?$CF7?42f?5average?5vertexes?5per?5point@ 00000001400a4068     surface_meta.obj
 0002:0000b090       ??_C@_0BB@GOHPJIAD@Flipped?5triangle?$AA@ 00000001400a4090     surface_meta.obj
 0002:0000b0a8       ??_C@_08MONGNCLK@DEG?3?$CFd?$CB?5?$AA@ 00000001400a40a8     surface_meta.obj
 0002:0000b0b8       ??_C@_0BM@DJAAGNAN@?9?9?9?5GroupMetaTriangles?5?9?9?9?6?$AA@ 00000001400a40b8     surface_meta.obj
 0002:0000b0d8       ??_C@_0M@KDEMOCMH@?$CF9d?5groups?6?$AA@ 00000001400a40d8     surface_meta.obj
 0002:0000b0e8       ??_C@_0BM@NHMOBBJ@?$CF9d?5max?5triangles?5in?5group?6?$AA@ 00000001400a40e8     surface_meta.obj
 0002:0000b108       ??_C@_0BP@EKBEJNPD@?5?5?5?5?5?5?5?5?5?5ent?$CD?$CFi?5?$CFs?5?9?5?$CFi?5tris?6?$AA@ 00000001400a4108     surface_meta.obj
 0002:0000b128       ??_C@_0BM@HKKMHAHE@?9?9?9?5MergeMetaTriangles?5?9?9?9?6?$AA@ 00000001400a4128     surface_meta.obj
 0002:0000b148       ??_C@_0BC@CLFNCIKI@?$CF9d?5drawsurfaces?6?$AA@ 00000001400a4148     surface_meta.obj
 0002:0000b160       ??_C@_0P@KDDPNAKH@?$CF9d?5drawverts?6?$AA@ 00000001400a4160     surface_meta.obj
 0002:0000b170       ??_C@_0BJ@EDFPEJHA@?$CF9d?5triangles?5processed?6?$AA@ 00000001400a4170     surface_meta.obj
 0002:0000b190       ??_C@_0BD@PDEEHONA@?4?4?2src?2tjunction?4c?$AA@ 00000001400a4190     tjunction.obj
 0002:0000b1a8       ??_C@_0BD@JKJIOPAM@MAX_ORIGINAL_EDGES?$AA@ 00000001400a41a8     tjunction.obj
 0002:0000b1c0       ??_C@_0P@FACBHFHM@MAX_EDGE_LINES?$AA@ 00000001400a41c0     tjunction.obj
 0002:0000b1d0       ??_C@_0BC@DIGPFJJL@MAX_SURFACE_VERTS?$AA@ 00000001400a41d0     tjunction.obj
 0002:0000b1e8       ??_C@_0CM@HDPMFGHP@Degenerate?5T?9junction?5edge?5found@ 00000001400a41e8     tjunction.obj
 0002:0000b218       ??_C@_0BH@CMEAHKME@?9?9?9?5FixTJunctions?5?9?9?9?6?$AA@ 00000001400a4218     tjunction.obj
 0002:0000b230       ??_C@_0BG@FMDHIDOE@?$CF9d?5axial?5edge?5lines?6?$AA@ 00000001400a4230     tjunction.obj
 0002:0000b248       ??_C@_0BK@KIINDCJA@?$CF9d?5non?9axial?5edge?5lines?6?$AA@ 00000001400a4248     tjunction.obj
 0002:0000b268       ??_C@_0BG@LHEIALBH@?$CF9d?5degenerate?5edges?6?$AA@ 00000001400a4268     tjunction.obj
 0002:0000b280       ??_C@_0CB@JGEIJBNL@?$CF9d?5verts?5added?5for?5T?9junctions?6@ 00000001400a4280     tjunction.obj
 0002:0000b2a8       ??_C@_0BB@MKLKLJPM@?$CF9d?5total?5verts?6?$AA@ 00000001400a42a8     tjunction.obj
 0002:0000b2c0       ??_C@_0BH@JMOHGJA@?$CF9d?5naturally?5ordered?6?$AA@ 00000001400a42c0     tjunction.obj
 0002:0000b2d8       ??_C@_0BE@HBIAACA@?$CF9d?5rotated?5orders?6?$AA@ 00000001400a42d8     tjunction.obj
 0002:0000b2f0       ??_C@_0BB@MIEIBCHA@?$CF9d?5can?8t?5order?6?$AA@ 00000001400a42f0     tjunction.obj
 0002:0000b308       ??_C@_0CK@NHGCKLJF@?$CF9d?5broken?5?$CIdegenerate?$CJ?5surfaces@ 00000001400a4308     tjunction.obj
 0002:0000b338       ??_C@_0BA@EHHDFLJA@MAX_MAP_SHADERS?$AA@ 00000001400a4338     writebsp.obj
 0002:0000b348       ??_C@_0CA@PICNNMKM@Shader?5?$CFs?5has?5damage?5shader?5?$CFs?6?$AA@ 00000001400a4348     writebsp.obj
 0002:0000b368       ??_C@_0BA@EBFFOCHJ@?$CF9d?5BSP?5planes?6?$AA@ 00000001400a4368     writebsp.obj
 0002:0000b378       ??_C@_0BM@EHAMEDHH@MAX_MAP_LEAFS?5?$CI?$CFd?$CJ?5exceeded?$AA@ 00000001400a4378     writebsp.obj
 0002:0000b398       ??_C@_0CE@JAEHDLOF@Node?5brush?5list?5corrupted?5?$CI0x?$CF08@ 00000001400a4398     writebsp.obj
 0002:0000b3c0       ??_C@_0BE@LAKFKHIO@MAX_MAP_LEAFBRUSHES?$AA@ 00000001400a43c0     writebsp.obj
 0002:0000b3d8       ??_C@_0BC@CLIHOANB@MAX_MAP_LEAFFACES?$AA@ 00000001400a43d8     writebsp.obj
 0002:0000b3f0       ??_C@_0O@FHHLJHDC@MAX_MAP_NODES?$AA@ 00000001400a43f0     writebsp.obj
 0002:0000b400       ??_C@_0BP@NGOCBDLI@WriteDrawNodes_r?3?5odd?5planenum?$AA@ 00000001400a4400     writebsp.obj
 0002:0000b420       ??_C@_03JLINDLFM@?$CK?$CFi?$AA@ 00000001400a4420     writebsp.obj
 0002:0000b428       ??_C@_0CF@DHMPEIFH@Invalid?5lightstyle?5?$CI?$CFd?$CJ?5on?5entit@ 00000001400a4428     writebsp.obj
 0002:0000b450       ??_C@_0FA@NHKPGDKB@MAX_SWITCHED_LIGHTS?5?$CI?$CFd?$CJ?5exceede@ 00000001400a4450     writebsp.obj
 0002:0000b4a0       ??_C@_0N@OLFKIPC@switch_style?$AA@ 00000001400a44a0     writebsp.obj
 0002:0000b4b0       ??_C@_0BN@BFHDGLD@?$CF9d?5light?5entities?5stripped?6?$AA@ 00000001400a44b0     writebsp.obj
 0002:0000b4d0       ??_C@_0BF@JNDOOKOP@MAX_MAP_BRUSHES?5?$CI?$CFd?$CJ?$AA@ 00000001400a44d0     writebsp.obj
 0002:0000b4e8       ??_C@_0BE@GJPLDAFA@MAX_MAP_BRUSHSIDES?5?$AA@ 00000001400a44e8     writebsp.obj
 0002:0000b500       ??_C@_0BM@NEKDFMNL@Fog?5?$CFd?5has?5visible?5side?5?$CFd?6?$AA@ 00000001400a4500     writebsp.obj
 0002:0000b520       ??_C@_0P@HPIENKFA@MAX_MAP_MODELS?$AA@ 00000001400a4520     writebsp.obj
 0002:0000b530       ??_C@_0DD@LOOFCBHF@BSP?5bounds?3?5?$HL?5?$CF?40f?5?$CF?40f?5?$CF?40f?5?$HN?5?$HL@ 00000001400a4530     writebsp.obj
 0002:0000b568       ??_C@_0DJ@CONNDEDF@Lightgrid?5bounds?3?5?$HL?5?$CF?40f?5?$CF?40f?5?$CF?4@ 00000001400a4568     writebsp.obj
 0002:0000b5a8       ??_C@_0BP@KNHGNODP@Submodel?5?$CFi?5has?5null?5min?1max?$CB?6?$AA@ 00000001400a45a8     writebsp.obj
 0002:0000b5c8       ??_C@_0P@DOPOBHOP@?4?4?2src?2light?4c?$AA@ 00000001400a45c8     light.obj
 0002:0000b5d8       ??_C@_0M@PLELEDPC@lightJunior?$AA@ 00000001400a45d8     light.obj
 0002:0000b5e4       ??_C@_04PLGBOGHH@fade?$AA@ 00000001400a45e4     light.obj
 0002:0000b5f0       ??_C@_0M@HLIAPEDP@_anglescale?$AA@ 00000001400a45f0     light.obj
 0002:0000b600       ??_C@_0L@PEPGHOHM@_deviation?$AA@ 00000001400a4600     light.obj
 0002:0000b610       ??_C@_07KNPMOPLO@_jitter?$AA@ 00000001400a4610     light.obj
 0002:0000b618       ??_C@_0O@NNDACNCF@_filterradius?$AA@ 00000001400a4618     light.obj
 0002:0000b628       ??_C@_0N@IPDBGOD@_filteradius?$AA@ 00000001400a4628     light.obj
 0002:0000b638       ??_C@_07DKMMFJIJ@_filter?$AA@ 00000001400a4638     light.obj
 0002:0000b640       ??_C@_0CL@HEIALICK@Spotlight?5at?5?$CI?$CFf?5?$CFf?5?$CFf?$CJ?5has?5miss@ 00000001400a4640     light.obj
 0002:0000b66c       ??_C@_06KGHINEPG@radius?$AA@ 00000001400a466c     light.obj
 0002:0000b674       ??_C@_04FDFALDBI@_sun?$AA@ 00000001400a4674     light.obj
 0002:0000b680       ??_C@_0N@EOKGJNID@_noshadersun?$AA@ 00000001400a4680     light.obj
 0002:0000b690       ??_C@_08DCIEFEOO@Sun?3?5?$CFs?6?$AA@ 00000001400a4690     light.obj
 0002:0000b6a0       ??_C@_08PJMMNFLH@Sky?3?5?$CFs?6?$AA@ 00000001400a46a0     light.obj
 0002:0000b710       ??_C@_0CC@EJLKMKOK@MAX_LIGHTGRID_AREAS?5reached?5?$CI?$CFi?$CJ@ 00000001400a4710     light.obj
 0002:0000b768       ??_C@_0BC@CNBNCDLG@?$CF9d?5flood?5passes?6?$AA@ 00000001400a4768     light.obj
 0002:0000b780       ??_C@_0BI@GBEGEMCL@?$CF9d?5points?5illuminated?6?$AA@ 00000001400a4780     light.obj
 0002:0000b798       ??_C@_0BF@KPMAGFHK@?$CF9d?5points?5occluded?6?$AA@ 00000001400a4798     light.obj
 0002:0000b7b0       ??_C@_0BE@BJMJGND@?$CF9d?5points?5flooded?6?$AA@ 00000001400a47b0     light.obj
 0002:0000b7c8       ??_C@_0BI@ODBLHODJ@?9?9?9?5IlluminateGrid?5?9?9?9?6?$AA@ 00000001400a47c8     light.obj
 0002:0000b7e0       ??_C@_0CC@DBGOBBEI@?9?9?9?5IlluminateGridByLightmap?5?9?9?9@ 00000001400a47e0     light.obj
 0002:0000b808       ??_C@_0CL@HHONCBHE@Grid?5point?5size?5?$DN?5?$HL?5?$CF1?40f?0?5?$CF1?40f@ 00000001400a4808     light.obj
 0002:0000b838       ??_C@_0BM@NACLPFBJ@Grid?5dimensions?5?$DN?5?$CFix?$CFix?$CFi?6?$AA@ 00000001400a4838     light.obj
 0002:0000b858       ??_C@_0DN@EJKAFNPC@Grid?5block?5?$DN?5?$CFix?$CFix?$CFi?5?$CItotal?5?$CFix@ 00000001400a4858     light.obj
 0002:0000b898       ??_C@_0P@EFLBFLM@?$CF?40f?5?$CF?40f?5?$CF?40f?$AA@ 00000001400a4898     light.obj
 0002:0000b8a8       ??_C@_0BM@LOBFFOAN@Storing?5adjusted?5grid?5size?6?$AA@ 00000001400a48a8     light.obj
 0002:0000b8c8       ??_C@_0BA@NIEMKBAK@?$CF9d?5grid?5areas?6?$AA@ 00000001400a48c8     light.obj
 0002:0000b8d8       ??_C@_0BB@LGFKPBOM@?$CF9d?5grid?5blocks?6?$AA@ 00000001400a48d8     light.obj
 0002:0000b8f0       ??_C@_0BB@JPJPLNEC@?$CF9d?5grid?5points?6?$AA@ 00000001400a48f0     light.obj
 0002:0000b908       ??_C@_0CH@MPJJNOAH@?$CF9d?5grid?5points?5mapped?5?$CI?$CF?42f?5per@ 00000001400a4908     light.obj
 0002:0000b930       ??_C@_0BJ@BMCEAFGE@?$CF9d?5grid?5points?5sampled?6?$AA@ 00000001400a4930     light.obj
 0002:0000b950       ??_C@_0BE@BLIEHFGD@?9?9?9?5LightWorld?5?9?9?9?6?$AA@ 00000001400a4950     light.obj
 0002:0000b968       ??_C@_0N@BDEMPMAL@mingridlight?$AA@ 00000001400a4968     light.obj
 0002:0000b978       ??_C@_0O@LMBMLMCF@_mingridlight?$AA@ 00000001400a4978     light.obj
 0002:0000b988       ??_C@_08MICDMBPG@colormod?$AA@ 00000001400a4988     light.obj
 0002:0000b998       ??_C@_0CG@IPELJGLI@Min?5light?5override?5by?5worldspawn@ 00000001400a4998     light.obj
 0002:0000b9c0       ??_C@_0BK@HPHOFBPL@Min?5light?5?$DN?5?$CI?5?$CFf?5?$CFf?5?$CFf?5?$CJ?6?$AA@ 00000001400a49c0     light.obj
 0002:0000b9e0       ??_C@_0CN@LNPHGDBP@Min?5vertex?5light?5override?5by?5wor@ 00000001400a49e0     light.obj
 0002:0000ba10       ??_C@_0CB@OGOINMIL@Min?5vertex?5light?5?$DN?5?$CI?5?$CFf?5?$CFf?5?$CFf?5?$CJ?6@ 00000001400a4a10     light.obj
 0002:0000ba38       ??_C@_0CL@IEFPKLJH@Min?5grid?5light?5override?5by?5world@ 00000001400a4a38     light.obj
 0002:0000ba68       ??_C@_0BP@MPFMGHDO@Min?5grid?5light?5?$DN?5?$CI?5?$CFf?5?$CFf?5?$CFf?5?$CJ?6?$AA@ 00000001400a4a68     light.obj
 0002:0000ba88       ??_C@_0CK@LHFDEBIJ@Ambient?5light?5override?5by?5worlds@ 00000001400a4a88     light.obj
 0002:0000bab8       ??_C@_0BO@EEMNFIHB@Ambient?5light?5?$DN?5?$CI?5?$CFf?5?$CFf?5?$CFf?5?$CJ?6?$AA@ 00000001400a4ab8     light.obj
 0002:0000bad8       ??_C@_0CM@FKJMNGDJ@Global?5colormod?5override?5by?5worl@ 00000001400a4ad8     light.obj
 0002:0000bb08       ??_C@_0BJ@PCJGLNFA@Colormod?5?$DN?5?$CI?5?$CFf?5?$CFf?5?$CFf?5?$CJ?6?$AA@ 00000001400a4b08     light.obj
 0002:0000bb28       ??_C@_0BG@LJMHHBOG@?9?9?9?5CreateLights?5?9?9?9?6?$AA@ 00000001400a4b28     light.obj
 0002:0000bb40       ??_C@_0CA@IEBMFCNP@?$CF9d?5point?5lightsources?5created?6?$AA@ 00000001400a4b40     light.obj
 0002:0000bb60       ??_C@_0BP@GGDOCGHP@?$CF9d?5spot?5lightsources?5created?6?$AA@ 00000001400a4b60     light.obj
 0002:0000bb80       ??_C@_0CJ@OFHJLEOI@?$CF9d?5diffuse?5?$CIarea?$CJ?5lightsources?5@ 00000001400a4b80     light.obj
 0002:0000bbb0       ??_C@_0CC@OHLKOCOM@?$CF9d?5sun?1sky?5lightsources?5created@ 00000001400a4bb0     light.obj
 0002:0000bbd8       ??_C@_0BH@LLHBNFCL@?9?9?9?5SmoothNormals?5?9?9?9?6?$AA@ 00000001400a4bd8     light.obj
 0002:0000bbf0       ??_C@_0BD@KKDKBAEK@?9?9?9?5SetupGrid?5?9?9?9?6?$AA@ 00000001400a4bf0     light.obj
 0002:0000bc08       ??_C@_0BI@NOFHDAOO@?9?9?9?5MapRawLightmap?5?9?9?9?6?$AA@ 00000001400a4c08     light.obj
 0002:0000bc20       ??_C@_0M@FPHNINJJ@?$CF9d?5luxels?6?$AA@ 00000001400a4c20     light.obj
 0002:0000bc30       ??_C@_0BD@HAJLJECM@?$CF9d?5luxels?5mapped?6?$AA@ 00000001400a4c30     light.obj
 0002:0000bc48       ??_C@_0BF@HDACLKMI@?$CF9d?5luxels?5remapped?6?$AA@ 00000001400a4c48     light.obj
 0002:0000bc60       ??_C@_0BD@CHACCAAN@?$CF9d?5luxels?5nudged?6?$AA@ 00000001400a4c60     light.obj
 0002:0000bc78       ??_C@_0BF@GDLIBKBJ@?$CF9d?5luxels?5occluded?6?$AA@ 00000001400a4c78     light.obj
 0002:0000bc90       ??_C@_0BK@GNJHPHMI@?9?9?9?5DirtyRawLightmap?5?9?9?9?6?$AA@ 00000001400a4c90     light.obj
 0002:0000bcb0       ??_C@_0BP@MILDDOPL@?9?9?9?5IlluminateRawLightmap?5?9?9?9?6?$AA@ 00000001400a4cb0     light.obj
 0002:0000bcd0       ??_C@_0BI@NNKOKFKJ@?$CF9d?5luxels?5illuminated?6?$AA@ 00000001400a4cd0     light.obj
 0002:0000bce8       ??_C@_0BL@DDEONKLG@?9?9?9?5FilterRawLightmap?5?9?9?9?6?$AA@ 00000001400a4ce8     light.obj
 0002:0000bd08       ??_C@_0CB@NOCEBJKE@?$CF9d?5luxels?5marked?5for?5stitching?6@ 00000001400a4d08     light.obj
 0002:0000bd30       ??_C@_0M@CBONGIMK@_luxels?4ase?$AA@ 00000001400a4d30     light.obj
 0002:0000bd40       ??_C@_0BM@GMEMHONI@?9?9?9?5IlluminateVertexes?5?9?9?9?6?$AA@ 00000001400a4d40     light.obj
 0002:0000bd60       ??_C@_0BK@BKACAFCJ@?$CF9d?5vertexes?5illuminated?6?$AA@ 00000001400a4d60     light.obj
 0002:0000bd80       ??_C@_0BJ@JOHBMFEA@?$CF9d?5lights?5plane?5culled?6?$AA@ 00000001400a4d80     light.obj
 0002:0000bda0       ??_C@_0BM@FHJOHCI@?$CF9d?5lights?5envelope?5culled?6?$AA@ 00000001400a4da0     light.obj
 0002:0000bdc0       ??_C@_0BK@KDFDMAFA@?$CF9d?5lights?5bounds?5culled?6?$AA@ 00000001400a4dc0     light.obj
 0002:0000bde0       ??_C@_0BL@HCMLFPLO@?$CF9d?5lights?5cluster?5culled?6?$AA@ 00000001400a4de0     light.obj
 0002:0000be00       ??_C@_0CG@BKLHANGK@?6?9?9?9?5Radiosity?5?$CIbounce?5?$CFd?5of?5?$CFd?$CJ@ 00000001400a4e00     light.obj
 0002:0000be28       ??_C@_0DC@FMLLEJIC@No?5diffuse?5light?5to?5calculate?0?5e@ 00000001400a4e28     light.obj
 0002:0000be60       ??_C@_0BE@CCCJMLMI@?9?9?9?5BounceGrid?5?9?9?9?6?$AA@ 00000001400a4e60     light.obj
 0002:0000be78       ??_C@_0BO@ECOJDBMM@?9?9?9?5LightGridRawLightmap?5?9?9?9?6?$AA@ 00000001400a4e78     light.obj
 0002:0000be98       ??_C@_0P@LOEOOLOK@?9?9?9?5Light?5?9?9?9?6?$AA@ 00000001400a4e98     light.obj
 0002:0000bea8       ??_C@_0BG@KKJFHINF@?5lightning?5model?3?5?$CFs?6?$AA@ 00000001400a4ea8     light.obj
 0002:0000bec0       ??_C@_0CA@PFHAHKAD@?5lightmap?5size?3?5?$CFd?5x?5?$CFd?5pixels?6?$AA@ 00000001400a4ec0     light.obj
 0002:0000bee0       ??_C@_0BG@FCIPLNFH@?5lightning?5gamma?3?5?$CFf?6?$AA@ 00000001400a4ee0     light.obj
 0002:0000bef8       ??_C@_0BN@MMBBKHIG@?5lightning?5compensation?3?5?$CFf?6?$AA@ 00000001400a4ef8     light.obj
 0002:0000bf18       ??_C@_0BJ@PNKEKIJD@?5lightning?5exposure?3?5?$CFf?6?$AA@ 00000001400a4f18     light.obj
 0002:0000bf38       ??_C@_0BO@MOBHBOFM@?5shader?5lightstyles?5hack?3?5?$CFs?6?$AA@ 00000001400a4f38     light.obj
 0002:0000bf58       ??_C@_0BC@BADCBCMC@?5keep?5lights?3?5?$CFs?6?$AA@ 00000001400a4f58     light.obj
 0002:0000bf70       ??_C@_0CA@OCNFIKNI@?5light?5color?5normalization?3?5?$CFs?6?$AA@ 00000001400a4f70     light.obj
 0002:0000bf90       ??_C@_0BK@LJJLLFIB@?5lightmap?5colorspace?3?5?$CFs?6?$AA@ 00000001400a4f90     light.obj
 0002:0000bfb0       ??_C@_0BJ@NKFJAPBM@?5patch?5shadows?3?5enabled?6?$AA@ 00000001400a4fb0     light.obj
 0002:0000bfd0       ??_C@_0BI@OAIKOFCP@tangentspace?5deluxemaps?$AA@ 00000001400a4fd0     light.obj
 0002:0000bfe8       ??_C@_0BG@FDLBHCHG@modelspace?5deluxemaps?$AA@ 00000001400a4fe8     light.obj
 0002:0000c000       ??_C@_0BE@DPANHMFO@?5deluxemapping?3?5?$CFs?6?$AA@ 00000001400a5000     light.obj
 0002:0000c018       ??_C@_0DA@EAGONHBE@?5half?5lambert?5light?5angle?5attenu@ 00000001400a5018     light.obj
 0002:0000c048       ??_C@_06JDINHHNB@?9point?$AA@ 00000001400a5048     light.obj
 0002:0000c050       ??_C@_0M@HIAFNAPE@?9pointscale?$AA@ 00000001400a5050     light.obj
 0002:0000c060       ??_C@_0CK@BGLBAPNI@?5Point?5?$CIentity?$CJ?5light?5scaled?5by?5@ 00000001400a5060     light.obj
 0002:0000c08c       ??_C@_05KCJBCNHD@?9area?$AA@ 00000001400a508c     light.obj
 0002:0000c098       ??_C@_0L@FDDKOGC@?9areascale?$AA@ 00000001400a5098     light.obj
 0002:0000c0a8       ??_C@_0CJ@KHEOKJAJ@?5Area?5?$CIshader?$CJ?5light?5scaled?5by?5?$CF@ 00000001400a50a8     light.obj
 0002:0000c0d4       ??_C@_04MDHJAKFL@?9sky?$AA@ 00000001400a50d4     light.obj
 0002:0000c0e0       ??_C@_09BCHAIGNO@?9skyscale?$AA@ 00000001400a50e0     light.obj
 0002:0000c0f0       ??_C@_0CD@EGLNAPIL@?5Sky?1sun?5light?5scaled?5by?5?$CFf?5to?5?$CF@ 00000001400a50f0     light.obj
 0002:0000c118       ??_C@_0N@IJEOJNFN@?9bouncescale?$AA@ 00000001400a5118     light.obj
 0002:0000c128       ??_C@_0CO@KIGGMABC@?5Bounce?5?$CIradiosity?$CJ?5light?5scaled@ 00000001400a5128     light.obj
 0002:0000c158       ??_C@_0BJ@LMAMHAMF@?5All?5light?5scaled?5by?5?$CFf?6?$AA@ 00000001400a5158     light.obj
 0002:0000c178       ??_C@_0N@HPKLDEEF@?9vertexscale?$AA@ 00000001400a5178     light.obj
 0002:0000c188       ??_C@_0DC@CBHAKNGM@?5Applying?5intensity?5modifier?5?$CFf?5@ 00000001400a5188     light.obj
 0002:0000c1bc       ??_C@_06IIPPDEIJ@?9gamma?$AA@ 00000001400a51bc     light.obj
 0002:0000c1c8       ??_C@_0BL@CFLFEGLH@?5Lighting?5gamma?5set?5to?5?$CFf?6?$AA@ 00000001400a51c8     light.obj
 0002:0000c1e8       ??_C@_09HHDBNFOO@?9exposure?$AA@ 00000001400a51e8     light.obj
 0002:0000c1f8       ??_C@_0BO@KCAJFMDL@?5Lighting?5exposure?5set?5to?5?$CFf?6?$AA@ 00000001400a51f8     light.obj
 0002:0000c218       ??_C@_0M@HHPIODFO@?9compensate?$AA@ 00000001400a5218     light.obj
 0002:0000c228       ??_C@_0CE@EBEELAPN@?5Lighting?5compensation?5set?5to?51?1@ 00000001400a5228     light.obj
 0002:0000c250       ??_C@_0M@ICOLHIPD@?9brightness?$AA@ 00000001400a5250     light.obj
 0002:0000c260       ??_C@_0CA@EMDNLKCF@?5Lighting?5brightness?5set?5to?5?$CFf?6?$AA@ 00000001400a5260     light.obj
 0002:0000c280       ??_C@_07KFPFLCEG@?9bounce?$AA@ 00000001400a5280     light.obj
 0002:0000c288       ??_C@_0CG@BEGBOPL@?5Radiosity?5enabled?5with?5?$CFd?5bounc@ 00000001400a5288     light.obj
 0002:0000c2b0       ??_C@_0N@JLECEAFC@?9supersample?$AA@ 00000001400a52b0     light.obj
 0002:0000c2c0       ??_C@_06EIFHNKCO@?9super?$AA@ 00000001400a52c0     light.obj
 0002:0000c2d0       ??_C@_0EK@CHPBKPGJ@?5Ordered?9grid?5supersampling?5enab@ 00000001400a52d0     light.obj
 0002:0000c320       ??_C@_08BDBAMIIJ@?9samples?$AA@ 00000001400a5320     light.obj
 0002:0000c330       ??_C@_0EG@CGPCKACG@?5Adaptive?5supersampling?5enabled?5@ 00000001400a5330     light.obj
 0002:0000c378       ??_C@_07NELJMPGE@?9filter?$AA@ 00000001400a5378     light.obj
 0002:0000c380       ??_C@_0BN@CJIEMLAD@?5Lightmap?5filtering?5enabled?6?$AA@ 00000001400a5380     light.obj
 0002:0000c3a0       ??_C@_0M@HLGPLMNL@?9shadeangle?$AA@ 00000001400a53a0     light.obj
 0002:0000c3b0       ??_C@_0DM@LMFKIMAO@?5Phong?5shading?5enabled?5with?5a?5br@ 00000001400a53b0     light.obj
 0002:0000c3f0       ??_C@_07HAFHKNCG@?9thresh?$AA@ 00000001400a53f0     light.obj
 0002:0000c3f8       ??_C@_0CE@MHNODEJH@?5Subdivision?5threshold?5set?5at?5?$CF?4@ 00000001400a53f8     light.obj
 0002:0000c420       ??_C@_07ECMEOKLK@?9approx?$AA@ 00000001400a5420     light.obj
 0002:0000c428       ??_C@_0DI@GJCDJOFG@?5Approximating?5lightmaps?5within?5@ 00000001400a5428     light.obj
 0002:0000c460       ??_C@_08EIJEOFCB@?9ambient?$AA@ 00000001400a5460     light.obj
 0002:0000c470       ??_C@_0CH@GCLLNCAJ@?5Ambient?5lighting?5set?5to?5?$CI?5?$CFf?5?$CFf@ 00000001400a5470     light.obj
 0002:0000c498       ??_C@_09FPKFMGPP@?9minlight?$AA@ 00000001400a5498     light.obj
 0002:0000c4a8       ??_C@_0CD@NHGMGELA@?5Min?5lighting?5set?5to?5?$CI?5?$CFf?5?$CFf?5?$CFf?5@ 00000001400a54a8     light.obj
 0002:0000c4d0       ??_C@_0L@NBPMIDNM@?9minvertex?$AA@ 00000001400a54d0     light.obj
 0002:0000c4e0       ??_C@_0CK@POCHAHCL@?5Min?5vertex?5lighting?5set?5to?5?$CI?5?$CFf@ 00000001400a54e0     light.obj
 0002:0000c510       ??_C@_08KBMFMBJF@?9mingrid?$AA@ 00000001400a5510     light.obj
 0002:0000c520       ??_C@_0CI@PIOGGKAF@?5Min?5grid?5lighting?5set?5to?5?$CI?5?$CFf?5?$CF@ 00000001400a5520     light.obj
 0002:0000c548       ??_C@_09HHADDFEO@?9colormod?$AA@ 00000001400a5548     light.obj
 0002:0000c558       ??_C@_0CG@DDCJKCOE@?5Global?5colormod?5set?5to?5?$CI?5?$CFf?5?$CFf?5@ 00000001400a5558     light.obj
 0002:0000c580       ??_C@_09EEFKHBOB@?9gridsize?$AA@ 00000001400a5580     light.obj
 0002:0000c590       ??_C@_0CF@DOHHHAAL@?5Lightgrid?5size?5set?5to?5?$HL?5?$CFf?5?$CFf?5?$CF@ 00000001400a5590     light.obj
 0002:0000c5b8       ??_C@_0BB@BDDFJDGA@?9gridsupersample?$AA@ 00000001400a55b8     light.obj
 0002:0000c5d0       ??_C@_0L@ONAJAM@?9gridsuper?$AA@ 00000001400a55d0     light.obj
 0002:0000c5e0       ??_C@_0ED@EDOMJOKF@?5Lightgrid?5supersampling?5enabled@ 00000001400a55e0     light.obj
 0002:0000c628       ??_C@_0BC@GBKGNIHC@?9gridfromlightmap?$AA@ 00000001400a5628     light.obj
 0002:0000c640       ??_C@_0CB@HEJCMAEC@?5Sample?5lightgrid?5from?5lightmap?6@ 00000001400a5640     light.obj
 0002:0000c668       ??_C@_0L@ICFEBGMM@?9debuggrid?$AA@ 00000001400a5668     light.obj
 0002:0000c678       ??_C@_0DP@IMNABFMI@?5Lightgrid?5debugging?5enabled?5?$CIsa@ 00000001400a5678     light.obj
 0002:0000c6b8       ??_C@_09ICEBLBEE@?9gridonly?$AA@ 00000001400a56b8     light.obj
 0002:0000c6d0       ??_C@_0EH@HIOLJHHN@?5Sample?5lightmap?5and?5vertex?5colo@ 00000001400a56d0     light.obj
 0002:0000c718       ??_C@_07JNCFMNOG@?9deluxe?$AA@ 00000001400a5718     light.obj
 0002:0000c720       ??_C@_0L@DHFJCGPE@?9deluxemap?$AA@ 00000001400a5720     light.obj
 0002:0000c730       ??_C@_0DE@JNNKFNGD@?5Generating?5deluxemaps?5for?5avera@ 00000001400a5730     light.obj
 0002:0000c768       ??_C@_0O@MCKOHNPO@?9tangentspace?$AA@ 00000001400a5768     light.obj
 0002:0000c778       ??_C@_0CH@HBHOEJOE@?5Deluxemaps?5using?5tangentspace?5c@ 00000001400a5778     light.obj
 0002:0000c7a0       ??_C@_0M@MJGPNKPP@?9modelspace?$AA@ 00000001400a57a0     light.obj
 0002:0000c7b0       ??_C@_0CF@DGDHPIEB@?5Deluxemaps?5using?5modelspace?5coo@ 00000001400a57b0     light.obj
 0002:0000c7d8       ??_C@_09FODHGNDP@?9nodeluxe?$AA@ 00000001400a57d8     light.obj
 0002:0000c7e8       ??_C@_0N@OILPOFCJ@?9nodeluxemap?$AA@ 00000001400a57e8     light.obj
 0002:0000c800       ??_C@_0EB@JIHJIEPF@?5Disabling?5generating?5of?5deluxem@ 00000001400a5800     light.obj
 0002:0000c848       ??_C@_09FHDPINNF@?9external?$AA@ 00000001400a5848     light.obj
 0002:0000c858       ??_C@_0CD@NBOOMDGC@?5Storing?5all?5lightmaps?5externall@ 00000001400a5858     light.obj
 0002:0000c880       ??_C@_0CK@CIAMIAPO@?5Storing?5all?5external?5lightmaps?5@ 00000001400a5880     light.obj
 0002:0000c8b0       ??_C@_0O@GLOCDHBD@?9lightmapsrgb?$AA@ 00000001400a58b0     light.obj
 0002:0000c8c0       ??_C@_0CK@BEFJEBOE@?5Generating?5lightmaps?5in?5sRGB?5co@ 00000001400a58c0     light.obj
 0002:0000c8f0       ??_C@_0N@PFPMBFJP@?9lightmaprgb?$AA@ 00000001400a58f0     light.obj
 0002:0000c900       ??_C@_0DA@NBHKNFKP@?5Generating?5lightmaps?5in?5linear?5@ 00000001400a5900     light.obj
 0002:0000c930       ??_C@_05KPNCGNFL@?9wolf?$AA@ 00000001400a5930     light.obj
 0002:0000c938       ??_C@_0DA@HABCLNKE@?5Enabling?5Wolf?5lighting?5model?5?$CIl@ 00000001400a5938     light.obj
 0002:0000c968       ??_C@_0L@BOELNPFK@?9colornorm?$AA@ 00000001400a5968     light.obj
 0002:0000c978       ??_C@_0CF@FOJEOHLF@?5Enabling?5light?5color?5normalizat@ 00000001400a5978     light.obj
 0002:0000c9a0       ??_C@_0N@MBKNBMIH@?9nocolornorm?$AA@ 00000001400a59a0     light.obj
 0002:0000c9b0       ??_C@_0CG@DILLPCON@?5Disabling?5light?5color?5normaliza@ 00000001400a59b0     light.obj
 0002:0000c9d8       ??_C@_03CNLLDAFH@?9q3?$AA@ 00000001400a59d8     light.obj
 0002:0000c9e0       ??_C@_0DG@GMGMIJNA@?5Enabling?5Quake?53?5lighting?5model@ 00000001400a59e0     light.obj
 0002:0000ca18       ??_C@_08LLJCBJCH@?9sunonly?$AA@ 00000001400a5a18     light.obj
 0002:0000ca28       ??_C@_0BK@GJCJCPDN@?5Only?5computing?5sunlight?6?$AA@ 00000001400a5a28     light.obj
 0002:0000ca48       ??_C@_0M@MIHJPPFH@?9bounceonly?$AA@ 00000001400a5a48     light.obj
 0002:0000ca58       ??_C@_0CJ@JBGLILMJ@?5Storing?5bounced?5light?5?$CIradiosit@ 00000001400a5a58     light.obj
 0002:0000ca88       ??_C@_0M@POKPFAAJ@?9nocollapse?$AA@ 00000001400a5a88     light.obj
 0002:0000ca98       ??_C@_0CJ@KBMCLJNB@?5Identical?5lightmap?5collapsing?5d@ 00000001400a5a98     light.obj
 0002:0000cac4       ??_C@_06DMMDFHEG@?9shade?$AA@ 00000001400a5ac4     light.obj
 0002:0000cad0       ??_C@_0BI@LOKEJED@?5Phong?5shading?5enabled?6?$AA@ 00000001400a5ad0     light.obj
 0002:0000cae8       ??_C@_0M@BLGBPCEG@?9bouncegrid?$AA@ 00000001400a5ae8     light.obj
 0002:0000caf8       ??_C@_0CH@IBKNAENF@?5Grid?5lighting?5with?5radiosity?5en@ 00000001400a5af8     light.obj
 0002:0000cb20       ??_C@_07BHLPKHMJ@?9smooth?$AA@ 00000001400a5b20     light.obj
 0002:0000cb28       ??_C@_0DP@HCCDPLKG@?5The?5?9smooth?5argument?5is?5depreca@ 00000001400a5b28     light.obj
 0002:0000cb68       ??_C@_0BE@IPGKOOKJ@?5Fast?5mode?5enabled?6?$AA@ 00000001400a5b68     light.obj
 0002:0000cb80       ??_C@_07NKFKENFK@?9faster?$AA@ 00000001400a5b80     light.obj
 0002:0000cb88       ??_C@_0BG@NAKLDPKK@?5Faster?5mode?5enabled?6?$AA@ 00000001400a5b88     light.obj
 0002:0000cba0       ??_C@_09HEGOFPMF@?9fastgrid?$AA@ 00000001400a5ba0     light.obj
 0002:0000cbb0       ??_C@_0BN@CGMOFKAL@?5Fast?5grid?5lighting?5enabled?6?$AA@ 00000001400a5bb0     light.obj
 0002:0000cbd0       ??_C@_0M@DIJPFFJO@?9fastbounce?$AA@ 00000001400a5bd0     light.obj
 0002:0000cbe0       ??_C@_0BL@PDDKBMCE@?5Fast?5bounce?5mode?5enabled?6?$AA@ 00000001400a5be0     light.obj
 0002:0000cc00       ??_C@_0L@KBJMPMDB@?9normalmap?$AA@ 00000001400a5c00     light.obj
 0002:0000cc10       ??_C@_0CJ@CIPFFJKA@?5Storing?5normal?5map?5instead?5of?5l@ 00000001400a5c10     light.obj
 0002:0000cc40       ??_C@_08LGGMCAFI@?9trisoup?$AA@ 00000001400a5c40     light.obj
 0002:0000cc50       ??_C@_0CK@DCNAHHP@?5Converting?5brush?5faces?5to?5trian@ 00000001400a5c50     light.obj
 0002:0000cc7c       ??_C@_06OHOHKFPP@?9debug?$AA@ 00000001400a5c7c     light.obj
 0002:0000cc88       ??_C@_0BN@OEBCDOGP@?5Lightmap?5debugging?5enabled?6?$AA@ 00000001400a5c88     light.obj
 0002:0000cca8       ??_C@_0O@BHCNJFAG@?9debugsurface?$AA@ 00000001400a5ca8     light.obj
 0002:0000ccb8       ??_C@_0CF@KFHJMBDE@?5Lightmap?5surface?5debugging?5enab@ 00000001400a5cb8     light.obj
 0002:0000cce0       ??_C@_0N@DAJNFCIN@?9debugunused?$AA@ 00000001400a5ce0     light.obj
 0002:0000ccf0       ??_C@_0CB@HGFFHNBA@?5Unused?5luxel?5debugging?5enabled?6@ 00000001400a5cf0     light.obj
 0002:0000cd18       ??_C@_0L@GHCKIHJO@?9debugaxis?$AA@ 00000001400a5d18     light.obj
 0002:0000cd28       ??_C@_0CC@EHIPIBKD@?5Lightmap?5axis?5debugging?5enabled@ 00000001400a5d28     light.obj
 0002:0000cd50       ??_C@_0O@EKBMAKPD@?9debugcluster?$AA@ 00000001400a5d50     light.obj
 0002:0000cd60       ??_C@_0CC@KKPLNIDH@?5Luxel?5cluster?5debugging?5enabled@ 00000001400a5d60     light.obj
 0002:0000cd88       ??_C@_0N@OLJPIEI@?9debugorigin?$AA@ 00000001400a5d88     light.obj
 0002:0000cd98       ??_C@_0CB@DKKMPEFP@?5Luxel?5origin?5debugging?5enabled?6@ 00000001400a5d98     light.obj
 0002:0000cdc0       ??_C@_0N@GBPPDHMO@?9debugstitch?$AA@ 00000001400a5dc0     light.obj
 0002:0000cdd0       ??_C@_0CE@BMNJFHEI@?5Luxel?5stitching?5debugging?5enabl@ 00000001400a5dd0     light.obj
 0002:0000cdf8       ??_C@_0BC@LDMHNNFL@?9debugrawlightmap?$AA@ 00000001400a5df8     light.obj
 0002:0000ce10       ??_C@_0CC@DKBKNEIM@?5Raw?5lightmaps?5debugging?5enabled@ 00000001400a5e10     light.obj
 0002:0000ce38       ??_C@_0N@NOINJOHJ@?9debugdeluxe?$AA@ 00000001400a5e38     light.obj
 0002:0000ce48       ??_C@_0BO@NFIMBGIH@?5Deluxemap?5debugging?5enabled?6?$AA@ 00000001400a5e48     light.obj
 0002:0000ce68       ??_C@_0P@NOBMENJG@?9debuglightmap?$AA@ 00000001400a5e68     light.obj
 0002:0000ce78       ??_C@_0BA@BNKAAAAJ@?9debuglightmaps?$AA@ 00000001400a5e78     light.obj
 0002:0000ce88       ??_C@_0DO@BNNAIAKF@?5Lightmap?5debugging?5enabled?0?5gen@ 00000001400a5e88     light.obj
 0002:0000cec8       ??_C@_0BG@LNMECMAF@?5Exporting?5lightmaps?6?$AA@ 00000001400a5ec8     light.obj
 0002:0000cee0       ??_C@_08BAPHIGKF@?9notrace?$AA@ 00000001400a5ee0     light.obj
 0002:0000cef0       ??_C@_0BM@GGDENAAN@?5Shadow?5occlusion?5disabled?6?$AA@ 00000001400a5ef0     light.obj
 0002:0000cf10       ??_C@_0N@HFPEHEFN@?9notracegrid?$AA@ 00000001400a5f10     light.obj
 0002:0000cf20       ??_C@_0CK@MAJJGINA@?5Shadow?5occlusion?5for?5lightgrid?5@ 00000001400a5f20     light.obj
 0002:0000cf50       ??_C@_0O@MNDMEFNA@?9patchshadows?$AA@ 00000001400a5f50     light.obj
 0002:0000cf60       ??_C@_0BP@OMBCAONB@?5Patch?5shadow?5casting?5enabled?6?$AA@ 00000001400a5f60     light.obj
 0002:0000cf80       ??_C@_06JCKMJMCJ@?9extra?$AA@ 00000001400a5f80     light.obj
 0002:0000cf88       ??_C@_0DM@LKKDLPPG@?5The?5?9extra?5argument?5is?5deprecat@ 00000001400a5f88     light.obj
 0002:0000cfc8       ??_C@_0L@GPAINIOF@?9extrawide?$AA@ 00000001400a5fc8     light.obj
 0002:0000cfe0       ??_C@_0EK@PIEKJGKB@?5The?5?9extrawide?5argument?5is?5depr@ 00000001400a5fe0     light.obj
 0002:0000d030       ??_C@_0DC@GDOMMIAB@?5Default?5lightmap?5sample?5size?5se@ 00000001400a6030     light.obj
 0002:0000d068       ??_C@_0N@MFNOFNJL@?9samplescale?$AA@ 00000001400a6068     light.obj
 0002:0000d078       ??_C@_0CF@DDGDAANG@?5Lightmaps?5sample?5scale?5set?5to?5?$CF@ 00000001400a6078     light.obj
 0002:0000d0a0       ??_C@_09CCIIPCGB@?9novertex?$AA@ 00000001400a60a0     light.obj
 0002:0000d0b0       ??_C@_0BM@MJEIFINK@?5Disabling?5vertex?5lighting?6?$AA@ 00000001400a60b0     light.obj
 0002:0000d0d0       ??_C@_07HGDGEAGA@?9nogrid?$AA@ 00000001400a60d0     light.obj
 0002:0000d0d8       ??_C@_0BK@ICGIIJEF@?5Disabling?5grid?5lighting?6?$AA@ 00000001400a60d8     light.obj
 0002:0000d0f8       ??_C@_07HJGGHGBG@?9border?$AA@ 00000001400a60f8     light.obj
 0002:0000d100       ??_C@_0CD@CMEDBACA@?5Adding?5debug?5border?5to?5lightmap@ 00000001400a6100     light.obj
 0002:0000d128       ??_C@_07FMMEGHII@?9nosurf?$AA@ 00000001400a6128     light.obj
 0002:0000d130       ??_C@_0BP@KPODPLJB@?5Not?5tracing?5against?5surfaces?6?$AA@ 00000001400a6130     light.obj
 0002:0000d150       ??_C@_07CCFHGEFB@?9stitch?$AA@ 00000001400a6150     light.obj
 0002:0000d158       ??_C@_0CE@OPDKFHAN@?5Enable?5stitching?5on?5all?5lightma@ 00000001400a6158     light.obj
 0002:0000d180       ??_C@_09OBEFMEII@?9nostitch?$AA@ 00000001400a6180     light.obj
 0002:0000d190       ??_C@_0BN@OEDOAOCC@?5Disable?5lightmap?5stitching?6?$AA@ 00000001400a6190     light.obj
 0002:0000d1b0       ??_C@_05KKGMOIBC@?9dump?$AA@ 00000001400a61b0     light.obj
 0002:0000d1b8       ??_C@_0DB@ECJKLCNK@?5Dumping?5radiosity?5lights?5into?5n@ 00000001400a61b8     light.obj
 0002:0000d1ec       ??_C@_06PPKOGEJP@?9lomem?$AA@ 00000001400a61ec     light.obj
 0002:0000d1f8       ??_C@_0CN@HEHBCEAK@?5Enabling?5low?9memory?5?$CIslower?$CJ?5li@ 00000001400a61f8     light.obj
 0002:0000d228       ??_C@_09FEFDGHC@?9lomemsky?$AA@ 00000001400a6228     light.obj
 0002:0000d238       ??_C@_0DL@DPLHJGKD@?5Enabling?5low?9memory?5?$CIslower?$CJ?5li@ 00000001400a6238     light.obj
 0002:0000d278       ??_C@_0O@GOHHGFFA@?9lightanglehl?$AA@ 00000001400a6278     light.obj
 0002:0000d288       ??_C@_0DA@LIDEJDIE@?5Enabling?5half?5lambert?5light?5ang@ 00000001400a6288     light.obj
 0002:0000d2b8       ??_C@_0DB@PAACABAH@?5Disabling?5half?5lambert?5light?5an@ 00000001400a62b8     light.obj
 0002:0000d2f0       ??_C@_08BMEDHLPA@?9nostyle?$AA@ 00000001400a62f0     light.obj
 0002:0000d300       ??_C@_09LJLDJLFC@?9nostyles?$AA@ 00000001400a6300     light.obj
 0002:0000d310       ??_C@_0BI@HECAPJJA@?5Disabling?5lightstyles?6?$AA@ 00000001400a6310     light.obj
 0002:0000d328       ??_C@_06CGNADAN@?9style?$AA@ 00000001400a6328     light.obj
 0002:0000d330       ??_C@_07HKKBDLIL@?9styles?$AA@ 00000001400a6330     light.obj
 0002:0000d338       ??_C@_0BH@NCKMOGMJ@?5Enabling?5lightstyles?6?$AA@ 00000001400a6338     light.obj
 0002:0000d350       ??_C@_0M@BNKMIOLO@?9keeplights?$AA@ 00000001400a6350     light.obj
 0002:0000d360       ??_C@_0CO@LGJBHEKB@?5Leaving?5light?5entities?5on?5map?5a@ 00000001400a6360     light.obj
 0002:0000d390       ??_C@_05HMELOHCA@?9cpma?$AA@ 00000001400a6390     light.obj
 0002:0000d3a0       ??_C@_0ED@IBFKKLPF@?5Enabling?5Challenge?5Pro?5Mode?5Ass@ 00000001400a63a0     light.obj
 0002:0000d3e8       ??_C@_0M@MEJEPMFK@?9floodlight?$AA@ 00000001400a63e8     light.obj
 0002:0000d3f8       ??_C@_0BI@DNKHCINN@?5FloodLighting?5enabled?6?$AA@ 00000001400a63f8     light.obj
 0002:0000d410       ??_C@_0O@FDCJLBIH@?9debugnormals?$AA@ 00000001400a6410     light.obj
 0002:0000d420       ??_C@_0BH@OEMDJPEI@?5DebugNormals?5enabled?6?$AA@ 00000001400a6420     light.obj
 0002:0000d438       ??_C@_0M@EGLPIEBD@?9lowquality?$AA@ 00000001400a6438     light.obj
 0002:0000d448       ??_C@_0CE@NHNBGNGG@?5Low?5Quality?5FloodLighting?5enabl@ 00000001400a6448     light.obj
 0002:0000d46c       ??_C@_06KHINEKIJ@?9dirty?$AA@ 00000001400a646c     light.obj
 0002:0000d474       ??_C@_03CHJDIBHP@?9ao?$AA@ 00000001400a6474     light.obj
 0002:0000d478       ??_C@_0BG@BKMGILLH@?5Dirtmapping?5enabled?6?$AA@ 00000001400a6478     light.obj
 0002:0000d490       ??_C@_07OMDPLEOO@?9nodirt?$AA@ 00000001400a6490     light.obj
 0002:0000d498       ??_C@_05BLDILALC@?9noao?$AA@ 00000001400a6498     light.obj
 0002:0000d4a0       ??_C@_0BH@OGMKKAFM@?5Dirtmapping?5disabled?6?$AA@ 00000001400a64a0     light.obj
 0002:0000d4b8       ??_C@_0L@CMPAKAMB@?9dirtdebug?$AA@ 00000001400a64b8     light.obj
 0002:0000d4c8       ??_C@_0L@BIFNOCEC@?9debugdirt?$AA@ 00000001400a64c8     light.obj
 0002:0000d4d8       ??_C@_08JOOIJLIN@?9debugao?$AA@ 00000001400a64d8     light.obj
 0002:0000d4e8       ??_C@_08CAOJMPKO@?9aodebug?$AA@ 00000001400a64e8     light.obj
 0002:0000d4f8       ??_C@_0BM@BGEFPKDK@?5Dirtmap?5debugging?5enabled?6?$AA@ 00000001400a64f8     light.obj
 0002:0000d518       ??_C@_09NGAKFCLD@?9dirtmode?$AA@ 00000001400a6518     light.obj
 0002:0000d528       ??_C@_07HJHOAFHI@?9aomode?$AA@ 00000001400a6528     light.obj
 0002:0000d530       ??_C@_0BL@GIEBMMEE@?5Dirtmap?5mode?5set?5to?5?8?$CFs?8?6?$AA@ 00000001400a6530     light.obj
 0002:0000d550       ??_C@_0L@FALKEJCN@?9dirtdepth?$AA@ 00000001400a6550     light.obj
 0002:0000d560       ??_C@_08FMKDCGEC@?9aodepth?$AA@ 00000001400a6560     light.obj
 0002:0000d570       ??_C@_0CA@JJMACEFL@?5Dirtmapping?5depth?5set?5to?5?$CF?41f?6?$AA@ 00000001400a6570     light.obj
 0002:0000d590       ??_C@_0BD@GPMJAPFK@?9dirtdepthexponent?$AA@ 00000001400a6590     light.obj
 0002:0000d5a8       ??_C@_0BB@PKNFDPBD@?9aodepthexponent?$AA@ 00000001400a65a8     light.obj
 0002:0000d5c0       ??_C@_0CJ@KMEAKFI@?5Dirtmapping?5depth?5exponent?5set?5@ 00000001400a65c0     light.obj
 0002:0000d5f0       ??_C@_0L@IOBHDCNB@?9dirtscale?$AA@ 00000001400a65f0     light.obj
 0002:0000d600       ??_C@_08ICAOFNLO@?9aoscale?$AA@ 00000001400a6600     light.obj
 0002:0000d610       ??_C@_0CA@DHANKJHM@?5Dirtmapping?5scale?5set?5to?5?$CF?41f?6?$AA@ 00000001400a6610     light.obj
 0002:0000d630       ??_C@_0P@IEACICEM@?9dirtscalemask?$AA@ 00000001400a6630     light.obj
 0002:0000d640       ??_C@_0N@DGHKAMDH@?9aoscalemask?$AA@ 00000001400a6640     light.obj
 0002:0000d650       ??_C@_0DC@CBAMMFFB@?5Dirtmapping?5scale?5mask?5set?5to?5?$CF@ 00000001400a6650     light.obj
 0002:0000d688       ??_C@_09JHEJHHLJ@?9dirtgain?$AA@ 00000001400a6688     light.obj
 0002:0000d698       ??_C@_07DIDNCAHC@?9aogain?$AA@ 00000001400a6698     light.obj
 0002:0000d6a0       ??_C@_0BP@GBONCEJG@?5Dirtmapping?5gain?5set?5to?5?$CF?41f?6?$AA@ 00000001400a66a0     light.obj
 0002:0000d6c0       ??_C@_0O@EMJCMKJB@?9dirtgainmask?$AA@ 00000001400a66c0     light.obj
 0002:0000d6d0       ??_C@_0M@IJBHJJCI@?9aogainmask?$AA@ 00000001400a66d0     light.obj
 0002:0000d6e0       ??_C@_0DB@BLMEBGEG@?5Dirtmapping?5gain?5mask?5set?5to?5?$CF1@ 00000001400a66e0     light.obj
 0002:0000d718       ??_C@_0M@BFBDMFMK@?9dirtfilter?$AA@ 00000001400a6718     light.obj
 0002:0000d728       ??_C@_09MIBCKAGM@?9aofilter?$AA@ 00000001400a6728     light.obj
 0002:0000d738       ??_C@_0CB@PIEHHLEJ@?5Dirtmapping?5filter?5set?5to?5?8?$CFs?8?6@ 00000001400a6738     light.obj
 0002:0000d760       ??_C@_0M@DEINPAOH@?9nodeviance?$AA@ 00000001400a6760     light.obj
 0002:0000d770       ??_C@_0BL@MGOANENH@?5Disable?5light?8s?5deviance?6?$AA@ 00000001400a6770     light.obj
 0002:0000d790       ??_C@_09LCKBOOEL@?9deviance?$AA@ 00000001400a6790     light.obj
 0002:0000d7a0       ??_C@_0CG@CIIJLELD@?5Default?5deviance?5jitter?5set?5to?5@ 00000001400a67a0     light.obj
 0002:0000d7c8       ??_C@_0BB@OJCGCNGK@?9deviancesamples?$AA@ 00000001400a67c8     light.obj
 0002:0000d7e0       ??_C@_0CF@MGNLOFBN@?5Default?5deviance?5samples?5set?5to@ 00000001400a67e0     light.obj
 0002:0000d808       ??_C@_0BG@LLFPCFMK@?9deviancesamplesscale?$AA@ 00000001400a6808     light.obj
 0002:0000d820       ??_C@_0CD@CPINGOPB@?5Deviance?5samples?5scale?5set?5to?5?$CF@ 00000001400a6820     light.obj
 0002:0000d848       ??_C@_0O@IPALLBPC@?9devianceform?$AA@ 00000001400a6848     light.obj
 0002:0000d858       ??_C@_0BL@DMFDJMHL@?5Deviance?5form?5set?5to?5box?6?$AA@ 00000001400a6858     light.obj
 0002:0000d878       ??_C@_0BO@DLMEPEBG@?5Deviance?5form?5set?5to?5sphere?6?$AA@ 00000001400a6878     light.obj
 0002:0000d898       ??_C@_0P@IJAPEGOH@?9devianceatten?$AA@ 00000001400a6898     light.obj
 0002:0000d8a8       ??_C@_0DI@GMDKNMIM@?5Deviance?5using?5no?5attenuation?5f@ 00000001400a68a8     light.obj
 0002:0000d8e0       ??_C@_0EE@HBBNEEFJ@?5Deviance?5using?5inverse?5square?5a@ 00000001400a68e0     light.obj
 0002:0000d928       ??_C@_0BG@MEDJKPPG@Unknown?5argument?5?$CC?$CFs?$CC?$AA@ 00000001400a6928     light.obj
 0002:0000d940       ??_C@_01FDFGLJHB@2?$AA@    00000001400a6940     light.obj
 0002:0000d948       ??_C@_0L@OJPIMHIH@deluxeMaps?$AA@ 00000001400a6948     light.obj
 0002:0000d954       ??_C@_01GBGANLPD@0?$AA@    00000001400a6954     light.obj
 0002:0000d958       ??_C@_0N@MCEIMNKJ@lightmapsRGB?$AA@ 00000001400a6958     light.obj
 0002:0000d968       ??_C@_0DA@MNNIKKBA@RadClipWindingEpsilon?3?5points?5ex@ 00000001400a6968     light_bounce.obj
 0002:0000d998       ??_C@_0CN@PMNFADAP@RadClipWindingEpsilon?3?5MAX_POINT@ 00000001400a6998     light_bounce.obj
 0002:0000d9c8       ??_C@_0BG@CJDHAFAF@?4?4?2src?2light_bounce?4c?$AA@ 00000001400a69c8     light_bounce.obj
 0002:0000d9e0       ??_C@_0CA@HHDPONEM@?9?9?9?5RadCreateDiffuseLights?5?9?9?9?6?$AA@ 00000001400a69e0     light_bounce.obj
 0002:0000da00       ??_C@_0BB@CIIJLNEN@_bounce_?$CF03d?4map?$AA@ 00000001400a6a00     light_bounce.obj
 0002:0000da18       ??_C@_0P@FLEPLLPM@Writing?5?$CFs?4?4?4?6?$AA@ 00000001400a6a18     light_bounce.obj
 0002:0000da30       ??_C@_0FK@JFKGGKPJ@?$HL?6?$CCclassname?$CC?5?$CClight?$CC?6?$CClight?$CC?5?$CC?$CF@ 00000001400a6a30     light_bounce.obj
 0002:0000da90       ??_C@_0BG@JNALCHLH@?$CF8d?5diffuse?5surfaces?6?$AA@ 00000001400a6a90     light_bounce.obj
 0002:0000daa8       ??_C@_0BK@BFAAGACK@?$CF8d?5total?5diffuse?5lights?6?$AA@ 00000001400a6aa8     light_bounce.obj
 0002:0000dac8       ??_C@_0BK@CEAKDNOP@?$CF8d?5brush?5diffuse?5lights?6?$AA@ 00000001400a6ac8     light_bounce.obj
 0002:0000dae8       ??_C@_0BK@OFHCCOGN@?$CF8d?5patch?5diffuse?5lights?6?$AA@ 00000001400a6ae8     light_bounce.obj
 0002:0000db08       ??_C@_0BN@BNCAPJD@?$CF8d?5triangle?5diffuse?5lights?6?$AA@ 00000001400a6b08     light_bounce.obj
 0002:0000db28       ??_C@_0BF@PKAOOALA@?4?4?2src?2light_trace?4c?$AA@ 00000001400a6b28     light_trace.obj
 0002:0000db40       ??_C@_0BL@CGAOJCHK@MAX_TW_VERTS?5?$CI?$CFd?$CJ?5exceeded?$AA@ 00000001400a6b40     light_trace.obj
 0002:0000db60       ??_C@_0BG@FCDENLGL@Invalid?5tracenode?3?5?$CFd?$AA@ 00000001400a6b60     light_trace.obj
 0002:0000db78       ??_C@_06LNKHAAKC@model2?$AA@ 00000001400a6b78     light_trace.obj
 0002:0000db80       ??_C@_06CGNNJAN@frame2?$AA@ 00000001400a6b80     light_trace.obj
 0002:0000db88       ??_C@_07HGCFDIHA@_frame2?$AA@ 00000001400a6b88     light_trace.obj
 0002:0000db90       ??_C@_05MEHOGNLN@skin2?$AA@ 00000001400a6b90     light_trace.obj
 0002:0000db98       ??_C@_06DNENIKDO@_skin2?$AA@ 00000001400a6b98     light_trace.obj
 0002:0000dba0       ??_C@_0BJ@PPIDGCBJ@?9?9?9?5SetupTraceNodes?5?9?9?9?6?$AA@ 00000001400a6ba0     light_trace.obj
 0002:0000dbc0       ??_C@_0BN@OAPBKGEI@?$CF9d?5trace?5windings?5?$CI?$CF?42fMB?$CJ?6?$AA@ 00000001400a6bc0     light_trace.obj
 0002:0000dbe0       ??_C@_0BO@BCNBAJPB@?$CF9d?5trace?5triangles?5?$CI?$CF?42fMB?$CJ?6?$AA@ 00000001400a6be0     light_trace.obj
 0002:0000dc00       ??_C@_0BK@INGGBPIN@?$CF9d?5trace?5nodes?5?$CI?$CF?42fMB?$CJ?6?$AA@ 00000001400a6c00     light_trace.obj
 0002:0000dc20       ??_C@_0BJ@BHFLPPBH@?$CF9d?5leaf?5nodes?5?$CI?$CF?42fMB?$CJ?6?$AA@ 00000001400a6c20     light_trace.obj
 0002:0000dc40       ??_C@_0CE@DPKPCCMM@?$CF9d?5average?5windings?5per?5leaf?5no@ 00000001400a6c40     light_trace.obj
 0002:0000dc68       ??_C@_0BF@PLKHCNAC@?$CF9d?5max?5trace?5depth?6?$AA@ 00000001400a6c68     light_trace.obj
 0002:0000dc80       ??_C@_0BF@CDFNNCAG@?4?4?2src?2light_ydnar?4c?$AA@ 00000001400a6c80     light_ydnar.obj
 0002:0000dc98       ??_C@_05PEEHGFCO@?$CFi?4?4?4?$AA@ 00000001400a6c98     light_ydnar.obj
 0002:0000dca0       ??_C@_06MEKNBDFO@?5?$CI?$CFi?$CJ?6?$AA@ 00000001400a6ca0     light_ydnar.obj
 0002:0000dca8       ??_C@_01DCLJPIOD@?$CB?$AA@ 00000001400a6ca8     light_ydnar.obj
 0002:0000dcb0       ??_C@_0BI@GBLOHLLK@ordered?5cone?5dirtmaping?$AA@ 00000001400a6cb0     light_ydnar.obj
 0002:0000dcc8       ??_C@_0BH@HPFGNDOE@random?5cone?5dirtmaping?$AA@ 00000001400a6cc8     light_ydnar.obj
 0002:0000dce0       ??_C@_0CI@GJAFHA@low?5quality?5spherical?5ambient?5oc@ 00000001400a6ce0     light_ydnar.obj
 0002:0000dd08       ??_C@_0CJ@NNLCMALC@high?5quality?5spherical?5ambient?5o@ 00000001400a6d08     light_ydnar.obj
 0002:0000dd38       ??_C@_0BO@NMKHKBIC@DirtModeName?3?5unknown?5mode?5?$CFi?$AA@ 00000001400a6d38     light_ydnar.obj
 0002:0000dd58       ??_C@_09IFOABHBM@no?5filter?$AA@ 00000001400a6d58     light_ydnar.obj
 0002:0000dd68       ??_C@_07EIHJKMF@average?$AA@ 00000001400a6d68     light_ydnar.obj
 0002:0000dd70       ??_C@_0CC@OACABFOP@DirtFilterName?3?5unknown?5filter?5?$CF@ 00000001400a6d70     light_ydnar.obj
 0002:0000dd94       ??_C@_06NMHKILIL@_dirty?$AA@ 00000001400a6d94     light_ydnar.obj
 0002:0000dd9c       ??_C@_03OGKFOJGI@_ao?$AA@  00000001400a6d9c     light_ydnar.obj
 0002:0000dda0       ??_C@_0P@IBKFDBJL@?$CFi?5?$CFlf?5?$CFlf?5?$CFlf?$AA@ 00000001400a6da0     light_ydnar.obj
 0002:0000ddb0       ??_C@_07FGMKLMJB@_aoMode?$AA@ 00000001400a6db0     light_ydnar.obj
 0002:0000ddb8       ??_C@_09PFBDMMFF@_aoFilter?$AA@ 00000001400a6db8     light_ydnar.obj
 0002:0000ddc8       ??_C@_08IFFKMICH@_aoDepth?$AA@ 00000001400a6dc8     light_ydnar.obj
 0002:0000ddd8       ??_C@_0BB@FMIJLNM@_aoDepthExponent?$AA@ 00000001400a6dd8     light_ydnar.obj
 0002:0000ddf0       ??_C@_07BHIJJJJL@_aoGain?$AA@ 00000001400a6df0     light_ydnar.obj
 0002:0000ddf8       ??_C@_0M@CFGCLOE@_aoGainMask?$AA@ 00000001400a6df8     light_ydnar.obj
 0002:0000de08       ??_C@_08FLPHLDNL@_aoScale?$AA@ 00000001400a6e08     light_ydnar.obj
 0002:0000de18       ??_C@_0N@GCEOOJCM@_aoScaleMask?$AA@ 00000001400a6e18     light_ydnar.obj
 0002:0000de28       ??_C@_0BD@CJJHMGFG@?9?9?9?5SetupDirt?5?9?9?9?6?$AA@ 00000001400a6e28     light_ydnar.obj
 0002:0000de40       ??_C@_0BB@JKLDODOF@World?5mode?5?$DN?5?$CFs?6?$AA@ 00000001400a6e40     light_ydnar.obj
 0002:0000de58       ??_C@_0BC@EJOGKEKG@Filter?5mode?5?$DN?5?$CFs?6?$AA@ 00000001400a6e58     light_ydnar.obj
 0002:0000de70       ??_C@_0CD@BEOOCIKH@Gain?5mask?5?$DN?5?$CI?5?$CF1?41f?5?$CF1?41f?5?$CF1?41f?5@ 00000001400a6e70     light_ydnar.obj
 0002:0000de98       ??_C@_0CC@CKCEFIAA@Scale?5mask?5?$DN?5?$CF1?41f?5?$CF1?41f?5?$CF1?41f?5?$CJ@ 00000001400a6e98     light_ydnar.obj
 0002:0000dec0       ??_C@_0N@DPFJBAED@?$CF9d?5vectors?6?$AA@ 00000001400a6ec0     light_ydnar.obj
 0002:0000ded0       ??_C@_0N@NEOKMJKI@?$CF9?41f?5depth?6?$AA@ 00000001400a6ed0     light_ydnar.obj
 0002:0000dee0       ??_C@_0BG@MMAADBJP@?$CF9?41f?5depth?5exponent?6?$AA@ 00000001400a6ee0     light_ydnar.obj
 0002:0000def8       ??_C@_0M@JANOHMEA@?$CF9?42f?5gain?6?$AA@ 00000001400a6ef8     light_ydnar.obj
 0002:0000df08       ??_C@_0N@ILAIGBOH@?$CF9?42f?5scale?6?$AA@ 00000001400a6f08     light_ydnar.obj
 0002:0000df18       ??_C@_0CG@CBCLLKK@?$CF9i?5entities?5with?5custom?5dirtmap@ 00000001400a6f18     light_ydnar.obj
 0002:0000df40       ??_C@_0BL@MANDLLHJ@Spurious?5lightmap?5S?5vector?$AA@ 00000001400a6f40     light_ydnar.obj
 0002:0000df60       ??_C@_0BL@KELCNGLA@Spurious?5lightmap?5T?5vector?$AA@ 00000001400a6f60     light_ydnar.obj
 0002:0000df80       ??_C@_0CB@KJFCLBIG@Hit?5per?9surface?5style?5limit?5?$CI?$CFd?$CJ@ 00000001400a6f80     light_ydnar.obj
 0002:0000dfa8       ??_C@_0BK@FKDGJPOJ@?9?9?9?5DebugRawLightmap?5?9?9?9?6?$AA@ 00000001400a6fa8     light_ydnar.obj
 0002:0000dfc8       ??_C@_0BD@MGEINCEL@Open?5failed?5on?5?$CFs?6?$AA@ 00000001400a6fc8     light_ydnar.obj
 0002:0000dfe0       ??_C@_0BK@BOPOKOMD@?$CK3DSMAX_ASCIIEXPORT?7200?$AN?6?$AA@ 00000001400a6fe0     light_ydnar.obj
 0002:0000e000       ??_C@_0DJ@FLPGFHDH@?$CKCOMMENT?7?$CCGenerated?5by?5BloodMap?5@ 00000001400a7000     light_ydnar.obj
 0002:0000e040       ??_C@_0L@CMLCPMIO@?$CKSCENE?7?$HL?$AN?6?$AA@ 00000001400a7040     light_ydnar.obj
 0002:0000e04c       ??_C@_06PFOPCOCM@luxels?$AA@ 00000001400a704c     light_ydnar.obj
 0002:0000e058       ??_C@_0BI@ENCIFBDA@?7?$CKSCENE_FILENAME?7?$CC?$CFs?$CC?$AN?6?$AA@ 00000001400a7058     light_ydnar.obj
 0002:0000e070       ??_C@_0BH@NKOCKLCA@?7?$CKSCENE_FIRSTFRAME?70?$AN?6?$AA@ 00000001400a7070     light_ydnar.obj
 0002:0000e088       ??_C@_0BI@HBNFABDI@?7?$CKSCENE_LASTFRAME?7100?$AN?6?$AA@ 00000001400a7088     light_ydnar.obj
 0002:0000e0a0       ??_C@_0BI@CLMGLEIG@?7?$CKSCENE_FRAMESPEED?730?$AN?6?$AA@ 00000001400a70a0     light_ydnar.obj
 0002:0000e0b8       ??_C@_0BM@FDGEFJJL@?7?$CKSCENE_TICKSPERFRAME?7160?$AN?6?$AA@ 00000001400a70b8     light_ydnar.obj
 0002:0000e0d8       ??_C@_0DB@GPCPDBBM@?7?$CKSCENE_BACKGROUND_STATIC?70?40000@ 00000001400a70d8     light_ydnar.obj
 0002:0000e110       ??_C@_0CO@BKJPCMKL@?7?$CKSCENE_AMBIENT_STATIC?70?40000?70?4@ 00000001400a7110     light_ydnar.obj
 0002:0000e140       ??_C@_03LFNJCDHL@?$HN?$AN?6?$AA@ 00000001400a7140     light_ydnar.obj
 0002:0000e148       ??_C@_0BD@DANJMPD@?$CKMATERIAL_LIST?7?$HL?$AN?6?$AA@ 00000001400a7148     light_ydnar.obj
 0002:0000e160       ??_C@_0BG@FNHODDMO@?7?$CKMATERIAL_COUNT?7?$CFd?$AN?6?$AA@ 00000001400a7160     light_ydnar.obj
 0002:0000e178       ??_C@_0BC@NAHELGOJ@?7?$CKMATERIAL?7?$CFd?7?$HL?$AN?6?$AA@ 00000001400a7178     light_ydnar.obj
 0002:0000e190       ??_C@_0BI@FCJFNCNE@?7?7?$CKMATERIAL_NAME?7?$CC?$CFs?$CC?$AN?6?$AA@ 00000001400a7190     light_ydnar.obj
 0002:0000e1a8       ??_C@_0BP@GDFFDJHP@?7?7?$CKMATERIAL_CLASS?7?$CCStandard?$CC?$AN?6?$AA@ 00000001400a71a8     light_ydnar.obj
 0002:0000e1c8       ??_C@_0BP@FAAJKNBD@?7?7?$CKMATERIAL_DIFFUSE?7?$CFf?7?$CFf?7?$CFf?$AN?6?$AA@ 00000001400a71c8     light_ydnar.obj
 0002:0000e1e8       ??_C@_0BM@CJHCKOOP@?7?7?$CKMATERIAL_SHADING?5Phong?$AN?6?$AA@ 00000001400a71e8     light_ydnar.obj
 0002:0000e208       ??_C@_0BD@PBMGGOAB@?7?7?$CKMAP_DIFFUSE?7?$HL?$AN?6?$AA@ 00000001400a7208     light_ydnar.obj
 0002:0000e220       ??_C@_0BE@IDLJFAL@?7?7?7?$CKMAP_NAME?7?$CC?$CFs?$CC?$AN?6?$AA@ 00000001400a7220     light_ydnar.obj
 0002:0000e238       ??_C@_0BJ@EKBLAIPJ@?7?7?7?$CKMAP_CLASS?7?$CCBitmap?$CC?$AN?6?$AA@ 00000001400a7238     light_ydnar.obj
 0002:0000e258       ??_C@_0BC@COFBJBKN@?7?7?7?$CKMAP_SUBNO?71?$AN?6?$AA@ 00000001400a7258     light_ydnar.obj
 0002:0000e270       ??_C@_0BF@GIDCHPKE@?7?7?7?$CKMAP_AMOUNT?71?40?$AN?6?$AA@ 00000001400a7270     light_ydnar.obj
 0002:0000e288       ??_C@_0BG@PIJGMDPE@?7?7?7?$CKMAP_TYPE?7Screen?$AN?6?$AA@ 00000001400a7288     light_ydnar.obj
 0002:0000e2a0       ??_C@_0BF@NKBGPBMM@?7?7?7?$CKBITMAP?7?$CC?4?4?2?$CFs?$CC?$AN?6?$AA@ 00000001400a72a0     light_ydnar.obj
 0002:0000e2b8       ??_C@_0BO@CNPCHJ@?7?7?7?$CKBITMAP_FILTER?7Pyramidal?$AN?6?$AA@ 00000001400a72b8     light_ydnar.obj
 0002:0000e2d8       ??_C@_05PEAGOHN@?7?7?$HN?$AN?6?$AA@ 00000001400a72d8     light_ydnar.obj
 0002:0000e2e0       ??_C@_04FPKPGJAL@?7?$HN?$AN?6?$AA@ 00000001400a72e0     light_ydnar.obj
 0002:0000e2e8       ??_C@_0BA@EMCAOBE@?$CKGEOMOBJECT?7?$HL?$AN?6?$AA@ 00000001400a72e8     light_ydnar.obj
 0002:0000e2f8       ??_C@_0BG@EOHLMNBN@?7?$CKNODE_NAME?7?$CC?$CFs_?$CFi?$CC?$AN?6?$AA@ 00000001400a72f8     light_ydnar.obj
 0002:0000e310       ??_C@_0O@DNMGDHLH@?7?$CKNODE_TM?7?$HL?$AN?6?$AA@ 00000001400a7310     light_ydnar.obj
 0002:0000e320       ??_C@_0BH@PDIPBEL@?7?7?$CKNODE_NAME?7?$CC?$CFs_?$CFi?$CC?$AN?6?$AA@ 00000001400a7320     light_ydnar.obj
 0002:0000e338       ??_C@_0BH@IBEABGPK@?7?7?$CKINHERIT_POS?70?70?70?$AN?6?$AA@ 00000001400a7338     light_ydnar.obj
 0002:0000e350       ??_C@_0BH@IPKHJDBM@?7?7?$CKINHERIT_ROT?70?70?70?$AN?6?$AA@ 00000001400a7350     light_ydnar.obj
 0002:0000e368       ??_C@_0BH@CKGBIMKI@?7?7?$CKINHERIT_SCL?70?70?70?$AN?6?$AA@ 00000001400a7368     light_ydnar.obj
 0002:0000e380       ??_C@_0BF@MNLNMNPP@?7?7?$CKTM_ROW0?71?40?70?70?$AN?6?$AA@ 00000001400a7380     light_ydnar.obj
 0002:0000e398       ??_C@_0BF@JJPKACEI@?7?7?$CKTM_ROW1?70?71?40?70?$AN?6?$AA@ 00000001400a7398     light_ydnar.obj
 0002:0000e3b0       ??_C@_0BF@JAGJPHIF@?7?7?$CKTM_ROW2?70?70?71?40?$AN?6?$AA@ 00000001400a73b0     light_ydnar.obj
 0002:0000e3c8       ??_C@_0BD@KNKLBIM@?7?7?$CKTM_ROW3?70?70?70?$AN?6?$AA@ 00000001400a73c8     light_ydnar.obj
 0002:0000e3e0       ??_C@_0BF@JNFLLCHL@?7?7?$CKTM_POS?7?$CFf?7?$CFf?7?$CFf?$AN?6?$AA@ 00000001400a73e0     light_ydnar.obj
 0002:0000e3f8       ??_C@_0L@ELMFIOEI@?7?$CKMESH?7?$HL?$AN?6?$AA@ 00000001400a73f8     light_ydnar.obj
 0002:0000e408       ??_C@_0BB@EKNOJBJA@?7?7?$CKTIMEVALUE?70?$AN?6?$AA@ 00000001400a7408     light_ydnar.obj
 0002:0000e420       ??_C@_0BH@BMPLBEFG@?7?7?$CKMESH_NUMVERTEX?7?$CFd?$AN?6?$AA@ 00000001400a7420     light_ydnar.obj
 0002:0000e438       ??_C@_0BG@DHBFDHOK@?7?7?$CKMESH_NUMFACES?7?$CFd?$AN?6?$AA@ 00000001400a7438     light_ydnar.obj
 0002:0000e450       ??_C@_0BI@JCEIPCCJ@?7?7?$CKMESH_VERTEX_LIST?7?$HL?$AN?6?$AA@ 00000001400a7450     light_ydnar.obj
 0002:0000e468       ??_C@_0BO@BLDEDMDJ@?7?7?7?$CKMESH_VERTEX?7?$CFd?7?$CFf?7?$CFf?7?$CFf?$AN?6?$AA@ 00000001400a7468     light_ydnar.obj
 0002:0000e488       ??_C@_0BG@NALKFKP@?7?7?$CKMESH_FACE_LIST?7?$HL?$AN?6?$AA@ 00000001400a7488     light_ydnar.obj
 0002:0000e4a0       ??_C@_0FH@GOJBKJIK@?7?7?7?$CKMESH_FACE?7?$CFd?7A?3?7?$CFd?7B?3?7?$CFd?7C?3?7@ 00000001400a74a0     light_ydnar.obj
 0002:0000e4f8       ??_C@_0BE@OAHGKDNG@?7?7?$CKMESH_NORMALS?7?$HL?$AN?6?$AA@ 00000001400a74f8     light_ydnar.obj
 0002:0000e510       ??_C@_0CC@LDFCNHGH@?7?7?7?$CKMESH_FACENORMAL?7?$CFd?7?$CFf?7?$CFf?7?$CFf?$AN@ 00000001400a7510     light_ydnar.obj
 0002:0000e538       ??_C@_0CF@BCDCFDPM@?7?7?7?7?$CKMESH_VERTEXNORMAL?7?$CFd?7?$CFf?7?$CFf?7@ 00000001400a7538     light_ydnar.obj
 0002:0000e560       ??_C@_0BI@KPLNOGOG@?7?7?$CKMESH_NUMCVERTEX?7?$CFd?$AN?6?$AA@ 00000001400a7560     light_ydnar.obj
 0002:0000e578       ??_C@_0BG@NAMMOEBP@?7?7?$CKMESH_CVERTLIST?7?$HL?$AN?6?$AA@ 00000001400a7578     light_ydnar.obj
 0002:0000e590       ??_C@_0BP@NKDBKCLA@?7?7?7?$CKMESH_VERTCOL?7?$CFd?7?$CFf?7?$CFf?7?$CFf?$AN?6?$AA@ 00000001400a7590     light_ydnar.obj
 0002:0000e5b0       ??_C@_0BG@CBMGEODP@?7?$CKPROP_MOTIONBLUR?70?$AN?6?$AA@ 00000001400a75b0     light_ydnar.obj
 0002:0000e5c8       ??_C@_0BG@IAKPNNON@?7?$CKPROP_CASTSHADOW?71?$AN?6?$AA@ 00000001400a75c8     light_ydnar.obj
 0002:0000e5e0       ??_C@_0BG@DMKGCOBE@?7?$CKPROP_RECVSHADOW?71?$AN?6?$AA@ 00000001400a75e0     light_ydnar.obj
 0002:0000e5f8       ??_C@_0BE@JEHMICMF@?7?$CKMATERIAL_REF?7?$CFd?$AN?6?$AA@ 00000001400a75f8     light_ydnar.obj
 0002:0000e610       ??_C@_0N@IIHGMLEA@?$CF9d?5objects?6?$AA@ 00000001400a7610     light_ydnar.obj
 0002:0000e620       ??_C@_0P@CCEJOEGD@?$CF9d?5triangles?6?$AA@ 00000001400a7620     light_ydnar.obj
 0002:0000e630       ??_C@_0L@BDDKLHJF@?$CF9d?5verts?6?$AA@ 00000001400a7630     light_ydnar.obj
 0002:0000e640       ??_C@_0BG@DGPHPMGM@?9?9?9?5SetupBrushes?5?9?9?9?6?$AA@ 00000001400a7640     light_ydnar.obj
 0002:0000e658       ??_C@_0BE@FLINJHBK@?$CF9d?5opaque?5brushes?6?$AA@ 00000001400a7658     light_ydnar.obj
 0002:0000e670       ??_C@_0CD@GONKMLAA@ClusterVisible?3?5broken?5cluster?5?$CF@ 00000001400a7670     light_ydnar.obj
 0002:0000e698       ??_C@_07ILDCNHJE@?5?$CIfast?$CJ?$AA@ 00000001400a7698     light_ydnar.obj
 0002:0000e6a0       ??_C@_0N@NCIKBPED@?5?$CIlightgrid?$CJ?$AA@ 00000001400a76a0     light_ydnar.obj
 0002:0000e6b0       ??_C@_0N@GACJHMJH@?5?$CIlightmaps?$CJ?$AA@ 00000001400a76b0     light_ydnar.obj
 0002:0000e6c0       ??_C@_0BM@MCCKEGBH@?9?9?9?5SetupEnvelopes?$CFs?$CFs?5?9?9?9?6?$AA@ 00000001400a76c0     light_ydnar.obj
 0002:0000e6e0       ??_C@_0BC@HIJDHPIN@?$CF9d?5point?5lights?6?$AA@ 00000001400a76e0     light_ydnar.obj
 0002:0000e6f8       ??_C@_0BB@COMHLOJC@?$CF9d?5area?5lights?6?$AA@ 00000001400a76f8     light_ydnar.obj
 0002:0000e710       ??_C@_0BB@DFIPCBLE@?$CF9d?5spot?5lights?6?$AA@ 00000001400a7710     light_ydnar.obj
 0002:0000e728       ??_C@_0BA@BOFKECIJ@?$CF9d?5sun?5lights?6?$AA@ 00000001400a7728     light_ydnar.obj
 0002:0000e738       ??_C@_0BF@MBMCFJFK@?$CF9d?5negative?5lights?6?$AA@ 00000001400a7738     light_ydnar.obj
 0002:0000e750       ??_C@_0BC@FEAJCJFO@?$CF9d?5total?5lights?6?$AA@ 00000001400a7750     light_ydnar.obj
 0002:0000e768       ??_C@_0BD@DDPBCAOO@?$CF9d?5culled?5lights?6?$AA@ 00000001400a7768     light_ydnar.obj
 0002:0000e780       ??_C@_0BJ@MPMMIANG@?9?9?9?5SetupFloodLight?5?9?9?9?6?$AA@ 00000001400a7780     light_ydnar.obj
 0002:0000e7a0       ??_C@_0BF@PJIMIECO@?$CF9d?5numFloodVectors?6?$AA@ 00000001400a77a0     light_ydnar.obj
 0002:0000e7b8       ??_C@_0M@MOFODDB@_floodlight?$AA@ 00000001400a77b8     light_ydnar.obj
 0002:0000e7c8       ??_C@_0BE@KDPPJLBO@?$CFlf?5?$CFlf?5?$CFlf?5?$CFlf?5?$CFlf?$AA@ 00000001400a77c8     light_ydnar.obj
 0002:0000e7e0       ??_C@_0DH@LJEDKDJC@FloodLighting?5enabled?5via?5worlds@ 00000001400a77e0     light_ydnar.obj
 0002:0000e818       ??_C@_0BJ@FJEBMJAF@?4?4?2src?2lightmaps_ydnar?4c?$AA@ 00000001400a7818     lightmaps_ydnar.obj
 0002:0000e838       ??_C@_0BO@PLJLDNBM@Unable?5to?5open?5?$CFs?5for?5writing?$AA@ 00000001400a7838     lightmaps_ydnar.obj
 0002:0000e858       ??_C@_0BJ@POOHNCDL@?9?9?9?5ExportLightmaps?5?9?9?9?6?$AA@ 00000001400a7858     lightmaps_ydnar.obj
 0002:0000e878       ??_C@_0BF@PGCMBGOJ@No?5BSP?5lightmap?5data?$AA@ 00000001400a7878     lightmaps_ydnar.obj
 0002:0000e890       ??_C@_0BF@JHOIKAOA@?$CFs?1lightmap_?$CF04d?4tga?$AA@ 00000001400a7890     lightmaps_ydnar.obj
 0002:0000e8a8       ??_C@_0CF@NBAGHBED@Usage?3?5q3map?5?9export?5?$FL?9v?$FN?5?$DMmapna@ 00000001400a78a8     lightmaps_ydnar.obj
 0002:0000e8d0       ??_C@_0CF@DDJNCOHH@Usage?3?5q3map?5?9import?5?$FL?9v?$FN?5?$DMmapna@ 00000001400a78d0     lightmaps_ydnar.obj
 0002:0000e8f8       ??_C@_0BJ@CKAKEMM@?9?9?9?5ImportLightmaps?5?9?9?9?6?$AA@ 00000001400a78f8     lightmaps_ydnar.obj
 0002:0000e918       ??_C@_0BB@OJLCJGOD@No?5lightmap?5data?$AA@ 00000001400a7918     lightmaps_ydnar.obj
 0002:0000e930       ??_C@_0CB@BFPJAELP@Unable?5to?5load?5lightmap?5image?5?$CFs@ 00000001400a7930     lightmaps_ydnar.obj
 0002:0000e958       ??_C@_0CC@KBCELPJD@Unable?5to?5load?5lightmap?5image?5?$CFs@ 00000001400a7958     lightmaps_ydnar.obj
 0002:0000e980       ??_C@_0DN@DPEPKHND@Lightmap?5image?5?$CFs?5is?5not?5the?5rig@ 00000001400a7980     lightmaps_ydnar.obj
 0002:0000e9c0       ??_C@_03NPMJBIL@?$CFs?1?$AA@ 00000001400a79c0     lightmaps_ydnar.obj
 0002:0000e9c8       ??_C@_0N@LBBFMLFD@?$CFs?1lm_?$CF04d?$CFs?$AA@ 00000001400a79c8     lightmaps_ydnar.obj
 0002:0000e9d8       ??_C@_09CKGNLJHL@?$CFs?$CFs?$CFs?$CFs?1?$AA@ 00000001400a79d8     lightmaps_ydnar.obj
 0002:0000e9e8       ??_C@_0BD@FOGGDJCM@?$CFs?$CFs?$CFs?$CFs?1lm_?$CF04d?$CFs?$AA@ 00000001400a79e8     lightmaps_ydnar.obj
 0002:0000ea00       ??_C@_0CO@LIOIMPFP@ProjectSurfaceLightmap?3?5Chose?5a?5@ 00000001400a7a00     lightmaps_ydnar.obj
 0002:0000ea30       ??_C@_0FA@BKHHNEBA@Lightmap?5texture?5coords?5out?5of?5r@ 00000001400a7a30     lightmaps_ydnar.obj
 0002:0000ea80       ??_C@_0BP@PEMKOMBK@?9?9?9?5SetupSurfaceLightmaps?5?9?9?9?6?$AA@ 00000001400a7a80     lightmaps_ydnar.obj
 0002:0000eaa0       ??_C@_0CK@BIHAFPOM@Insane?5supersampling?5amount?5?$CI?$CFd?$CJ@ 00000001400a7aa0     lightmaps_ydnar.obj
 0002:0000ead0       ??_C@_0BM@KEDACCHN@maxSurfaceClusters?5exceeded?$AA@ 00000001400a7ad0     lightmaps_ydnar.obj
 0002:0000eaf0       ??_C@_0CC@MDJEFHE@?9?9?9?5AllocateSurfaceLightmaps?5?9?9?9@ 00000001400a7af0     lightmaps_ydnar.obj
 0002:0000eb18       ??_C@_0BD@ECDLMKHJ@?$CF9d?5raw?5lightmaps?6?$AA@ 00000001400a7b18     lightmaps_ydnar.obj
 0002:0000eb30       ??_C@_0BK@OPHMDDEH@?$CF9d?5surfaces?5lightmapped?6?$AA@ 00000001400a7b30     lightmaps_ydnar.obj
 0002:0000eb50       ??_C@_0CB@DNOBAMPF@?$CF9d?5planar?5surfaces?5lightmapped?6@ 00000001400a7b50     lightmaps_ydnar.obj
 0002:0000eb78       ??_C@_0CF@LEEFJNDA@?$CF9d?5non?9planar?5surfaces?5lightmap@ 00000001400a7b78     lightmaps_ydnar.obj
 0002:0000eba0       ??_C@_0BJ@ENIIOAKD@?$CF9d?5patches?5lightmapped?6?$AA@ 00000001400a7ba0     lightmaps_ydnar.obj
 0002:0000ebc0       ??_C@_0CA@NNDCKPIF@?$CF9d?5planar?5patches?5lightmapped?6?$AA@ 00000001400a7bc0     lightmaps_ydnar.obj
 0002:0000ebe0       ??_C@_0BO@FCHCINLK@?9?9?9?5SetupVertexLightning?5?9?9?9?6?$AA@ 00000001400a7be0     lightmaps_ydnar.obj
 0002:0000ec00       ??_C@_0O@GAGNPAFO@?$CF9d?5vertexes?6?$AA@ 00000001400a7c00     lightmaps_ydnar.obj
 0002:0000ec10       ??_C@_0BJ@BNIFOCD@?$CF9d?5surfaces?5vertex?5lit?6?$AA@ 00000001400a7c10     lightmaps_ydnar.obj
 0002:0000ec30       ??_C@_0BL@NOPHJJJN@?9?9?9?5StitchRawLightmap?5?9?9?9?6?$AA@ 00000001400a7c30     lightmaps_ydnar.obj
 0002:0000ec50       ??_C@_0O@KKJHDEMK@?$CF9d?5stitches?6?$AA@ 00000001400a7c50     lightmaps_ydnar.obj
 0002:0000ec60       ??_C@_0CC@BBIAEMJA@?$CF7?42f?5average?5stitches?5per?5luxel@ 00000001400a7c60     lightmaps_ydnar.obj
 0002:0000ec88       ??_C@_0BM@EKGODHNN@?9?9?9?5SubsampleLightmaps?5?9?9?9?6?$AA@ 00000001400a7c88     lightmaps_ydnar.obj
 0002:0000eca8       ??_C@_0BN@LFDCBFCE@?$CF9d?5solid?5surface?5lightmaps?6?$AA@ 00000001400a7ca8     lightmaps_ydnar.obj
 0002:0000ecc8       ??_C@_0BK@PCMMAOFI@?9?9?9?5ConvertLightmaps?5?9?9?9?6?$AA@ 00000001400a7cc8     lightmaps_ydnar.obj
 0002:0000ece8       ??_C@_0BL@PNHJMDPA@?9?9?9?5CollapseLightmaps?5?9?9?9?6?$AA@ 00000001400a7ce8     lightmaps_ydnar.obj
 0002:0000ed08       ??_C@_0DC@FPDOJLNN@?$CF9d?5identical?5surface?5lightmaps?0@ 00000001400a7d08     lightmaps_ydnar.obj
 0002:0000ed40       ??_C@_0BL@BDOJGANA@?9?9?9?5AllocateLightmaps?5?9?9?9?6?$AA@ 00000001400a7d40     lightmaps_ydnar.obj
 0002:0000ed60       ??_C@_0BM@BCAGMHHG@?$CF9d?5vertex?5forced?5surfaces?6?$AA@ 00000001400a7d60     lightmaps_ydnar.obj
 0002:0000ed80       ??_C@_0CC@EENAPILL@?$CF9d?5vertex?5approximated?5surfaces@ 00000001400a7d80     lightmaps_ydnar.obj
 0002:0000eda8       ??_C@_0CJ@EGIOFHHP@?$CF9d?5unique?5lightmap?1shader?5combi@ 00000001400a7da8     lightmaps_ydnar.obj
 0002:0000edd8       ??_C@_0CC@MFDOGEEJ@?9?9?9?5CleanupExternalLightmaps?5?9?9?9@ 00000001400a7dd8     lightmaps_ydnar.obj
 0002:0000ee00       ??_C@_0BD@NHJHJIOH@?$CF9d?5files?5deleted?6?$AA@ 00000001400a7e00     lightmaps_ydnar.obj
 0002:0000ee18       ??_C@_0CE@EFFHJMBF@?9?9?9?5CleanupCompressedLightmaps?5?9@ 00000001400a7e18     lightmaps_ydnar.obj
 0002:0000ee3c       ??_C@_04KFIAFHFP@dds?1?$AA@ 00000001400a7e3c     lightmaps_ydnar.obj
 0002:0000ee48       ??_C@_0BI@ODJDEGFI@?9?9?9?5StoreLightmaps?5?9?9?9?6?$AA@ 00000001400a7e48     lightmaps_ydnar.obj
 0002:0000ee60       ??_C@_0BK@IHGNDHPD@?9?9?9?5ProjectLightmaps?5?9?9?9?6?$AA@ 00000001400a7e60     lightmaps_ydnar.obj
 0002:0000ee80       ??_C@_0CI@GOEDJLHB@?6?7?1?1?5Q3Map2?5custom?5lightstyle?5st@ 00000001400a7e80     lightmaps_ydnar.obj
 0002:0000eea8       ??_C@_09CGLCLDGP@$lightmap?$AA@ 00000001400a7ea8     lightmaps_ydnar.obj
 0002:0000eeb8       ??_C@_0BG@OLMOPEFP@?$CFsmaps?1?$CFs?1lm_?$CF04d?4tga?$AA@ 00000001400a7eb8     lightmaps_ydnar.obj
 0002:0000eed0       ??_C@_0BB@JFLGHNOH@?$CF9d?5luxels?5used?6?$AA@ 00000001400a7ed0     lightmaps_ydnar.obj
 0002:0000eee8       ??_C@_0CO@IKFBABCC@?$CF9d?5luxels?5stored?5?$CI?$CF3?42f?5percent@ 00000001400a7ee8     lightmaps_ydnar.obj
 0002:0000ef18       ??_C@_0BD@KCJKGBM@?$CF9d?5BSP?5lightmaps?6?$AA@ 00000001400a7f18     lightmaps_ydnar.obj
 0002:0000ef30       ??_C@_0BF@ELOBJPAJ@?$CF9d?5total?5lightmaps?6?$AA@ 00000001400a7f30     lightmaps_ydnar.obj
 0002:0000ef48       ??_C@_0BG@JHJKGLAO@NewWinding?3?5?$CFi?5points?$AA@ 00000001400a7f48     vis.obj
 0002:0000ef60       ??_C@_0N@PFNOPHC@?4?4?2src?2vis?4c?$AA@ 00000001400a7f60     vis.obj
 0002:0000ef70       ??_C@_0BA@NKGJJBEA@portal?5not?5done?$AA@ 00000001400a7f70     vis.obj
 0002:0000ef80       ??_C@_0BL@BBNGDGFJ@cluster?5?$CF4i?5?3?5?$CF4i?5visible?6?$AA@ 00000001400a7f80     vis.obj
 0002:0000efa0       ??_C@_0BI@NCJGPJPF@?9?9?9?5CreatePassages?5?9?9?9?6?$AA@ 00000001400a7fa0     vis.obj
 0002:0000efb8       ??_C@_0BF@DMLDBOAM@?9?9?9?5PassageFlow?5?9?9?9?6?$AA@ 00000001400a7fb8     vis.obj
 0002:0000efd0       ??_C@_0BM@FOBFGBKJ@?9?9?9?5PassagePortalFlow?5?5?9?9?9?6?$AA@ 00000001400a7fd0     vis.obj
 0002:0000eff0       ??_C@_0O@ODMKCG@_farplanedist?$AA@ 00000001400a7ff0     vis.obj
 0002:0000f000       ??_C@_07CDANEGDL@fogclip?$AA@ 00000001400a8000     vis.obj
 0002:0000f008       ??_C@_0N@HFLAOKBP@distancecull?$AA@ 00000001400a8008     vis.obj
 0002:0000f018       ??_C@_0BK@PPMMBFNP@farplane?5distance?5?$DN?5?$CF?41f?6?$AA@ 00000001400a8018     vis.obj
 0002:0000f038       ??_C@_0BH@EIIJNKOD@?9?9?9?5BasePortalVis?5?9?9?9?6?$AA@ 00000001400a8038     vis.obj
 0002:0000f050       ??_C@_0BH@JCJEOIJA@?9?9?9?5CreateLeafVis?5?9?9?9?6?$AA@ 00000001400a8050     vis.obj
 0002:0000f068       ??_C@_0O@FPBPNGBF@?$CF9d?5clusters?6?$AA@ 00000001400a8068     vis.obj
 0002:0000f078       ??_C@_0BM@DCHEGFIO@?$CF9d?5total?5visible?5clusters?6?$AA@ 00000001400a8078     vis.obj
 0002:0000f098       ??_C@_0BO@FMAFLBLA@?$CF9d?5average?5clusters?5visible?6?$AA@ 00000001400a8098     vis.obj
 0002:0000f0b8       ??_C@_0BD@LIEIGPBJ@?$CF6d?5leaves?5merged?6?$AA@ 00000001400a80b8     vis.obj
 0002:0000f0d0       ??_C@_0BE@CDPNBOAC@?$CF6d?5portals?5merged?6?$AA@ 00000001400a80d0     vis.obj
 0002:0000f0e8       ??_C@_0BJ@EMMOIANL@?$CF6d?5hint?5portals?5merged?6?$AA@ 00000001400a80e8     vis.obj
 0002:0000f108       ??_C@_0BE@JIKJAMAB@?$CF9d?5active?5portals?6?$AA@ 00000001400a8108     vis.obj
 0002:0000f120       ??_C@_0BC@IBFIDCGN@?$CF9d?5hint?5portals?6?$AA@ 00000001400a8120     vis.obj
 0002:0000f134       ??_C@_01KDCPPGHE@r?$AA@    00000001400a8134     vis.obj
 0002:0000f138       ??_C@_0BP@PPEIPGEB@LoadPortals?3?5couldn?8t?5read?5?$CFs?6?$AA@ 00000001400a8138     vis.obj
 0002:0000f158       ??_C@_0P@HGFNIKLM@?$CF79s?6?$CFi?6?$CFi?6?$CFi?6?$AA@ 00000001400a8158     vis.obj
 0002:0000f168       ??_C@_0CD@EIBPJOID@LoadPortals?3?5failed?5to?5read?5head@ 00000001400a8168     vis.obj
 0002:0000f190       ??_C@_0BP@GHLIKICO@LoadPortals?3?5not?5a?5portal?5file?$AA@ 00000001400a8190     vis.obj
 0002:0000f1b0       ??_C@_0BE@KMAEBAPD@?$CF9d?5portalclusters?6?$AA@ 00000001400a81b0     vis.obj
 0002:0000f1c8       ??_C@_0BA@ODCBPGAN@?$CF9d?5numportals?6?$AA@ 00000001400a81c8     vis.obj
 0002:0000f1d8       ??_C@_0O@CBKPDJNG@?$CF9d?5numfaces?6?$AA@ 00000001400a81d8     vis.obj
 0002:0000f1e8       ??_C@_0BM@GKNDKGKG@MAX_MAP_VISIBILITY?5exceeded?$AA@ 00000001400a81e8     vis.obj
 0002:0000f208       ??_C@_0BP@MFAGACOI@LoadPortals?3?5reading?5portal?5?$CFi?$AA@ 00000001400a8208     vis.obj
 0002:0000f228       ??_C@_0CL@ILIGGBLP@LoadPortals?3?5portal?5?$CFi?5has?5too?5m@ 00000001400a8228     vis.obj
 0002:0000f258       ??_C@_0CA@DIKGEPMH@LoadPortals?3?5reading?5hint?5state?$AA@ 00000001400a8258     vis.obj
 0002:0000f278       ??_C@_0BA@MANBOAOF@?$CI?$CFlf?5?$CFlf?5?$CFlf?5?$CJ?5?$AA@ 00000001400a8278     vis.obj
 0002:0000f288       ??_C@_0BL@BJDCNCCM@Leaf?5with?5too?5many?5portals?$AA@ 00000001400a8288     vis.obj
 0002:0000f2a8       ??_C@_0BJ@JJKKGDPB@Leaf?5with?5too?5many?5faces?$AA@ 00000001400a82a8     vis.obj
 0002:0000f2c8       ??_C@_0N@DFKBGEGD@?9?9?9?5Vis?5?9?9?9?6?$AA@ 00000001400a82c8     vis.obj
 0002:0000f2d8       ??_C@_0BB@DPEMGEOP@?5FastVis?5?$DN?5true?6?$AA@ 00000001400a82d8     vis.obj
 0002:0000f2ec       ??_C@_05DHBJIMBI@?9full?$AA@ 00000001400a82ec     vis.obj
 0002:0000f2f8       ??_C@_0BC@OEGPNHHI@?5FastVis?5?$DN?5false?6?$AA@ 00000001400a82f8     vis.obj
 0002:0000f30c       ??_C@_06LNGFLGDE@?9merge?$AA@ 00000001400a830c     vis.obj
 0002:0000f318       ??_C@_0P@GLBBMPIB@?5Merge?5?$DN?5true?6?$AA@ 00000001400a8318     vis.obj
 0002:0000f328       ??_C@_0L@PBFJBHOF@?9nopassage?$AA@ 00000001400a8328     vis.obj
 0002:0000f338       ??_C@_0BD@OCPJEKOB@?5NoPassage?5?$DN?5true?6?$AA@ 00000001400a8338     vis.obj
 0002:0000f350       ??_C@_0N@NBJKGIIF@?9passageOnly?$AA@ 00000001400a8350     vis.obj
 0002:0000f360       ??_C@_0BF@LBPAIEKM@?5PassageOnly?5?$DN?5true?6?$AA@ 00000001400a8360     vis.obj
 0002:0000f378       ??_C@_07BLJEKAKA@?9nosort?$AA@ 00000001400a8378     vis.obj
 0002:0000f380       ??_C@_0BA@OGOHEBBC@?5NoSort?5?$DN?5true?6?$AA@ 00000001400a8380     vis.obj
 0002:0000f390       ??_C@_08JOOGOJDG@?9saveprt?$AA@ 00000001400a8390     vis.obj
 0002:0000f3a0       ??_C@_0BB@NGAHLALL@?5Saveprt?5?$DN?5true?6?$AA@ 00000001400a83a0     vis.obj
 0002:0000f3b4       ??_C@_06OKKPJCOM@?9tmpin?$AA@ 00000001400a83b4     vis.obj
 0002:0000f3bc       ??_C@_05BDHJJGGJ@?9hint?$AA@ 00000001400a83bc     vis.obj
 0002:0000f3c8       ??_C@_0O@OEGCMCGH@?5Hint?5?$DN?5true?6?$AA@ 00000001400a83c8     vis.obj
 0002:0000f3d8       ??_C@_0DK@KCOHGLNH@usage?3?5vis?5?$FL?9threads?5?$CD?$FN?5?$FL?9level?5@ 00000001400a83d8     vis.obj
 0002:0000f414       ??_C@_04HDOCAJNK@?$CFs?$CFs?$AA@ 00000001400a8414     vis.obj
 0002:0000f41c       ??_C@_04DADFDJNH@?4prt?$AA@ 00000001400a841c     vis.obj
 0002:0000f428       ??_C@_0CD@LHOHPDFM@No?5portals?5means?5no?5vis?0?5exiting@ 00000001400a8428     vis.obj
 0002:0000f450       ??_C@_0BK@DLOEFCAA@AllocStackWinding?3?5failed?$AA@ 00000001400a8450     visflow.obj
 0002:0000f470       ??_C@_0CA@BHKMEKMP@FreeStackWinding?3?5allready?5free?$AA@ 00000001400a8470     visflow.obj
 0002:0000f490       ??_C@_0P@NFONMMMP@MAX_SEPERATORS?$AA@ 00000001400a8490     visflow.obj
 0002:0000f4a0       ??_C@_0DC@MAAFJFBP@portal?3?$CF4i?5?5mightsee?3?$CF4i?5?5cansee@ 00000001400a84a0     visflow.obj
 0002:0000f4d8       ??_C@_0P@MDIBGNNJ@max?5seperators?$AA@ 00000001400a84d8     visflow.obj
 0002:0000f4e8       ??_C@_0BB@OLBJGDPO@?4?4?2src?2visflow?4c?$AA@ 00000001400a84e8     visflow.obj
 0002:0000f500       ??_C@_0CJ@NPKMJODB@?$CF9d?5average?5number?5of?5passages?5p@ 00000001400a8500     visflow.obj
 0002:0000f530       ??_C@_0CA@JHKPNFFN@?$CF9d?5MB?5required?5passage?5memory?6?$AA@ 00000001400a8530     visflow.obj
 0002:0000f550       ??_C@_0CO@KGBIPCHH@Error?5finding?5collapsed?5vertex?5a@ 00000001400a8550     convert_ase.obj
 0002:0000f580       ??_C@_08MCIBBPNA@shader?$CFd?$AA@ 00000001400a8580     convert_ase.obj
 0002:0000f590       ??_C@_0BA@GKLMMGOC@model?$CFdshader?$CFd?$AA@ 00000001400a8590     convert_ase.obj
 0002:0000f5a0       ??_C@_0BD@MEEBPGGH@?7?$CKNODE_NAME?7?$CC?$CFs?$CC?$AN?6?$AA@ 00000001400a85a0     convert_ase.obj
 0002:0000f5b8       ??_C@_0BE@OJCAEJHB@?7?7?$CKNODE_NAME?7?$CC?$CFs?$CC?$AN?6?$AA@ 00000001400a85b8     convert_ase.obj
 0002:0000f5d0       ??_C@_0CD@DOJLHPN@?7?7?$CKCOMMENT?7?$CCCOLLAPSED?5BY?5SHADER?$CC@ 00000001400a85d0     convert_ase.obj
 0002:0000f5f8       ??_C@_0CE@DCECM@?7?7?7?$CKMESH_VERTEXNORMAL?7?$CFd?7?$CFf?7?$CFf?7?$CF@ 00000001400a85f8     convert_ase.obj
 0002:0000f620       ??_C@_0BI@GGMJEGGE@?7?7?$CKMESH_NUMTVERTEX?7?$CFd?$AN?6?$AA@ 00000001400a8620     convert_ase.obj
 0002:0000f638       ??_C@_0BG@NDLDHCLD@?7?7?$CKMESH_TVERTLIST?7?$HL?$AN?6?$AA@ 00000001400a8638     convert_ase.obj
 0002:0000f650       ??_C@_0BN@FHGPBAJM@?7?7?7?$CKMESH_TVERT?7?$CFd?7?$CFf?7?$CFf?7?$CFf?$AN?6?$AA@ 00000001400a8650     convert_ase.obj
 0002:0000f670       ??_C@_0BI@PJBEGBMM@?7?7?$CKMESH_NUMTVFACES?7?$CFd?$AN?6?$AA@ 00000001400a8670     convert_ase.obj
 0002:0000f688       ??_C@_0BG@MDKGBOML@?7?7?$CKMESH_TFACELIST?7?$HL?$AN?6?$AA@ 00000001400a8688     convert_ase.obj
 0002:0000f6a0       ??_C@_0BN@KOFOAIDO@?7?7?7?$CKMESH_TFACE?7?$CFd?7?$CFd?7?$CFd?7?$CFd?$AN?6?$AA@ 00000001400a86a0     convert_ase.obj
 0002:0000f6c0       ??_C@_0BD@KIBJFKCO@mat?$CFdmodel?$CFdsurf?$CFd?$AA@ 00000001400a86c0     convert_ase.obj
 0002:0000f6d8       ??_C@_0CG@FBPFPDIK@?7?7?$CKCOMMENT?7?$CCSURFACETYPE?7MST_PLAN@ 00000001400a86d8     convert_ase.obj
 0002:0000f700       ??_C@_0CN@JBMCPELG@?7?7?$CKCOMMENT?7?$CCSURFACETYPE?7MST_TRIA@ 00000001400a8700     convert_ase.obj
 0002:0000f730       ??_C@_0BD@MMDFJOOK@NULL?5shader?5in?5BSP?$AA@ 00000001400a8730     convert_ase.obj
 0002:0000f748       ??_C@_0BC@HIPDIALO@?9?9?9?5BSPtoASE?5?9?9?9?6?$AA@ 00000001400a8748     convert_ase.obj
 0002:0000f760       ??_C@_0CM@CEBAOBAG@Enabling?5collapsing?5meshes?5by?5te@ 00000001400a8760     convert_ase.obj
 0002:0000f790       ??_C@_0BF@BIAOBODL@?4?4?2src?2convert_ase?4c?$AA@ 00000001400a8790     convert_ase.obj
 0002:0000f7a8       ??_C@_04IKILEAAK@?4ase?$AA@ 00000001400a87a8     convert_ase.obj
 0002:0000f7b0       ??_C@_0DO@NINDCDO@?$CKCOMMENT?7?$CCGenerated?5by?5Q3Map2?5?$CIy@ 00000001400a87b0     convert_ase.obj
 0002:0000f7f0       ??_C@_0BG@DHNDFCOF@exporting?5model?5?$CFi?4?4?4?$AA@ 00000001400a87f0     convert_ase.obj
 0002:0000f808       ??_C@_0CI@HCJHLOE@?$CFi?5surfaces?0?5?$CFi?5vertexes?0?5?$CFi?5tri@ 00000001400a8808     convert_ase.obj
 0002:0000f830       ??_C@_0O@MNOJDAPD@?7?1?1?5brush?5?$CFd?6?$AA@ 00000001400a8830     convert_map.obj
 0002:0000f840       ??_C@_03BPIAAFC@?7?$HL?6?$AA@ 00000001400a8840     convert_map.obj
 0002:0000f850       ??_C@_0FD@JCIIPMBO@?7?7?$CI?5?$CF?43f?5?$CF?43f?5?$CF?43f?5?$CJ?5?$CI?5?$CF?43f?5?$CF?43f@ 00000001400a8850     convert_map.obj
 0002:0000f8a4       ??_C@_04FKOAHPIO@?7?$HN?6?6?$AA@ 00000001400a88a4     convert_map.obj
 0002:0000f8b0       ??_C@_0O@NAILIDMC@?7?1?1?5patch?5?$CFd?6?$AA@ 00000001400a88b0     convert_map.obj
 0002:0000f8c0       ??_C@_0N@GHJEECFG@?7?7patchDef2?6?$AA@ 00000001400a88c0     convert_map.obj
 0002:0000f8d0       ??_C@_04OLIOEKCC@?7?7?$HL?6?$AA@ 00000001400a88d0     convert_map.obj
 0002:0000f8d8       ??_C@_06OGKADHGE@?7?7?7?$CFs?6?$AA@ 00000001400a88d8     convert_map.obj
 0002:0000f8e0       ??_C@_0BE@PHDNALEC@?7?7?7?$CI?5?$CFd?5?$CFd?50?50?50?5?$CJ?6?$AA@ 00000001400a88e0     convert_map.obj
 0002:0000f8f4       ??_C@_05NFJLNNLN@?7?7?7?$CI?6?$AA@ 00000001400a88f4     convert_map.obj
 0002:0000f8fc       ??_C@_05ELKGLHEK@?7?7?7?7?$CI?$AA@ 00000001400a88fc     convert_map.obj
 0002:0000f908       ??_C@_0BE@MDLFDPOH@?5?$CI?5?$CFf?5?$CFf?5?$CFf?5?$CFf?5?$CFf?5?$CJ?$AA@ 00000001400a8908     convert_map.obj
 0002:0000f91c       ??_C@_03LDPKBKDI@?5?$CJ?6?$AA@ 00000001400a891c     convert_map.obj
 0002:0000f920       ??_C@_05NEFJLHIK@?7?7?7?$CJ?6?$AA@ 00000001400a8920     convert_map.obj
 0002:0000f928       ??_C@_04OPADDGJA@?7?7?$HN?6?$AA@ 00000001400a8928     convert_map.obj
 0002:0000f930       ??_C@_0M@CICOCPBL@?7?$CC?$CFs?$CC?5?$CC?$CFs?$CC?6?$AA@ 00000001400a8930     convert_map.obj
 0002:0000f940       ??_C@_0BM@GPHLGNBC@?9?9?9?5Convert?5BSP?5to?5MAP?5?9?9?9?6?$AA@ 00000001400a8940     convert_map.obj
 0002:0000f960       ??_C@_0CP@FFOJJHHI@?5note?3?5?9collapsebytexture?5does?5n@ 00000001400a8960     convert_map.obj
 0002:0000f990       ??_C@_0P@KGALKKNB@_converted?4map?$AA@ 00000001400a8990     convert_map.obj
 0002:0000f9a0       ??_C@_0DF@OEDDCMMM@?1?1?5Generated?5by?5Q3Map2?5?$CIydnar?$CJ?5?9@ 00000001400a89a0     convert_map.obj
 0002:0000f9d8       ??_C@_0O@GCNLHLJB@?1?1?5entity?5?$CFd?6?$AA@ 00000001400a89d8     convert_map.obj
 0002:0000f9e8       ??_C@_0CP@OAFHHPBH@safe_malloc?5failed?5on?5allocation@ 00000001400a89e8     cmdlib.obj
 0002:0000fa18       ??_C@_0L@PBIMKJEF@memlog?4txt?$AA@ 00000001400a8a18     cmdlib.obj
 0002:0000fa28       ??_C@_0N@PAMJONDM@LOG?5STARTED?6?$AA@ 00000001400a8a28     cmdlib.obj
 0002:0000fa38       ??_C@_0CK@LIEMKPCM@?$CK?$CK?$CK?$CK?$CK?$CK?$CK?$CK?$CK?$CK?$CK?$CK?$CK?$CK?$CK?$CK?$CK?$CK?$CK?$CK?$CK?$CK?$CK?$CK?$CK?$CK?$CK?$CK?$CK?$CK?$CK?$CK@ 00000001400a8a38     cmdlib.obj
 0002:0000fa64       ??_C@_05LCABBMOG@?$CFs?3?$CFi?$AA@ 00000001400a8a64     cmdlib.obj
 0002:0000fa70       ??_C@_0BG@EDNJHPAK@MEM_MAXLOGS?5exceeded?6?$AA@ 00000001400a8a70     cmdlib.obj
 0002:0000fa88       ??_C@_0DE@OEIPIEKO@safe_malloc?$CI?$CFs?3?$CFi?$CJ?5failed?5on?5all@ 00000001400a8a88     cmdlib.obj
 0002:0000fabc       ??_C@_01MCMALHOG@a?$AA@    00000001400a8abc     cmdlib.obj
 0002:0000fac0       ??_C@_08GPNCPPAM@?$CFs?5?$DN?5?$CFi?6?$AA@ 00000001400a8ac0     cmdlib.obj
 0002:0000fad0       ??_C@_0DE@DCAGMICG@?$CFs?3?5safe_malloc?5failed?5on?5alloca@ 00000001400a8ad0     cmdlib.obj
 0002:0000fb08       ??_C@_0DE@FBNGPNBM@?$CFs?3?5safe_malloc?5failed?5on?5alloca@ 00000001400a8b08     cmdlib.obj
 0002:0000fb40       ??_C@_0DD@CNIFFKB@?$CFs?3?5safe_malloc?5failed?5on?5alloca@ 00000001400a8b40     cmdlib.obj
 0002:0000fb74       ??_C@_05GFOLEBJA@?$CFs?1?$CFs?$AA@ 00000001400a8b74     cmdlib.obj
 0002:0000fb80       ??_C@_0BH@MPPDGOAN@?4?4?2src?2common?2cmdlib?4c?$AA@ 00000001400a8b80     cmdlib.obj
 0002:0000fb98       ??_C@_01KICIPPFI@?2?$AA@   00000001400a8b98     cmdlib.obj
 0002:0000fba0       ??_C@_0N@GLEMEACN@mkdir?5?$CFs?3?5?$CFs?$AA@ 00000001400a8ba0     cmdlib.obj
 0002:0000fbb0       ??_C@_0BF@BCONAKHE@Error?5opening?5?$CFs?3?5?$CFs?$AA@ 00000001400a8bb0     cmdlib.obj
 0002:0000fbc8       ??_C@_0BC@OGGEBGDM@File?5read?5failure?$AA@ 00000001400a8bc8     cmdlib.obj
 0002:0000fbe0       ??_C@_0BD@IHJMODLC@File?5write?5failure?$AA@ 00000001400a8be0     cmdlib.obj
 0002:0000fbf8       ??_C@_0BG@IGMOJEHG@Unexpected?5buffer?5end?$AA@ 00000001400a8bf8     imagelib.obj
 0002:0000fc10       ??_C@_0BP@KDPHDDGI@Decompression?5exceeded?5width?$CB?6?$AA@ 00000001400a8c10     imagelib.obj
 0002:0000fc30       ??_C@_0BO@NMBHMAMN@No?5FORM?5ID?5at?5start?5of?5file?$CB?6?$AA@ 00000001400a8c30     imagelib.obj
 0002:0000fc50       ??_C@_0CC@DLOOEHBO@Unrecognized?5form?5type?3?5?$CFc?$CFc?$CFc?$CFc@ 00000001400a8c50     imagelib.obj
 0002:0000fc78       ??_C@_0BJ@DJDAEHMK@?4?4?2src?2common?2imagelib?4c?$AA@ 00000001400a8c78     imagelib.obj
 0002:0000fc98       ??_C@_0CE@GCPONPDK@?$CFs?5is?5an?5interlaced?5LBM?0?5not?5pac@ 00000001400a8c98     imagelib.obj
 0002:0000fcc0       ??_C@_0BK@BIFIACNC@LoadPCX?3?5Couldn?8t?5read?5?$CFs?$AA@ 00000001400a8cc0     imagelib.obj
 0002:0000fce0       ??_C@_0BA@FBKLBCOL@Bad?5pcx?5file?5?$CFs?$AA@ 00000001400a8ce0     imagelib.obj
 0002:0000fcf0       ??_C@_0BL@KCHBMDMC@LoadPCX?3?5couldn?8t?5allocate?$AA@ 00000001400a8cf0     imagelib.obj
 0002:0000fd10       ??_C@_0BK@PFOMPPID@PCX?5file?5?$CFs?5was?5malformed?$AA@ 00000001400a8d10     imagelib.obj
 0002:0000fd30       ??_C@_0BB@MDAOGLLK@Couldn?8t?5read?5?$CFs?$AA@ 00000001400a8d30     imagelib.obj
 0002:0000fd48       ??_C@_0BF@MPPNHJEE@?$CFs?5is?5not?5a?5bmp?5file?$AA@ 00000001400a8d48     imagelib.obj
 0002:0000fd60       ??_C@_0BL@PFFAIBNH@?$CFs?5had?5strange?5struct?5size?$AA@ 00000001400a8d60     imagelib.obj
 0002:0000fd80       ??_C@_0CA@DACALJDO@?$CFs?5was?5not?5a?5single?5plane?5image?$AA@ 00000001400a8d80     imagelib.obj
 0002:0000fda0       ??_C@_0BK@MJHEMFNG@?$CFs?5was?5not?5an?58?5bit?5image?$AA@ 00000001400a8da0     imagelib.obj
 0002:0000fdbc       ??_C@_03DEELGCPM@lbm?$AA@  00000001400a8dbc     imagelib.obj
 0002:0000fdc0       ??_C@_03BIPDAGPI@pcx?$AA@  00000001400a8dc0     imagelib.obj
 0002:0000fdc4       ??_C@_03CAKEDOOO@bmp?$AA@  00000001400a8dc4     imagelib.obj
 0002:0000fdc8       ??_C@_0CI@NOFBLPIA@?$CFs?5doesn?8t?5have?5a?5known?5image?5ex@ 00000001400a8dc8     imagelib.obj
 0002:0000fdf0       ??_C@_0BCN@IFBELLCB@?$CFs?6?3TargaHeader?3?6uint8?5id_length@ 00000001400a8df0     imagelib.obj
 0002:0000ff20       ??_C@_0DD@GDIMONBE@LoadTGA?3?5only?5up?5to?5256?5colormap@ 00000001400a8f20     imagelib.obj
 0002:0000ff58       ??_C@_0CH@ILNMLEOO@LoadTGA?3?5colormap_index?5not?5supp@ 00000001400a8f58     imagelib.obj
 0002:0000ff80       ??_C@_0DF@EKOMHLCN@LoadTGA?3?5Only?532?5and?524?5bit?5colo@ 00000001400a8f80     imagelib.obj
 0002:0000ffc0       ??_C@_0FD@DGPICPKO@LoadTGA?3?5only?524bit?5and?532bit?5pi@ 00000001400a8fc0     imagelib.obj
 0002:00010020       ??_C@_0EJ@KOBMPHKL@LoadTGA?3?5only?58bit?5pixel?5size?5fo@ 00000001400a9020     imagelib.obj
 0002:00010070       ??_C@_0EF@MOLBBHEK@LoadTGA?3?5Only?5type?51?0?52?0?53?0?59?0?51@ 00000001400a9070     imagelib.obj
 0002:000100c0       ??_C@_0GC@LPMPAFDF@LoadTGA?3?5origin?5must?5be?5in?5top?5l@ 00000001400a90c0     imagelib.obj
 0002:00010128       ??_C@_0DH@CBFMEAP@LoadTGA?3?5only?50?5or?58?5attribute?5?$CI@ 00000001400a9128     imagelib.obj
 0002:00010160       ??_C@_0CP@PKEKLNLA@LoadTGA?3?5not?5enough?5memory?5for?5?$CF@ 00000001400a9160     imagelib.obj
 0002:00010190       ??_C@_05BBEJFBFA@point?$AA@ 00000001400a9190     inout.obj
 0002:00010198       ??_C@_0BJ@JGIKIPA@Got?5to?5split?5the?5buffer?6?$AA@ 00000001400a9198     inout.obj
 0002:000101b8       ??_C@_0P@GLJKFNNA@Worldspawn?3?5?$CFs?$AA@ 00000001400a91b8     inout.obj
 0002:000101c8       ??_C@_0N@KKKEOKLI@Brush?5?$CFi?3?5?$CFs?$AA@ 00000001400a91c8     inout.obj
 0002:000101d8       ??_C@_0O@IKADAAMI@Entity?5?$CFi?3?5?$CFs?$AA@ 00000001400a91d8     inout.obj
 0002:000101e8       ??_C@_0BI@ILDEPJA@Entity?5?$CFi?0?5Brush?5?$CFi?3?5?$CFs?$AA@ 00000001400a91e8     inout.obj
 0002:00010200       ??_C@_06LGNCCACI@select?$AA@ 00000001400a9200     inout.obj
 0002:00010208       ??_C@_05KHPFCEDO@?$CFi?5?$CFi?$AA@ 00000001400a9208     inout.obj
 0002:00010210       ??_C@_05CPGBCEKK@brush?$AA@ 00000001400a9210     inout.obj
 0002:00010218       ??_C@_08HFFLLPDH@pointmsg?$AA@ 00000001400a9218     inout.obj
 0002:00010228       ??_C@_08MHIFFAO@?$CFg?5?$CFg?5?$CFg?$AA@ 00000001400a9228     inout.obj
 0002:00010238       ??_C@_0O@PLFEGIJN@?$CFs?5?$CI?$CFg?5?$CFg?5?$CFg?$CJ?$AA@ 00000001400a9238     inout.obj
 0002:00010248       ??_C@_02DKCKIIND@?$CFs?$AA@ 00000001400a9248     inout.obj
 0002:00010250       ??_C@_0L@BMBGBKFI@windingmsg?$AA@ 00000001400a9250     inout.obj
 0002:00010260       ??_C@_0L@BHKAHNLB@?$CI?$CFg?5?$CFg?5?$CFg?$CJ?$AA@ 00000001400a9260     inout.obj
 0002:00010270       ??_C@_07FCPBKNEN@winding?$AA@ 00000001400a9270     inout.obj
 0002:00010278       ??_C@_0DC@KKGLIHDH@?$DM?$DPxml?5version?$DN?$CC1?40?$CC?$DP?$DO?$DMq3map_feed@ 00000001400a9278     inout.obj
 0002:000102b0       ??_C@_0P@MADLCHIF@Disconnecting?6?$AA@ 00000001400a92b0     inout.obj
 0002:000102c0       ??_C@_03HLLJOCDO@1?40?$AA@ 00000001400a92c0     inout.obj
 0002:000102c8       ??_C@_0P@FNEAICOD@q3map_feedback?$AA@ 00000001400a92c8     inout.obj
 0002:000102d8       ??_C@_04PHMFGFKF@?9?9?9?5?$AA@ 00000001400a92d8     inout.obj
 0002:000102e0       ??_C@_04LKPLNPFJ@?5?9?9?9?$AA@ 00000001400a92e0     inout.obj
 0002:000102e8       ??_C@_06DJHOIPC@?$CFs?3?5?$CFs?$AA@ 00000001400a92e8     inout.obj
 0002:000102f0       ??_C@_0CE@IAIGJDHE@?$CK?$CK?$CK?$CK?$CK?$CK?$CK?$CK?$CK?$CK?$CK?$CK?5ERROR?5?$CK?$CK?$CK?$CK?$CK?$CK?$CK?$CK?$CK?$CK?$CK?$CK?6@ 00000001400a92f0     inout.obj
 0002:00010318       ??_C@_0DE@OGDIKFJE@AllocWinding?5failed?3?5MAX_POINTS_@ 00000001400a9318     polylib.obj
 0002:00010350       ??_C@_0BI@LKFPFELC@?4?4?2src?2common?2polylib?4c?$AA@ 00000001400a9350     polylib.obj
 0002:00010368       ??_C@_0CD@BOFJFDD@FreeWinding?3?5freed?5a?5freed?5windi@ 00000001400a9368     polylib.obj
 0002:00010390       ??_C@_0CD@BHBKGNIF@BaseWindingForPlane?3?5no?5axis?5fou@ 00000001400a9390     polylib.obj
 0002:000103b8       ??_C@_0CG@OLJCNKCC@ClipWinding?3?5points?5exceeded?5est@ 00000001400a93b8     polylib.obj
 0002:000103e0       ??_C@_0CD@PEDPMDOJ@ClipWinding?3?5MAX_POINTS_ON_WINDI@ 00000001400a93e0     polylib.obj
 0002:00010408       ??_C@_0CN@JDEAJBGI@ChopWindingInPlace?3?5points?5excee@ 00000001400a9408     polylib.obj
 0002:00010438       ??_C@_0CK@OFOJPFCA@ChopWindingInPlace?3?5MAX_POINTS_O@ 00000001400a9438     polylib.obj
 0002:00010468       ??_C@_0DF@FFOPLJBD@AllocDWinding?5failed?3?5MAX_POINTS@ 00000001400a9468     polylib.obj
 0002:000104a0       ??_C@_0CE@NBEJOLPJ@FreeDWinding?3?5freed?5a?5freed?5wind@ 00000001400a94a0     polylib.obj
 0002:000104c8       ??_C@_0CO@FFFMELEF@ChopDWindingInPlace?3?5points?5exce@ 00000001400a94c8     polylib.obj
 0002:000104f8       ??_C@_0CL@NGNDLDMJ@ChopDWindingInPlace?3?5MAX_POINTS_@ 00000001400a94f8     polylib.obj
 0002:00010528       ??_C@_0CC@KGOJGFKG@script?5file?5exceeded?5MAX_INCLUDE@ 00000001400a9528     scriplib.obj
 0002:00010550       ??_C@_0BO@NCKPAALA@Script?5file?5?$CFs?5was?5not?5found?6?$AA@ 00000001400a9550     scriplib.obj
 0002:00010570       ??_C@_0BC@GFPMCBNE@?5?5?5?5?5?5?5?5?5?$CFs?5?$CI?$CFd?$CJ?6?$AA@ 00000001400a9570     scriplib.obj
 0002:00010588       ??_C@_0N@NLOGDHKD@?5?5?5?5?5?5?5?5?5?$CFs?6?$AA@ 00000001400a9588     scriplib.obj
 0002:00010598       ??_C@_0O@DIEIKEFB@memory?5buffer?$AA@ 00000001400a9598     scriplib.obj
 0002:000105a8       ??_C@_0CC@FOKBMNCN@Script?5?$CFs?3?5line?5?$CFi?5is?5incomplete@ 00000001400a95a8     scriplib.obj
 0002:000105d0       ??_C@_0CM@DNOPOGIN@Attempt?5to?5free?5already?5freed?5sc@ 00000001400a95d0     scriplib.obj
 0002:00010600       ??_C@_0BB@CJEABCA@returning?5to?5?$CFs?6?$AA@ 00000001400a9600     scriplib.obj
 0002:00010618       ??_C@_0BM@NCGMJOHK@Token?5too?5large?5on?5line?5?$CFi?6?$AA@ 00000001400a9618     scriplib.obj
 0002:00010638       ??_C@_08LNBPPNO@$include?$AA@ 00000001400a9638     scriplib.obj
 0002:00010648       ??_C@_0DA@FLHDPIHP@MatchToken?$CI?5?$CC?$CFs?$CC?5?$CJ?5failed?5at?5lin@ 00000001400a9648     scriplib.obj
 0002:00010678       ??_C@_0CN@MLBMOIEI@RunThreadsOnIndividual?3?5recursiv@ 00000001400a9678     threads.obj
 0002:000106a8       ??_C@_0CD@OCNCGLKE@RunThreadsOn?3?5recursively?5entere@ 00000001400a96a8     threads.obj
 0002:000106d0       ??_C@_0CG@FKGBECLL@RunSameThreadOn?3?5recursively?5ent@ 00000001400a96d0     threads.obj
 0002:000106f8       ??_C@_0DA@HIAINGFG@RunSameThreadOnIndividual?3?5recur@ 00000001400a96f8     threads.obj
 0002:00010728       ??_C@_0N@JGGCIDBL@?5?$CFi?5threads?6?$AA@ 00000001400a9728     threads.obj
 0002:00010738       ??_C@_0BG@BEEOCMHK@Recursive?5ThreadLock?6?$AA@ 00000001400a9738     threads.obj
 0002:00010750       ??_C@_0BL@HADBLPO@ThreadUnlock?5without?5lock?6?$AA@ 00000001400a9750     threads.obj
 0002:00010770       ??_C@_0EE@LDFEGMKI@_ThreadMutexInit?$CI?$CFs?3?$CFi?$CJ?3?5double?5@ 00000001400a9770     threads.obj
 0002:000107b8       ??_C@_0CO@CNJDADJH@ThreadMutexLock?$CI?$CFs?3?$CFi?$CJ?3?5mutex?5no@ 00000001400a97b8     threads.obj
 0002:000107e8       ??_C@_0CI@BGAPEOPC@ThreadMutexLock?$CI?$CFs?3?$CFi?$CJ?3?5mutex?5wa@ 00000001400a97e8     threads.obj
 0002:00010810       ??_C@_0DL@GBKBGIMM@ThreadMutexLock?$CI?$CFs?3?$CFi?$CJ?3?5recursiv@ 00000001400a9810     threads.obj
 0002:00010850       ??_C@_0EF@CHACMGJD@ThreadMutexUnlock?$CI?$CFs?3?$CFi?$CJ?3?5mutex?5@ 00000001400a9850     threads.obj
 0002:00010898       ??_C@_0DA@ICBPPJGF@ThreadMutexDelete?$CI?$CFs?3?$CFi?$CJ?3?5mutex?5@ 00000001400a9898     threads.obj
 0002:000108c8       ??_C@_0BG@PGAGDHIH@?4?4?2src?2common?2unzip?4c?$AA@ 00000001400a98c8     unzip.obj
 0002:000108e0       ??_C@_05HBMFIKCP@1?41?43?$AA@ 00000001400a98e0     unzip.obj
 0002:000108f0       ?g_m4x4_identity@@3QBMB    00000001400a98f0     mathlib:m4x4.obj
 0002:00010930       ?vec3_origin@@3QBMB        00000001400a9930     mathlib:mathlib.obj
 0002:00010940       ?g_vec3_axis_x@@3QBMB      00000001400a9940     mathlib:mathlib.obj
 0002:00010950       ?g_vec3_axis_y@@3QBMB      00000001400a9950     mathlib:mathlib.obj
 0002:00010960       ?g_vec3_axis_z@@3QBMB      00000001400a9960     mathlib:mathlib.obj
 0002:00010fb8       ??_C@_0BD@PJCBIDD@invalid?5block?5type?$AA@ 00000001400a9fb8     unzip.obj
 0002:00010fd0       ??_C@_0BN@LGAADGOK@invalid?5stored?5block?5lengths?$AA@ 00000001400a9fd0     unzip.obj
 0002:00010ff0       ??_C@_0CE@GMIGFPBB@too?5many?5length?5or?5distance?5symb@ 00000001400a9ff0     unzip.obj
 0002:00011018       ??_C@_0BK@BMMPFBBH@invalid?5bit?5length?5repeat?$AA@ 00000001400aa018     unzip.obj
 0002:00011038       ??_C@_0CI@CGMOPDPD@oversubscribed?5dynamic?5bit?5lengt@ 00000001400aa038     unzip.obj
 0002:00011060       ??_C@_0CE@LOHAHEGK@incomplete?5dynamic?5bit?5lengths?5t@ 00000001400aa060     unzip.obj
 0002:00011088       ??_C@_0CD@GJIDGCKE@oversubscribed?5literal?1length?5tr@ 00000001400aa088     unzip.obj
 0002:000110b0       ??_C@_0BP@NEEEJJNA@incomplete?5literal?1length?5tree?$AA@ 00000001400aa0b0     unzip.obj
 0002:000110d0       ??_C@_0BN@KBLCDIAI@oversubscribed?5distance?5tree?$AA@ 00000001400aa0d0     unzip.obj
 0002:000110f0       ??_C@_0BJ@CBCPDPJF@incomplete?5distance?5tree?$AA@ 00000001400aa0f0     unzip.obj
 0002:00011110       ??_C@_0CB@KPKKKLFO@empty?5distance?5tree?5with?5lengths@ 00000001400aa110     unzip.obj
 0002:00011138       ??_C@_0BG@LBKINIKP@invalid?5distance?5code?$AA@ 00000001400aa138     unzip.obj
 0002:00011150       ??_C@_0BM@FFFLPBBC@invalid?5literal?1length?5code?$AA@ 00000001400aa150     unzip.obj
 0002:00011170       ??_C@_0BL@IHKGDAEE@unknown?5compression?5method?$AA@ 00000001400aa170     unzip.obj
 0002:00011190       ??_C@_0BE@EMOGCLGO@invalid?5window?5size?$AA@ 00000001400aa190     unzip.obj
 0002:000111a8       ??_C@_0BH@LIBMMIGA@incorrect?5header?5check?$AA@ 00000001400aa1a8     unzip.obj
 0002:000111c0       ??_C@_0BA@MOKMMFOD@need?5dictionary?$AA@ 00000001400aa1c0     unzip.obj
 0002:000111d0       ??_C@_0BF@MEIGEHBE@incorrect?5data?5check?$AA@ 00000001400aa1d0     unzip.obj
 0002:000111e8       ??_C@_01KMDKNFGN@?1?$AA@   00000001400aa1e8     vfs.obj
 0002:000111f0       ??_C@_0BE@MCLNGCKN@?4?4?2src?2common?2vfs?4c?$AA@ 00000001400aa1f0     vfs.obj
 0002:00011208       ??_C@_0O@JIONNDDA@searching?5?$CFs?6?$AA@ 00000001400aa208     vfs.obj
 0002:00011218       ??_C@_04JMPKHIOK@?4pk3?$AA@ 00000001400aa218     vfs.obj
 0002:00011220       ??_C@_0BP@ENJENGEF@Net_Connect?3?5error?5connecting?6?$AA@ 00000001400aa220     l_net:l_net.obj
 0002:00011240       ??_C@_0BC@JDHOJGDF@my?5address?5is?5?$CFs?6?$AA@ 00000001400aa240     l_net:l_net.obj
 0002:00011258       ??_C@_0BK@BKKFD@NMSG_WriteLong?3?5overflow?6?$AA@ 00000001400aa258     l_net:l_net.obj
 0002:00011278       ??_C@_0BM@NPFIGKNK@NMSG_WriteString?3?5overflow?6?$AA@ 00000001400aa278     l_net:l_net.obj
 0002:000112a0       ??_C@_0ED@KLGNMAAN@WSANO_DATA?5?9?5?$CIor?5WSANO_ADDRESS?$CJ?5@ 00000001400aa2a0     l_net:l_net_wins.obj
 0002:000112e8       ??_C@_0CH@MNBEANNM@WSANO_RECOVERY?5?9?5Non?9recoverable@ 00000001400aa2e8     l_net:l_net_wins.obj
 0002:00011310       ??_C@_0CM@NIJENLIP@WSATRY_AGAIN?5?9?5Host?5not?5found?5or@ 00000001400aa310     l_net:l_net_wins.obj
 0002:00011340       ??_C@_0CD@FIOPIIMH@WSAHOST_NOT_FOUND?5?9?5Host?5not?5fou@ 00000001400aa340     l_net:l_net_wins.obj
 0002:00011370       ??_C@_0EC@PNLKLDMM@WSANOTINITIALISED?5?9?5WSAStartup?$CI?$CJ@ 00000001400aa370     l_net:l_net_wins.obj
 0002:000113b8       ??_C@_0CL@ICJCFBCG@WSAVERNOTSUPPORTED?5?9?5Version?5not@ 00000001400aa3b8     l_net:l_net_wins.obj
 0002:000113e8       ??_C@_0CN@HIHNEGM@WSASYSNOTREADY?5?9?5Network?5subsyst@ 00000001400aa3e8     l_net:l_net_wins.obj
 0002:00011418       ??_C@_0O@PPALPDIO@WSAEREMOTE?5?9?5?$AA@ 00000001400aa418     l_net:l_net_wins.obj
 0002:00011428       ??_C@_0N@DFKHLHCA@WSAESTALE?5?9?5?$AA@ 00000001400aa428     l_net:l_net_wins.obj
 0002:00011438       ??_C@_0N@PNGDOCLN@WSAEDQUOT?5?9?5?$AA@ 00000001400aa438     l_net:l_net_wins.obj
 0002:00011448       ??_C@_0N@GOELOCGJ@WSAEUSERS?5?9?5?$AA@ 00000001400aa448     l_net:l_net_wins.obj
 0002:00011458       ??_C@_0P@MDNPHFEP@WSAEPROCLIM?5?9?5?$AA@ 00000001400aa458     l_net:l_net_wins.obj
 0002:00011468       ??_C@_0BA@ELHOFAIN@WSAENOTEMPTY?5?9?5?$AA@ 00000001400aa468     l_net:l_net_wins.obj
 0002:00011478       ??_C@_0BD@OKNNHICN@WSAEHOSTUNREACH?5?9?5?$AA@ 00000001400aa478     l_net:l_net_wins.obj
 0002:00011490       ??_C@_0BM@FBALEGOF@WSAEHOSTDOWN?5?9?5Host?5is?5down?$AA@ 00000001400aa490     l_net:l_net_wins.obj
 0002:000114b0       ??_C@_0BD@NIJNAHAH@WSAENAMETOOLONG?5?9?5?$AA@ 00000001400aa4b0     l_net:l_net_wins.obj
 0002:000114c8       ??_C@_0M@MHKHOAIP@WSAELOOP?5?9?5?$AA@ 00000001400aa4c8     l_net:l_net_wins.obj
 0002:000114d8       ??_C@_0CF@JLJDAIGA@WSAECONNREFUSED?5?9?5Connection?5ref@ 00000001400aa4d8     l_net:l_net_wins.obj
 0002:00011500       ??_C@_0CB@HGINHGKF@WSAETIMEDOUT?5?9?5Command?5timed?5out@ 00000001400aa500     l_net:l_net_wins.obj
 0002:00011528       ??_C@_0CG@KMIDMDI@WSAETOOMANYREFS?5?9?5Too?5many?5refer@ 00000001400aa528     l_net:l_net_wins.obj
 0002:00011550       ??_C@_0CJ@NKAICJOH@WSAESHUTDOWN?5?9?5Socket?5has?5been?5s@ 00000001400aa550     l_net:l_net_wins.obj
 0002:00011580       ??_C@_0CG@OONDCCCJ@WSAENOTCONN?5?9?5Socket?5is?5not?5conn@ 00000001400aa580     l_net:l_net_wins.obj
 0002:000115a8       ??_C@_0CJ@NEEDJHCH@WSAEISCONN?5?9?5Socket?5is?5already?5c@ 00000001400aa5a8     l_net:l_net_wins.obj
 0002:000115d8       ??_C@_0CH@HPMIIJBH@WSAENOBUFS?5?9?5No?5buffer?5space?5ava@ 00000001400aa5d8     l_net:l_net_wins.obj
 0002:00011600       ??_C@_0CB@JENOABEC@WSAECONNRESET?5?9?5Connection?5reset@ 00000001400aa600     l_net:l_net_wins.obj
 0002:00011628       ??_C@_0CF@DJKMOKDI@WSAECONNABORTED?5?9?5Connection?5abo@ 00000001400aa628     l_net:l_net_wins.obj
 0002:00011650       ??_C@_0CL@NHGFMIDP@WSAENETRESET?5?9?5Connection?5has?5be@ 00000001400aa650     l_net:l_net_wins.obj
 0002:00011680       ??_C@_0CL@JCADKOHM@WSAENETUNREACH?5?9?5Network?5cannot?5@ 00000001400aa680     l_net:l_net_wins.obj
 0002:000116b0       ??_C@_0CI@KHPAKCFP@WSAENETDOWN?5?9?5Network?5subsystem?5@ 00000001400aa6b0     l_net:l_net_wins.obj
 0002:000116d8       ??_C@_0DM@JBIMENLK@WSAEADDRNOTAVAIL?5?9?5Address?5not?5a@ 00000001400aa6d8     l_net:l_net_wins.obj
 0002:00011718       ??_C@_0CC@KLLALJEA@WSAEADDRINUSE?5?9?5Address?5is?5in?5us@ 00000001400aa718     l_net:l_net_wins.obj
 0002:00011740       ??_C@_0EA@CGAINMJB@WSAEAFNOSUPPORT?5?9?5Address?5family@ 00000001400aa740     l_net:l_net_wins.obj
 0002:00011780       ??_C@_0BD@FBDCCMIG@WSAEPFNOSUPPORT?5?9?5?$AA@ 00000001400aa780     l_net:l_net_wins.obj
 0002:00011798       ??_C@_0CF@JLNOFMDM@WSAEOPNOTSUPP?5?9?5Option?5not?5suppo@ 00000001400aa798     l_net:l_net_wins.obj
 0002:000117c0       ??_C@_0EG@CBHHCKG@WSAESOCKTNOSUPPORT?5?9?5Socket?5type@ 00000001400aa7c0     l_net:l_net_wins.obj
 0002:00011808       ??_C@_0CP@LMBJGIGA@WSAEPROTONOSUPPORT?5?9?5Protocol?5is@ 00000001400aa808     l_net:l_net_wins.obj
 0002:00011840       ??_C@_0EE@OGEDGGGC@WSAENOPROTOOPT?5?9?5Protocol?5option@ 00000001400aa840     l_net:l_net_wins.obj
 0002:00011888       ??_C@_0DK@BBJONAIK@WSAEPROTOTYPE?5?9?5Protocol?5is?5of?5w@ 00000001400aa888     l_net:l_net_wins.obj
 0002:000118c8       ??_C@_0CC@BJGJIOGN@WSAEMSGSIZE?5?9?5Data?5size?5too?5larg@ 00000001400aa8c8     l_net:l_net_wins.obj
 0002:000118f0       ??_C@_0CP@NBFKDOMD@WSAEDESTADDRREQ?5?9?5Destination?5ad@ 00000001400aa8f0     l_net:l_net_wins.obj
 0002:00011920       ??_C@_0CJ@IHMNOKOC@WSAENOTSOCK?5?9?5Descriptor?5is?5not?5@ 00000001400aa920     l_net:l_net_wins.obj
 0002:00011950       ??_C@_0CI@CLPJFEDE@WSAEALREADY?5?9?5Command?5already?5co@ 00000001400aa950     l_net:l_net_wins.obj
 0002:00011978       ??_C@_0CL@ODFACHKO@WSAEINPROGRESS?5?9?5Blocking?5call?5i@ 00000001400aa978     l_net:l_net_wins.obj
 0002:000119a8       ??_C@_0CP@PCFMADAL@WSAEWOULDBLOCK?5?9?5Socket?5marked?5a@ 00000001400aa9a8     l_net:l_net_wins.obj
 0002:000119d8       ??_C@_0CA@JNOCEKHM@WSAEMFILE?5?9?5Too?5many?5open?5files?$AA@ 00000001400aa9d8     l_net:l_net_wins.obj
 0002:000119f8       ??_C@_0BN@NKOKDEFN@WSAEINVAL?5?9?5Invalid?5argument?$AA@ 00000001400aa9f8     l_net:l_net_wins.obj
 0002:00011a18       ??_C@_0BI@BGPDMPDD@WSAEFAULT?5?9?5Bad?5address?$AA@ 00000001400aaa18     l_net:l_net_wins.obj
 0002:00011a30       ??_C@_0BL@NMHHOKDD@WSAEBADF?5?9?5Bad?5file?5number?$AA@ 00000001400aaa30     l_net:l_net_wins.obj
 0002:00011a50       ??_C@_0BH@NKPJENL@WSAEINTR?5?9?5Interrupted?$AA@ 00000001400aaa50     l_net:l_net_wins.obj
 0002:00011a68       ??_C@_0BC@LLHPEMNO@No?5error?5occurred?$AA@ 00000001400aaa68     l_net:l_net_wins.obj
 0002:00011a80       ??_C@_0O@NIPGCINC@Unknown?5error?$AA@ 00000001400aaa80     l_net:l_net_wins.obj
 0002:00011a90       ??_C@_0CA@NIAKKNJM@Winsock?5initialization?5failed?4?6?$AA@ 00000001400aaa90     l_net:l_net_wins.obj
 0002:00011ab0       ??_C@_0CK@BELBCJEE@WINS_Init?3?5Unable?5to?5open?5contro@ 00000001400aaab0     l_net:l_net_wins.obj
 0002:00011ae0       ??_C@_0BF@DNHJMPMJ@Winsock?5Initialized?6?$AA@ 00000001400aaae0     l_net:l_net_wins.obj
 0002:00011af8       ??_C@_0BF@GHCBGMEC@WINS_OpenSocket?3?5?$CFs?6?$AA@ 00000001400aaaf8     l_net:l_net_wins.obj
 0002:00011b10       ??_C@_0BN@HEFIFNIH@WINS_OpenReliableSocket?3?5?$CFs?6?$AA@ 00000001400aab10     l_net:l_net_wins.obj
 0002:00011b30       ??_C@_0BC@KDHCBADH@setsockopt?5error?6?$AA@ 00000001400aab30     l_net:l_net_wins.obj
 0002:00011b48       ??_C@_0BG@BMHOIPBH@WINS_CloseSocket?3?5?$CFs?6?$AA@ 00000001400aab48     l_net:l_net_wins.obj
 0002:00011b60       ??_C@_0BC@KJLNHMNM@WINS_Connect?3?5?$CFs?6?$AA@ 00000001400aab60     l_net:l_net_wins.obj
 0002:00011b78       ??_C@_0BA@BHBJOIIP@WINS_Write?3?5?$CFs?6?$AA@ 00000001400aab78     l_net:l_net_wins.obj
 0002:00011b88       ??_C@_0P@OGJLBNEC@?$CFd?4?$CFd?4?$CFd?4?$CFd?3?$CFd?$AA@ 00000001400aab88     l_net:l_net_wins.obj
 0002:00011b98       ??_C@_09PFCHIMEP@127?40?40?41?$AA@ 00000001400aab98     l_net:l_net_wins.obj
 0002:00011ba8       __real@3f847ae147ae147b    00000001400aaba8      CIL library: CIL module
 0002:00011bb0       __real@3fe0000000000000    00000001400aabb0      CIL library: CIL module
 0002:00011bc0       __mask@@AbsDouble@         00000001400aabc0      CIL library: CIL module
 0002:00011bd0       __real@3ff0000000000000    00000001400aabd0      CIL library: CIL module
 0002:00011bd8       __real@bf800000            00000001400aabd8      CIL library: CIL module
 0002:00011bdc       __real@3f800000            00000001400aabdc      CIL library: CIL module
 0002:00011be0       __real@c7c34f80            00000001400aabe0      CIL library: CIL module
 0002:00011be4       __real@47c34f80            00000001400aabe4      CIL library: CIL module
 0002:00011be8       __real@0000000000000000    00000001400aabe8      CIL library: CIL module
 0002:00011bf0       __mask@@NegFloat@          00000001400aabf0      CIL library: CIL module
 0002:00011c00       __real@3fb999999999999a    00000001400aac00      CIL library: CIL module
 0002:00011c08       __real@bfb999999999999a    00000001400aac08      CIL library: CIL module
 0002:00011c10       __real@3fc999999999999a    00000001400aac10      CIL library: CIL module
 0002:00011c18       __real@3f000000            00000001400aac18      CIL library: CIL module
 0002:00011c20       __real@3fac28f5c28f5c29    00000001400aac20      CIL library: CIL module
 0002:00011c28       __real@3fdaaaaaaaaaaaab    00000001400aac28      CIL library: CIL module
 0002:00011c30       __real@4029d70a3d70a3d7    00000001400aac30      CIL library: CIL module
 0002:00011c38       __real@3ff0e147ae147ae1    00000001400aac38      CIL library: CIL module
 0002:00011c40       __real@3f69a5c37387b719    00000001400aac40      CIL library: CIL module
 0002:00011c50       __mask@@NegDouble@         00000001400aac50      CIL library: CIL module
 0002:00011c60       __real@406fe00000000000    00000001400aac60      CIL library: CIL module
 0002:00011c68       __real@3f70101010101010    00000001400aac68      CIL library: CIL module
 0002:00011c70       __real@80000000            00000001400aac70      CIL library: CIL module
 0002:00011c74       __real@3a83126f            00000001400aac74      CIL library: CIL module
 0002:00011c78       __real@3b808081            00000001400aac78      CIL library: CIL module
 0002:00011c80       __real@3ff00068db8b8000    00000001400aac80      CIL library: CIL module
 0002:00011c88       __real@bf1a36e2e0000000    00000001400aac88      CIL library: CIL module
 0002:00011c90       __real@3ff028f5c2800000    00000001400aac90      CIL library: CIL module
 0002:00011c98       __real@bf847ae140000000    00000001400aac98      CIL library: CIL module
 0002:00011ca0       __real@3fd0000000000000    00000001400aaca0      CIL library: CIL module
 0002:00011ca8       __real@3fee54edcd0aeb60    00000001400aaca8      CIL library: CIL module
 0002:00011cb0       __real@4003333333333333    00000001400aacb0      CIL library: CIL module
 0002:00011cb8       __real@3fac28f5c0000000    00000001400aacb8      CIL library: CIL module
 0002:00011cc0       __real@3fb3d0722149b580    00000001400aacc0      CIL library: CIL module
 0002:00011cc8       __real@3fa4b5dcc63f1412    00000001400aacc8      CIL library: CIL module
 0002:00011cd0       __real@497423f0            00000001400aacd0      CIL library: CIL module
 0002:00011cd4       __real@38d1b717            00000001400aacd4      CIL library: CIL module
 0002:00011cd8       __real@47800000            00000001400aacd8      CIL library: CIL module
 0002:00011cdc       __real@c7800000            00000001400aacdc      CIL library: CIL module
 0002:00011ce0       __real@4cbebc20            00000001400aace0      CIL library: CIL module
 0002:00011ce4       __real@437f0000            00000001400aace4      CIL library: CIL module
 0002:00011cf0       __mask@@AbsFloat@          00000001400aacf0      CIL library: CIL module
 0002:00011d00       __real@38000100            00000001400aad00      CIL library: CIL module
 0002:00011d04       __real@3c8efa35            00000001400aad04      CIL library: CIL module
 0002:00011d08       __real@3f355555            00000001400aad08      CIL library: CIL module
 0002:00011d0c       __real@42652ee1            00000001400aad0c      CIL library: CIL module
 0002:00011d10       __real@3c008081            00000001400aad10      CIL library: CIL module
 0002:00011d14       __real@42fe0000            00000001400aad14      CIL library: CIL module
 0002:00011d18       __real@3727c5ac            00000001400aad18      CIL library: CIL module
 0002:00011d1c       __real@3c000000            00000001400aad1c      CIL library: CIL module
 0002:00011d20       __real@3e22f983            00000001400aad20      CIL library: CIL module
 0002:00011d24       __real@c0c9999a            00000001400aad24      CIL library: CIL module
 0002:00011d28       __real@40c9999a            00000001400aad28      CIL library: CIL module
 0002:00011d2c       __real@3eaaaaab            00000001400aad2c      CIL library: CIL module
 0002:00011d30       __real@3f400000            00000001400aad30      CIL library: CIL module
 0002:00011d34       __real@3aab5601            00000001400aad34      CIL library: CIL module
 0002:00011d38       __real@c97423f0            00000001400aad38      CIL library: CIL module
 0002:00011d3c       __real@3d800000            00000001400aad3c      CIL library: CIL module
 0002:00011d40       __real@3e800000            00000001400aad40      CIL library: CIL module
 0002:00011d44       __real@40000000            00000001400aad44      CIL library: CIL module
 0002:00011d48       __real@3f7d70a4            00000001400aad48      CIL library: CIL module
 0002:00011d4c       __real@3e000000            00000001400aad4c      CIL library: CIL module
 0002:00011d50       __real@43870000            00000001400aad50      CIL library: CIL module
 0002:00011d54       __real@43340000            00000001400aad54      CIL library: CIL module
 0002:00011d58       __real@42b40000            00000001400aad58      CIL library: CIL module
 0002:00011d5c       __real@c4800000            00000001400aad5c      CIL library: CIL module
 0002:00011d60       __real@44800000            00000001400aad60      CIL library: CIL module
 0002:00011d64       __real@41800000            00000001400aad64      CIL library: CIL module
 0002:00011d68       __real@3f50624dd2f1a9fc    00000001400aad68      CIL library: CIL module
 0002:00011d70       __real@3f647ae147ae147b    00000001400aad70      CIL library: CIL module
 0002:00011d78       __real@3f555554f9b515d5    00000001400aad78      CIL library: CIL module
 0002:00011d80       __real@4008000000000000    00000001400aad80      CIL library: CIL module
 0002:00011d88       __real@3f170a3d            00000001400aad88      CIL library: CIL module
 0002:00011d8c       __real@3e99999a            00000001400aad8c      CIL library: CIL module
 0002:00011d90       __real@3de147ae            00000001400aad90      CIL library: CIL module
 0002:00011d94       __real@38449992            00000001400aad94      CIL library: CIL module
 0002:00011d98       __real@3949116d            00000001400aad98      CIL library: CIL module
 0002:00011da0       __real@3ff147ae147ae148    00000001400aada0      CIL library: CIL module
 0002:00011da8       __real@3ffd1745d1745d17    00000001400aada8      CIL library: CIL module
 0002:00011db0       __real@41200000            00000001400aadb0      CIL library: CIL module
 0002:00011db4       __real@322bcc77            00000001400aadb4      CIL library: CIL module
 0002:00011db8       __real@c0800000            00000001400aadb8      CIL library: CIL module
 0002:00011dbc       __real@40800000            00000001400aadbc      CIL library: CIL module
 0002:00011dc0       __real@3d4ccccd            00000001400aadc0      CIL library: CIL module
 0002:00011dc8       __real@3eb0c6f7a0b5ed8d    00000001400aadc8      CIL library: CIL module
 0002:00011dd0       __real@3fd55553ef6b5d46    00000001400aadd0      CIL library: CIL module
 0002:00011dd8       __real@40700000            00000001400aadd8      CIL library: CIL module
 0002:00011ddc       __real@437e0000            00000001400aaddc      CIL library: CIL module
 0002:00011de0       __real@41000000            00000001400aade0      CIL library: CIL module
 0002:00011de4       __real@3d6147ae            00000001400aade4      CIL library: CIL module
 0002:00011de8       __real@4060000000000000    00000001400aade8      CIL library: CIL module
 0002:00011df0       __real@4090000000000000    00000001400aadf0      CIL library: CIL module
 0002:00011df8       __real@43700000            00000001400aadf8      CIL library: CIL module
 0002:00011dfc       __real@3ec90fdb            00000001400aadfc      CIL library: CIL module
 0002:00011e00       __real@3ec49809            00000001400aae00      CIL library: CIL module
 0002:00011e04       __real@3e449809            00000001400aae04      CIL library: CIL module
 0002:00011e08       __real@3fc00000            00000001400aae08      CIL library: CIL module
 0002:00011e0c       __real@bc23d70a            00000001400aae0c      CIL library: CIL module
 0002:00011e10       __real@3e45798ee2308c3a    00000001400aae10      CIL library: CIL module
 0002:00011e18       __real@be000000            00000001400aae18      CIL library: CIL module
 0002:00011e1c       __real@3d000000            00000001400aae1c      CIL library: CIL module
 0002:00011e20       __real@42000000            00000001400aae20      CIL library: CIL module
 0002:00011e24       __real@3f333333            00000001400aae24      CIL library: CIL module
 0002:00011e28       __real@c1000000            00000001400aae28      CIL library: CIL module
 0002:00011e2c       __real@3f666666            00000001400aae2c      CIL library: CIL module
 0002:00011e30       __real@c0400000            00000001400aae30      CIL library: CIL module
 0002:00011e34       __real@49000000            00000001400aae34      CIL library: CIL module
 0002:00011e38       __real@be800000            00000001400aae38      CIL library: CIL module
 0002:00011e40       __real@bf747ae147ae147b    00000001400aae40      CIL library: CIL module
 0002:00011e48       __real@3f747ae147ae147b    00000001400aae48      CIL library: CIL module
 0002:00011e50       __real@42c80000            00000001400aae50      CIL library: CIL module
 0002:00011e54       __real@47fde800            00000001400aae54      CIL library: CIL module
 0002:00011e58       __real@433b8000            00000001400aae58      CIL library: CIL module
 0002:00011e5c       __real@4b989680            00000001400aae5c      CIL library: CIL module
 0002:00011e60       __real@42ff0000            00000001400aae60      CIL library: CIL module
 0002:00011e64       __real@43960000            00000001400aae64      CIL library: CIL module
 0002:00011e68       __real@38800100            00000001400aae68      CIL library: CIL module
 0002:00011e6c       __real@43b40000            00000001400aae6c      CIL library: CIL module
 0002:00011e70       __real@3fa999999999999a    00000001400aae70      CIL library: CIL module
 0002:00011e78       __real@3c23d70a            00000001400aae78      CIL library: CIL module
 0002:00011e80       __real@3fefae147ae147ae    00000001400aae80      CIL library: CIL module
 0002:00011e88       __real@8000000000000000    00000001400aae88      CIL library: CIL module
 0002:00011e90       __real@40f0000000000000    00000001400aae90      CIL library: CIL module
 0002:00011e98       __real@c100000000000000    00000001400aae98      CIL library: CIL module
 0002:00011ea0       __real@40f8000000000000    00000001400aaea0      CIL library: CIL module
 0002:00011ea8       __real@3f59999a            00000001400aaea8      CIL library: CIL module
 0002:00011eac       __real@3f937207            00000001400aaeac      CIL library: CIL module
 0002:00011eb0       __real@3f7fbe77            00000001400aaeb0      CIL library: CIL module
 0002:00011eb4       __real@3f0192c0            00000001400aaeb4      CIL library: CIL module
 0002:00011eb8       __real@3e8192c0            00000001400aaeb8      CIL library: CIL module
 0002:00011ebc       __real@43000000            00000001400aaebc      CIL library: CIL module
 0002:00011ec0       __real@3fd51eb851eb851f    00000001400aaec0      CIL library: CIL module
 0002:00011ec8       __real@3fe570a3d70a3d71    00000001400aaec8      CIL library: CIL module
 0002:00011ed0       __real@3fd322d0e5604189    00000001400aaed0      CIL library: CIL module
 0002:00011ed8       __real@3fe2c8b439581062    00000001400aaed8      CIL library: CIL module
 0002:00011ee0       __real@3fbd2f1a9fbe76c9    00000001400aaee0      CIL library: CIL module
 0002:00011ee8       __real@3ff199999999999a    00000001400aaee8      CIL library: CIL module
 0002:00011ef0       __real@3cc30c31            00000001400aaef0      CIL library: CIL module
 0002:00011ef4       __real@4479c000            00000001400aaef4      CIL library: CIL module
 0002:00011ef8       __real@47c35000            00000001400aaef8      CIL library: CIL module
 0002:00011efc       __real@46800000            00000001400aaefc      CIL library: CIL module
 0002:00011f00       __real@bdcccccd            00000001400aaf00      CIL library: CIL module
 0002:00011f08       __real@3f60624dd2f1a9fc    00000001400aaf08      CIL library: CIL module
 0002:00011f10       __real@35800000            00000001400aaf10      CIL library: CIL module
 0002:00011f14       __real@3b800000            00000001400aaf14      CIL library: CIL module
 0002:00011f18       __real@358637bd            00000001400aaf18      CIL library: CIL module
 0002:00011f1c       __real@3e4ccccd            00000001400aaf1c      CIL library: CIL module
 0002:00011f20       __real@3ff4000000000000    00000001400aaf20      CIL library: CIL module
 0002:00011f28       __real@3fe8000000000000    00000001400aaf28      CIL library: CIL module
 0002:00011f30       __real@3de978d5            00000001400aaf30      CIL library: CIL module
 0002:00011f34       __real@3f1645a2            00000001400aaf34      CIL library: CIL module
 0002:00011f38       __real@3e991687            00000001400aaf38      CIL library: CIL module
 0002:00011f3c       __real@447a0000            00000001400aaf3c      CIL library: CIL module
 0002:00011f40       __real@c2800000            00000001400aaf40      CIL library: CIL module
 0002:00011f44       __real@44000000            00000001400aaf44      CIL library: CIL module
 0002:00011f48       __real@c3000000            00000001400aaf48      CIL library: CIL module
 0002:00011f50       __real@3f847ae140000000    00000001400aaf50      CIL library: CIL module
 0002:00011f58       __real@5f800000            00000001400aaf58      CIL library: CIL module
 0002:00011f60       __real@4061715424d5776b    00000001400aaf60      CIL library: CIL module
 0002:00011fb0       __rtc_iaa                  00000001400aafb0     MSVCRT:_initsect_.obj
 0002:00011fb8       __rtc_izz                  00000001400aafb8     MSVCRT:_initsect_.obj
 0002:00011fc0       __rtc_taa                  00000001400aafc0     MSVCRT:_initsect_.obj
 0002:00011fc8       __rtc_tzz                  00000001400aafc8     MSVCRT:_initsect_.obj
 0002:0001bf70       __IMPORT_DESCRIPTOR_libglib-2.0-0 00000001400b4f70     glib-2.0:libglib-2.0-0.dll
 0002:0001bf84       __IMPORT_DESCRIPTOR_libxml2-2 00000001400b4f84     libxml2:libxml2-2.dll
 0002:0001bf98       __IMPORT_DESCRIPTOR_libpng14-14 00000001400b4f98     libpng:libpng14-14.dll
 0002:0001bfac       __IMPORT_DESCRIPTOR_KERNEL32 00000001400b4fac     kernel32:KERNEL32.dll
 0002:0001bfc0       __IMPORT_DESCRIPTOR_MSVCR90 00000001400b4fc0     MSVCRT:MSVCR90.dll
 0002:0001bfd4       __IMPORT_DESCRIPTOR_WSOCK32 00000001400b4fd4     wsock32:WSOCK32.dll
 0002:0001bfe8       __NULL_IMPORT_DESCRIPTOR   00000001400b4fe8     glib-2.0:libglib-2.0-0.dll
 0003:00000000       _pico_ptr_malloc           00000001400b6000     picomodel:picointernal.obj
 0003:00000008       _pico_ptr_free             00000001400b6008     picomodel:picointernal.obj
 0003:00000010       picoModules                00000001400b6010     picomodel:picomodules.obj
 0003:00000070       fm_normals                 00000001400b6070     picomodel:pm_fm.obj
 0003:00000810       md2_normals                00000001400b6810     picomodel:pm_md2.obj
 0003:00000fb0       mdcNormals                 00000001400b6fb0     picomodel:pm_mdc.obj
 0003:000027bc       _fltused                   00000001400b87bc     MSVCRT:dllsupp.obj
 0003:000027c0       __native_dllmain_reason    00000001400b87c0     MSVCRT:natstart.obj
 0003:000027c4       __native_vcclrit_reason    00000001400b87c4     MSVCRT:natstart.obj
 0003:000027c8       __globallocalestatus       00000001400b87c8     MSVCRT:xthdloc.obj
 0003:000027cc       __defaultmatherr           00000001400b87cc     MSVCRT:merr.obj
 0003:000027d0       __security_cookie          00000001400b87d0     MSVCRT:gs_cookie.obj
 0003:000027d8       __security_cookie_complement 00000001400b87d8     MSVCRT:gs_cookie.obj
 0003:000027e0       errlist                    00000001400b87e0     l_net:l_net_wins.obj
 0003:00002b0c       ?deadWinding@@3HA          00000001400b8b0c     light_trace.obj
 0003:00002b10       ?inflate_mask@@3PAIA       00000001400b8b10     unzip.obj
 0003:00002b54       ?deadTriangle@@3HA         00000001400b8b54     light_trace.obj
 0003:00002b58       ?InitMergeMetaTriangles@@3W4qboolean@@A 00000001400b8b58     surface_meta.obj
 0003:00002b5c       ?importRtlightsColorscale@@3MA 00000001400b8b5c     decorations.obj
 0003:00003ea0       ?dirtVectors2@@3PAY02MA    00000001400b9ea0     light_ydnar.obj
 0003:00004098       ?importRtlightsSaturate@@3MA 00000001400ba098     decorations.obj
 0003:0000409c       ?importRtlightsRadiusmod@@3MA 00000001400ba09c     decorations.obj
 0003:000040a0       ?dirtVectors3@@3PAY02MA    00000001400ba0a0     light_ydnar.obj
 0003:00004838       ?importRtlightsNoShadowDeviance@@3MA 00000001400ba838     decorations.obj
 0003:0000483c       ?importRtlightsNoShadowSamples@@3MA 00000001400ba83c     decorations.obj
 0003:00004840       ?GridNormalsModel@@3PAY02MA 00000001400ba840     light.obj
 0003:00004a38       ?importRtlightsNoShadowMinDist@@3MA 00000001400baa38     decorations.obj
 0003:00004a3c       ?importRtlightsShadowMinDist@@3MA 00000001400baa3c     decorations.obj
 0003:00004a40       ?GridOffsetsModel@@3PAY02MA 00000001400baa40     light.obj
 0003:00004ae8       ?tidyShaders@@3W4qboolean@@A 00000001400baae8     optimize.obj
 0003:00004aec       ?tidyEntities@@3W4qboolean@@A 00000001400baaec     optimize.obj
 0003:00004af0       ?seDefault@@3UsurfaceExtra_s@@A 00000001400baaf0     surface_extra.obj
 0003:00004b60       ?baseaxis@@3PAY02MA        00000001400bab60     map.obj
 0003:00004c38       ?mergeBlock@@3PAMA         00000001400bac38     optimize.obj
 0003:00004c44       ?mergeDrawSurfaces@@3W4qboolean@@A 00000001400bac44     optimize.obj
 0003:00004c48       ?mergeDrawVerts@@3W4qboolean@@A 00000001400bac48     optimize.obj
 0003:00004c4c       ?makeResMap@@3W4qboolean@@A 00000001400bac4c     optimize.obj
 0003:00004c50       ?surfaceTypes@@3PAPEADA    00000001400bac50     main.obj
 0003:00004ca8       ?game@@3PEAUgame_s@@EA     00000001400baca8     main.obj
 0003:00004cb0       ?games@@3PAUgame_s@@A      00000001400bacb0     main.obj
 0003:00018af0       ?warnImage@@3W4qboolean@@A 00000001400ceaf0     main.obj
 0003:00018af4       ?patchSubdivisions@@3MA    00000001400ceaf4     main.obj
 0003:00018af8       ?maxLMSurfaceVerts@@3HA    00000001400ceaf8     main.obj
 0003:00018afc       ?maxSurfaceVerts@@3HA      00000001400ceafc     main.obj
 0003:00018b00       ?maxSurfaceIndexes@@3HA    00000001400ceb00     main.obj
 0003:00018b04       ?mapRegionBrushes@@3W4qboolean@@A 00000001400ceb04     main.obj
 0003:00018b08       ?normalEpsilon@@3NA        00000001400ceb08     main.obj
 0003:00018b10       ?distanceEpsilon@@3NA      00000001400ceb10     main.obj
 0003:00018b18       ?blockSize@@3PAHA          00000001400ceb18     main.obj
 0003:00018b24       ?defaultFogNum@@3HA        00000001400ceb24     main.obj
 0003:00018b28       ?debugColors@@3PAY02EA     00000001400ceb28     main.obj
 0003:00018b4c       ?skyboxArea@@3HA           00000001400ceb4c     main.obj
 0003:00018b50       ?sampleSize@@3MA           00000001400ceb50     main.obj
 0003:00018b54       ?lightSamples@@3HA         00000001400ceb54     main.obj
 0003:00018b58       ?lmCustomSize@@3HA         00000001400ceb58     main.obj
 0003:00018b5c       ?dirtFilter@@3W4dirtFilter_t@@A 00000001400ceb5c     main.obj
 0003:00018b60       ?dirtDepth@@3MA            00000001400ceb60     main.obj
 0003:00018b64       ?dirtDepthExponent@@3MA    00000001400ceb64     main.obj
 0003:00018b68       ?dirtScale@@3MA            00000001400ceb68     main.obj
 0003:00018b6c       ?dirtGain@@3MA             00000001400ceb6c     main.obj
 0003:00018b70       ?dirtGainMask@@3PAMA       00000001400ceb70     main.obj
 0003:00018b7c       ?devianceSamplesScale@@3MA 00000001400ceb7c     main.obj
 0003:00018b80       ?dirtScaleMask@@3PAMA      00000001400ceb80     main.obj
 0003:00018b8c       ?floodlightIntensity@@3MA  00000001400ceb8c     main.obj
 0003:00018b90       ?floodlightDistance@@3MA   00000001400ceb90     main.obj
 0003:00018b94       ?pointScale@@3MA           00000001400ceb94     main.obj
 0003:00018b98       ?areaScale@@3MA            00000001400ceb98     main.obj
 0003:00018b9c       ?skyScale@@3MA             00000001400ceb9c     main.obj
 0003:00018ba0       ?bounceScale@@3MA          00000001400ceba0     main.obj
 0003:00018ba4       ?vertexScale@@3MA          00000001400ceba4     main.obj
 0003:00018ba8       ?lightmapGamma@@3MA        00000001400ceba8     main.obj
 0003:00018bac       ?lightmapCompensate@@3MA   00000001400cebac     main.obj
 0003:00018bb0       ?lightmapInvGamma@@3NA     00000001400cebb0     main.obj
 0003:00018bb8       ?lightmapInvCompensate@@3NA 00000001400cebb8     main.obj
 0003:00018bc0       ?lightmapExposure@@3MA     00000001400cebc0     main.obj
 0003:00018bc4       ?lightmapBrightness@@3MA   00000001400cebc4     main.obj
 0003:00018bc8       ?lightmapInvExposure@@3NA  00000001400cebc8     main.obj
 0003:00018bd0       ?falloffTolerance@@3MA     00000001400cebd0     main.obj
 0003:00018bd4       ?exactPointToPolygon@@3W4qboolean@@A 00000001400cebd4     main.obj
 0003:00018bd8       ?formFactorValueScale@@3MA 00000001400cebd8     main.obj
 0003:00018bdc       ?linearScale@@3MA          00000001400cebdc     main.obj
 0003:00018be0       ?numLights@@3HA            00000001400cebe0     main.obj
 0003:00018be4       ?defaultLightSubdivide@@3HA 00000001400cebe4     main.obj
 0003:00018be8       ?colorMod@@3PAMA           00000001400cebe8     main.obj
 0003:00018bf4       ?subdivideThreshold@@3MA   00000001400cebf4     main.obj
 0003:00018bf8       ?diffuseSubdivide@@3MA     00000001400cebf8     main.obj
 0003:00018bfc       ?minDiffuseSubdivide@@3MA  00000001400cebfc     main.obj
 0003:00018c00       ?gridDefaultSize@@3PAMA    00000001400cec00     main.obj
 0003:00018c10       ?gridSize@@3PAMA           00000001400cec10     main.obj
 0003:00018c20       ?icc_profile_sRGB_IEC61966_2_1@@3PAEA 00000001400cec20     image.obj
 0003:00019a80       ?rad_errormsg@@3PADA       00000001400cfa80     jpeg6:jerror.obj
 0003:00019b50       ?rad_loadfailed@@3PAU_SETJMP_FLOAT128@@A 00000001400cfb50     jpeg6:jerror.obj
 0003:00019c50       _pico_ptr_load_file        00000001400cfc50     picomodel:picointernal.obj
 0003:00019c58       _pico_ptr_free_file        00000001400cfc58     picomodel:picointernal.obj
 0003:00019c60       _pico_ptr_print            00000001400cfc60     picomodel:picointernal.obj
 0003:00019ca0       _forceCRTManifestRTM       00000001400cfca0     MSVCRT:crtmanifestrtm.obj
 0003:00019ca4       _dowildcard                00000001400cfca4     MSVCRT:wildcard.obj
 0003:00019ca8       _newmode                   00000001400cfca8     MSVCRT:_newmode.obj
 0003:00019cac       _commode                   00000001400cfcac     MSVCRT:xncommod.obj
 0003:00019cb0       _fmode                     00000001400cfcb0     MSVCRT:xtxtmode.obj
 0003:00019d10       ?lightsEnvelopeCulled@@3HA 00000001400cfd10     main.obj
 0003:00019d14       ?numOpaqueBrushes@@3HA     00000001400cfd14     main.obj
 0003:00019d18       ?numBrushDiffuseLights@@3HA 00000001400cfd18     main.obj
 0003:00019d1c       ?mergevis@@3W4qboolean@@A  00000001400cfd1c     main.obj
 0003:00019d20       ?numSurfacesByType@@3PAHA  00000001400cfd20     main.obj
 0003:00019d4c       ?collapseNumVerts@@3HA     00000001400cfd4c     main.obj
 0003:00019d50       ?skyboxTransform@@3PAMA    00000001400cfd50     main.obj
 0003:00019d90       ?yDrawVerts@@3PEAUbspDrawVert_t@@EA 00000001400cfd90     main.obj
 0003:00019d98       ?numMergedVerts@@3HA       00000001400cfd98     main.obj
 0003:00019d9c       ?numGridBlocks@@3HA        00000001400cfd9c     main.obj
 0003:00019da0       ?mapplanes@@3PAUplane_s@@A 00000001400cfda0     main.obj
 0003:04019da0       ?numClearedSurfaces@@3HA   00000001440cfda0     main.obj
 0003:04019da4       ?numportals@@3HA           00000001440cfda4     main.obj
 0003:04019da8       ?LightmapGrowStitchMutex@@3UThreadMutex_s@@A 00000001440cfda8     main.obj
 0003:04019dc8       ?g_bBrushPrimit@@3HA       00000001440cfdc8     main.obj
 0003:04019dcc       ?sampleScale@@3MA          00000001440cfdcc     main.obj
 0003:04019dd0       ?bspLeafSurfaces@@3PAHA    00000001440cfdd0     main.obj
 0003:04419dd0       ?jitters@@3PAMA            00000001444cfdd0     main.obj
 0003:0441a1d0       ?bspBrushes@@3PAUbspBrush_t@@A 00000001444d01d0     main.obj
 0003:044da1d0       ?inbase@@3PADA             00000001445901d0     main.obj
 0003:044da210       ?bspVisBytes@@3PAEA        0000000144590210     main.obj
 0003:046da210       ?collapseDrawVerts@@3PEAUbspDrawVert_t@@EA 0000000144790210     main.obj
 0003:046da218       ?noPassageVis@@3W4qboolean@@A 0000000144790218     main.obj
 0003:046da21c       ?numCulledLights@@3HA      000000014479021c     main.obj
 0003:046da220       ?bspModels@@3PAUbspModel_t@@A 0000000144790220     main.obj
 0003:04702220       ?bspNodes@@3PAUbspNode_t@@A 00000001447b8220     main.obj
 0003:04b82220       ?outbase@@3PADA            0000000144c38220     main.obj
 0003:04b82240       ?hint@@3W4qboolean@@A      0000000144c38240     main.obj
 0003:04b82244       ?numMergedSurfaces@@3HA    0000000144c38244     main.obj
 0003:04b82248       ?sunLight@@3PAMA           0000000144c38248     main.obj
 0003:04b82254       ?lightsClusterCulled@@3HA  0000000144c38254     main.obj
 0003:04b82258       ?markDrawSurfaces@@3PEAHEA 0000000144c38258     main.obj
 0003:04b82260       ?numFanSurfaces@@3HA       0000000144c38260     main.obj
 0003:04b82264       ?numTriangleDiffuseLights@@3HA 0000000144c38264     main.obj
 0003:04b82268       ?numDiffuseLights@@3HA     0000000144c38268     main.obj
 0003:04b8226c       ?numMarkDrawSurfaces@@3HA  0000000144c3826c     main.obj
 0003:04b82270       ?picoModels@@3PAPEAUpicoModel_s@@A 0000000144c38270     main.obj
 0003:04b83270       ?surfaceClusters@@3PEAHEA  0000000144c39270     main.obj
 0003:04b83278       ?maxSurfaceClusters@@3HA   0000000144c39278     main.obj
 0003:04b8327c       ?leafbytes@@3HA            0000000144c3927c     main.obj
 0003:04b83280       ?bspPlanes@@3PAUbspPlane_t@@A 0000000144c39280     main.obj
 0003:06b83280       ?numBasePaths@@3HA         0000000146c39280     main.obj
 0003:06b83284       ?numNegativeLights@@3HA    0000000146c39284     main.obj
 0003:06b83288       ?vertexLuxels@@3PAPEAMA    0000000146c39288     main.obj
 0003:06b83290       ?mapShaderFile@@3PADA      0000000146c39290     main.obj
 0003:06b83690       ?portalbytes@@3HA          0000000146c39690     main.obj
 0003:06b83694       ?numActiveBrushes@@3HA     0000000146c39694     main.obj
 0003:06b83698       ?ColorToBytes@@3P6AXPEBMPEAEMW4qboolean@@@ZEA 0000000146c39698     main.obj
 0003:06b836a0       ?bspBrushSides@@3PAUbspBrushSide_t@@A 0000000146c396a0     main.obj
 0003:077836a0       ?gamePaths@@3PAPEADA       00000001478396a0     main.obj
 0003:077836f0       ?numSurfaceClusters@@3HA   00000001478396f0     main.obj
 0003:077836f4       ?totalvis@@3HA             00000001478396f4     main.obj
 0003:077836f8       ?portalclusters@@3HA       00000001478396f8     main.obj
 0003:077836fc       ?leaflongs@@3HA            00000001478396fc     main.obj
 0003:07783700       ?sunDirection@@3PAMA       0000000147839700     main.obj
 0003:0778370c       ?numGamePaths@@3HA         000000014783970c     main.obj
 0003:07783710       ?externalLightmapsPath@@3PADA 0000000147839710     main.obj
 0003:07783b10       ?mapFogs@@3PAUfog_s@@A     0000000147839b10     main.obj
 0003:07783de0       ?numStripSurfaces@@3HA     0000000147839de0     main.obj
 0003:07783de4       ?numMapPatches@@3HA        0000000147839de4     main.obj
 0003:07783de8       ?leafs@@3PEAUleaf_s@@EA    0000000147839de8     main.obj
 0003:07783df0       ?faceleafs@@3PEAUleaf_s@@EA 0000000147839df0     main.obj
 0003:07783df8       ?passageVisOnly@@3W4qboolean@@A 0000000147839df8     main.obj
 0003:07783dfc       ?lightsBoundsCulled@@3HA   0000000147839dfc     main.obj
 0003:07783e00       ?bspShaders@@3PAUbspShader_t@@A 0000000147839e00     main.obj
 0003:077cbe00       ?radVertexLuxels@@3PAPEAMA 0000000147881e00     main.obj
 0003:077cbe08       ?numPatchDiffuseLights@@3HA 0000000147881e08     main.obj
 0003:077cbe0c       ?portallongs@@3HA          0000000147881e0c     main.obj
 0003:077cbe10       ?lights@@3PEAUlight_s@@EA  0000000147881e10     main.obj
 0003:077cbe18       ?opaqueBrushes@@3PEAEEA    0000000147881e18     main.obj
 0003:077cbe20       ?bspDrawIndexes@@3PAHA     0000000147881e20     main.obj
 0003:097cbe20       ?images@@3PAUimage_s@@A    0000000149881e20     main.obj
 0003:097d0e20       ?ambientColor@@3PAMA       0000000149886e20     main.obj
 0003:097d0e2c       ?fastvis@@3W4qboolean@@A   0000000149886e2c     main.obj
 0003:097d0e30       ?mapMins@@3PAMA            0000000149886e30     main.obj
 0003:097d0e3c       ?nummapplanes@@3HA         0000000149886e3c     main.obj
 0003:097d0e40       ?bspFogs@@3PAUbspFog_t@@A  0000000149886e40     main.obj
 0003:097d16b0       ?numAreaLights@@3HA        00000001498876b0     main.obj
 0003:097d16b4       ?numSpotLights@@3HA        00000001498876b4     main.obj
 0003:097d16b8       ?mapEnt@@3PEAUentity_t@@EA 00000001498876b8     main.obj
 0003:097d16c0       ?mapRegionMins@@3PAMA      00000001498876c0     main.obj
 0003:097d16cc       ?lightsPlaneCulled@@3HA    00000001498876cc     main.obj
 0003:097d16d0       ?gridAreas@@3PAUgridArea_s@@A 00000001498876d0     main.obj
 0003:097d76d0       ?mapRegionMaxs@@3PAMA      000000014988d6d0     main.obj
 0003:097d76dc       ?verbose@@3W4qboolean@@A   000000014988d6dc     main.obj
 0003:097d76e0       ?gridBounds@@3PAHA         000000014988d6e0     main.obj
 0003:097d76ec       ?numPointLights@@3HA       000000014988d6ec     main.obj
 0003:097d76f0       ?portals@@3PEAUvportal_t@@EA 000000014988d6f0     main.obj
 0003:097d76f8       ?maxOpaqueBrush@@3HA       000000014988d6f8     main.obj
 0003:097d76fc       ?numRedundantIndexes@@3HA  000000014988d6fc     main.obj
 0003:097d7700       ?bspLeafBrushes@@3PAHA     000000014988d700     main.obj
 0003:098d7700       ?custSurfaceParms@@3PAUsurfaceParm_s@@A 000000014998d700     main.obj
 0003:098df700       ?name@@3PADA               0000000149995700     main.obj
 0003:098dfb00       ?entitySourceBrushes@@3HA  0000000149995b00     main.obj
 0003:098dfb04       ?farPlaneDist@@3MA         0000000149995b04     main.obj
 0003:098dfb08       ?numfaces@@3HA             0000000149995b08     main.obj
 0003:098dfb0c       ?numSunLights@@3HA         0000000149995b0c     main.obj
 0003:098dfb10       ?basePaths@@3PAPEADA       0000000149995b10     main.obj
 0003:098dfb60       ?bspLeafs@@3PAUbspLeaf_t@@A 0000000149995b60     main.obj
 0003:09edfb60       ?mapMaxs@@3PAMA            0000000149f95b60     main.obj
 0003:09edfb6c       ?saveprt@@3W4qboolean@@A   0000000149f95b6c     main.obj
 0003:09edfb70       ?gridMins@@3PAMA           0000000149f95b70     main.obj
 0003:09edfb7c       ?nosort@@3W4qboolean@@A    0000000149f95b7c     main.obj
 0003:09edfb80       ?gridBlockSize@@3PAHA      0000000149f95b80     main.obj
 0003:09edfb8c       ?numMapDrawSurfs@@3HA      0000000149f95b8c     main.obj
 0003:09edfb90       ?bspEntData@@3PADA         0000000149f95b90     main.obj
 0003:09f5fb90       ?sorted_portals@@3PAPEAUvportal_t@@A 000000014a015b90     main.obj
 0003:0a15fb90       ?source@@3PADA             000000014a215b90     main.obj
 0003:0a15ff90       ?floodlightRGB@@3PAMA      000000014a215f90     main.obj
 0003:0a15ff9c       ?patch_numMapEntities@@3HA 000000014a215f9c     patchbsp.obj
 0003:0a15ffa0       ?entities@@3PAUentity_t@@A 000000014a215fa0     main.obj
 0003:0d15ffa0       ?buildBrush@@3PEAUbrush_s@@EA 000000014d215fa0     main.obj
 0003:0d15ffa8       ?faces@@3PEAUvportal_t@@EA 000000014d215fa8     main.obj
 0003:0d15ffb0       ?dirtSettings@@3PAUdirtSettings_t@@A 000000014d215fb0     main.obj
 0003:0f55ffb0       ?installPath@@3PADA        000000014f615fb0     main.obj
 0003:0f5603b0       ?mapName@@3PADA            000000014f6163b0     main.obj
 0003:0f5603f0       ?gridBlocks@@3PAHA         000000014f6163f0     main.obj
 0003:0f5603fc       ?patch_numBspEntities@@3HA 000000014f6163fc     patchbsp.obj
 0003:0f560400       ?patch_mapEntities@@3PEAUentity_t@@EA 000000014f616400     patchbsp.obj
 0003:0f560408       ?patch_bspEntities@@3PEAUentity_t@@EA 000000014f616408     patchbsp.obj
 0003:0f560410       ?uniqueEntityKey@@3PADA    000000014f616410     patchbsp.obj
 0003:0f560810       ?patchTriggers@@3W4qboolean@@A 000000014f616810     patchbsp.obj
 0003:0f560814       ?c_unique@@3HA             000000014f616814     brush.obj
 0003:0f560818       ?c_clusters@@3HA           000000014f616818     brush.obj
 0003:0f56081c       ?numDecoreGroups@@3HA      000000014f61681c     decorations.obj
 0003:0f560820       ?colorModRandom@@3PAY02MA  000000014f616820     shaders.obj
 0003:0f5a2b2c       ?numDecoreTestNodes@@3HA   000000014f658b2c     decorations.obj
 0003:0f5a2b30       ?decoreGroups@@3PEAUdgroup_s@@EA 000000014f658b30     decorations.obj
 0003:0f5a2b38       ?numDecoreEntitiesPushedToWorldspawn@@3HA 000000014f658b38     decorations.obj
 0003:0f5a2b3c       ?numDecoreEntities@@3HA    000000014f658b3c     decorations.obj
 0003:0f5a2b40       ?importRtlightsSkipStyles@@3PAHA 000000014f658b40     decorations.obj
 0003:0f5a2d40       ?c_faceLeafs@@3HA          000000014f658d40     facebsp.obj
 0003:0f5a2d44       ?c_faces@@3HA              000000014f658d44     facebsp.obj
 0003:0f5a2d48       ?numFogFragments@@3HA      000000014f658d48     fog.obj
 0003:0f5a2d4c       ?numFogPatchFragments@@3HA 000000014f658d4c     fog.obj
 0003:0f5a2d50       ?planehash@@3PAPEAUplane_s@@A 000000014f658d50     map.obj
 0003:0f5b2d50       ?c_detail@@3HA             000000014f668d50     map.obj
 0003:0f5b2d54       ?c_edgebevels@@3HA         000000014f668d54     map.obj
 0003:0f5b2d58       ?c_areaportals@@3HA        000000014f668d58     map.obj
 0003:0f5b2d5c       ?c_boxbevels@@3HA          000000014f668d5c     map.obj
 0003:0f5b2d60       ?c_structural@@3HA         000000014f668d60     map.obj
 0003:0f5b2d64       ?c_outside@@3HA            000000014f668d64     portals.obj
 0003:0f5b2d68       ?c_peak_portals@@3HA       000000014f668d68     portals.obj
 0003:0f5b2d6c       ?c_solid@@3HA              000000014f668d6c     portals.obj
 0003:0f5b2d70       ?c_tinyportals@@3HA        000000014f668d70     portals.obj
 0003:0f5b2d74       ?c_inside@@3HA             000000014f668d74     portals.obj
 0003:0f5b2d78       ?c_areas@@3HA              000000014f668d78     portals.obj
 0003:0f5b2d7c       ?c_badportals@@3HA         000000014f668d7c     portals.obj
 0003:0f5b2d80       ?c_floodedleafs@@3HA       000000014f668d80     portals.obj
 0003:0f5b2d84       ?c_active_portals@@3HA     000000014f668d84     portals.obj
 0003:0f5b2d88       ?num_visclusters@@3HA      000000014f668d88     prtfile.obj
 0003:0f5b2d8c       ?num_solidfaces@@3HA       000000014f668d8c     prtfile.obj
 0003:0f5b2d90       ?pf@@3PEAU_iobuf@@EA       000000014f668d90     prtfile.obj
 0003:0f5b2d98       ?num_visportals@@3HA       000000014f668d98     prtfile.obj
 0003:0f5b2d9c       ?ClipVertexesInCache@@3HA  000000014f668d9c     surface.obj
 0003:0f5b2da0       ?ClipVertexCache@@3PAY02MA 000000014f668da0     surface.obj
 0003:0fbb2da8       ?surfaceExtras@@3PEAUsurfaceExtra_s@@EA 000000014fc68da8     surface_extra.obj
 0003:0fbe2db4       ?maxMetaTrianglesInGroup@@3HA 000000014fc98db4     surface_meta.obj
 0003:0fbe2db8       ?metaTriangleGroups@@3PEAUmetaTriangleGroup_s@@EA 000000014fc98db8     surface_meta.obj
 0003:0fbe2dc0       ?metaTrianglePlaneTriangles@@3PEAUmetaTriangle_s@@EA 000000014fc98dc0     surface_meta.obj
 0003:0fbe2dc8       ?numMetaTriangleGroups@@3HA 000000014fc98dc8     surface_meta.obj
 0003:0fbe2dcc       ?numMetaSurfaces@@3HA      000000014fc98dcc     surface_meta.obj
 0003:0fbe2dd0       ?numPatchMetaSurfaces@@3HA 000000014fc98dd0     surface_meta.obj
 0003:0fbe2dd4       ?c_cant@@3HA               000000014fc98dd4     tjunction.obj
 0003:0fbe2dd8       ?metaVertAreas@@3PEAMEA    000000014fc98dd8     surface_meta.obj
 0003:0fbe2de0       ?metaVertShadeAngles@@3PEAMEA 000000014fc98de0     surface_meta.obj
 0003:0fbe2de8       ?c_totalVerts@@3HA         000000014fc98de8     tjunction.obj
 0003:0fbe2dec       ?c_natural@@3HA            000000014fc98dec     tjunction.obj
 0003:0fbe2df0       ?originalEdges@@3PAUoriginalEdge_t@@A 000000014fc98df0     tjunction.obj
 0003:0fd62df0       ?c_degenerateEdges@@3HA    000000014fe18df0     tjunction.obj
 0003:0fd62df4       ?c_rotate@@3HA             000000014fe18df4     tjunction.obj
 0003:0fd62df8       ?numEdgeLines@@3HA         000000014fe18df8     tjunction.obj
 0003:0fd62dfc       ?c_addedVerts@@3HA         000000014fe18dfc     tjunction.obj
 0003:0fd62e00       ?edgeLines@@3PAUedgeLine_s@@A 000000014fe18e00     tjunction.obj
 0003:102e2e00       ?numOriginalEdges@@3HA     0000000150398e00     tjunction.obj
 0003:102e2e04       ?noDrawSurfaceFlags@@3HA   0000000150398e04     light_trace.obj
 0003:102e2e08       ?noDrawContentFlags@@3HA   0000000150398e08     light_trace.obj
 0003:102e2e0c       ?noDrawCompileFlags@@3HA   0000000150398e0c     light_trace.obj
 0003:102e2e10       ?GridOffsets@@3PAY02MA     0000000150398e10     light.obj
 0003:102e2eb8       ?c_flood@@3HA              0000000150398eb8     visflow.obj
 0003:102e2ebc       ?memnumlogs@@3HA           0000000150398ebc     cmdlib.obj
 0003:102e2ec0       ?GridNormals@@3PAY02MA     0000000150398ec0     light.obj
 0003:102e30b8       ?memlog@@3W4qboolean@@A    00000001503990b8     cmdlib.obj
 0003:102e30bc       ?c_active_windings@@3HA    00000001503990bc     polylib.obj
 0003:102e33c0       ?ex_argv@@3PAPEADA         00000001503993c0     cmdlib.obj
 0003:102e53c0       ?memlogs@@3PAUmemlogr_s@@A 000000015039b3c0     cmdlib.obj
 0003:103e73c0       ?com_token@@3PADA          000000015049d3c0     cmdlib.obj
 0003:103e77c0       ?archivedir@@3PADA         000000015049d7c0     cmdlib.obj
 0003:103e7bc0       ?writedir@@3PADA           000000015049dbc0     cmdlib.obj
 0003:103e7fc0       ?qdir@@3PADA               000000015049dfc0     cmdlib.obj
 0003:103e83c0       ?gamedir@@3PADA            000000015049e3c0     cmdlib.obj
 0003:103e87c0       ?bmhd@@3Ubmhd_t@@A         000000015049e7c0     imagelib.obj
 0003:103e87d4       ?c_peak_windings@@3HA      000000015049e7d4     polylib.obj
 0003:103e87d8       ?brdcst_socket@@3PEAUsocket_s@@EA 000000015049e7d8     inout.obj
 0003:103e87e0       ?msg@@3Unetmessage_s@@A    000000015049e7e0     inout.obj
 0003:103e8bec       ?c_winding_allocs@@3HA     000000015049ebec     polylib.obj
 0003:103e8bf0       ?currentStage@@3PADA       000000015049ebf0     inout.obj
 0003:103e8cf0       ?doc@@3PEAU_xmlDoc@@EA     000000015049ecf0     inout.obj
 0003:103e8cf8       ?c_winding_points@@3HA     000000015049ecf8     polylib.obj
 0003:103e8cfc       ?scriptline@@3HA           000000015049ecfc     scriplib.obj
 0003:103e8d00       ?script@@3PEAUscript_t@@EA 000000015049ed00     scriplib.obj
 0003:103e8d08       ?endofscript@@3W4qboolean@@A 000000015049ed08     scriplib.obj
 0003:103e8d0c       ?tokenready@@3W4qboolean@@A 000000015049ed0c     scriplib.obj
 0003:103e8d10       ?scriptstack@@3PAUscript_t@@A 000000015049ed10     scriplib.obj
 0003:103eae10       ?token@@3PADA              00000001504a0e10     scriplib.obj
 0003:103eb210       ?pacifier@@3W4qboolean@@A  00000001504a1210     threads.obj
 0003:103eb214       ?oldf@@3HA                 00000001504a1214     threads.obj
 0003:103eb218       ?crit@@3U_RTL_CRITICAL_SECTION@@A 00000001504a1218     threads.obj
 0003:103eb240       ?workcount@@3HA            00000001504a1240     threads.obj
 0003:103eb244       ?dispatch@@3HA             00000001504a1244     threads.obj
 0003:103eb248       ?workfunction@@3P6AXH@ZEA  00000001504a1248     threads.obj
 0003:103eb250       ?threaded@@3W4qboolean@@A  00000001504a1250     threads.obj
 0003:103ec2c0       ?numBSPDrawVertsBuffer@@3HA 00000001504a22c0     bspfile_abstract.obj
 0003:103ec2c4       ?numBSPDrawSurfacesBuffer@@3HA 00000001504a22c4     bspfile_abstract.obj
 0003:103ec2c8       ?numImages@@3HA            00000001504a22c8     main.obj
 0003:103ec2cc       ?numPicoModels@@3HA        00000001504a22cc     main.obj
 0003:103ec2d0       ?shaderInfo@@3PEAUshaderInfo_s@@EA 00000001504a22d0     main.obj
 0003:103ec2d8       ?numShaderInfo@@3HA        00000001504a22d8     main.obj
 0003:103ec2dc       ?numCustSurfaceParms@@3HA  00000001504a22dc     main.obj
 0003:103ec2e0       ?useBuildCfg@@3W4qboolean@@A 00000001504a22e0     main.obj
 0003:103ec2e4       ?force@@3W4qboolean@@A     00000001504a22e4     main.obj
 0003:103ec2e8       ?infoMode@@3W4qboolean@@A  00000001504a22e8     main.obj
 0003:103ec2ec       ?useCustomInfoParms@@3W4qboolean@@A 00000001504a22ec     main.obj
 0003:103ec2f0       ?useEntitySaveId@@3W4qboolean@@A 00000001504a22f0     main.obj
 0003:103ec2f4       ?leaktest@@3W4qboolean@@A  00000001504a22f4     main.obj
 0003:103ec2f8       ?nodetail@@3W4qboolean@@A  00000001504a22f8     main.obj
 0003:103ec2fc       ?nosubdivide@@3W4qboolean@@A 00000001504a22fc     main.obj
 0003:103ec300       ?noclipmodel@@3W4qboolean@@A 00000001504a2300     main.obj
 0003:103ec304       ?noclip@@3W4qboolean@@A    00000001504a2304     main.obj
 0003:103ec308       ?noTJunc@@3W4qboolean@@A   00000001504a2308     main.obj
 0003:103ec30c       ?fulldetail@@3W4qboolean@@A 00000001504a230c     main.obj
 0003:103ec310       ?nodetailcollision@@3W4qboolean@@A 00000001504a2310     main.obj
 0003:103ec314       ?nofoliage@@3W4qboolean@@A 00000001504a2314     main.obj
 0003:103ec318       ?nodecals@@3W4qboolean@@A  00000001504a2318     main.obj
 0003:103ec31c       ?nowater@@3W4qboolean@@A   00000001504a231c     main.obj
 0003:103ec320       ?noCurveBrushes@@3W4qboolean@@A 00000001504a2320     main.obj
 0003:103ec324       ?fakemap@@3W4qboolean@@A   00000001504a2324     main.obj
 0003:103ec328       ?nofog@@3W4qboolean@@A     00000001504a2328     main.obj
 0003:103ec32c       ?noHint@@3W4qboolean@@A    00000001504a232c     main.obj
 0003:103ec330       ?renameModelShaders@@3W4qboolean@@A 00000001504a2330     main.obj
 0003:103ec334       ?skyFixHack@@3W4qboolean@@A 00000001504a2334     main.obj
 0003:103ec338       ?npDegrees@@3MA            00000001504a2338     main.obj
 0003:103ec33c       ?bevelSnap@@3HA            00000001504a233c     main.obj
 0003:103ec340       ?texRange@@3HA             00000001504a2340     main.obj
 0003:103ec344       ?flat@@3W4qboolean@@A      00000001504a2344     main.obj
 0003:103ec348       ?meta@@3W4qboolean@@A      00000001504a2348     main.obj
 0003:103ec34c       ?patchMeta@@3W4qboolean@@A 00000001504a234c     main.obj
 0003:103ec350       ?emitFlares@@3W4qboolean@@A 00000001504a2350     main.obj
 0003:103ec354       ?debugSurfaces@@3W4qboolean@@A 00000001504a2354     main.obj
 0003:103ec358       ?debugInset@@3W4qboolean@@A 00000001504a2358     main.obj
 0003:103ec35c       ?debugPortals@@3W4qboolean@@A 00000001504a235c     main.obj
 0003:103ec360       ?numMapEntities@@3HA       00000001504a2360     main.obj
 0003:103ec364       ?mapEntityNum@@3HA         00000001504a2364     main.obj
 0003:103ec368       ?mapRegion@@3W4qboolean@@A 00000001504a2368     main.obj
 0003:103ec36c       ?numMapFogs@@3HA           00000001504a236c     main.obj
 0003:103ec370       ?numStrippedLights@@3HA    00000001504a2370     main.obj
 0003:103ec374       ?numSurfaceModels@@3HA     00000001504a2374     main.obj
 0003:103ec378       ?mapDrawSurfs@@3PEAUmapDrawSurface_s@@EA 00000001504a2378     main.obj
 0003:103ec380       ?skyboxPresent@@3W4qboolean@@A 00000001504a2380     main.obj
 0003:103ec384       ?wolfLight@@3W4qboolean@@A 00000001504a2384     main.obj
 0003:103ec388       ?loMem@@3W4qboolean@@A     00000001504a2388     main.obj
 0003:103ec38c       ?loMemSky@@3W4qboolean@@A  00000001504a238c     main.obj
 0003:103ec390       ?noStyles@@3W4qboolean@@A  00000001504a2390     main.obj
 0003:103ec394       ?keepLights@@3W4qboolean@@A 00000001504a2394     main.obj
 0003:103ec398       ?colorNormalize@@3W4qboolean@@A 00000001504a2398     main.obj
 0003:103ec39c       ?noVertexLighting@@3W4qboolean@@A 00000001504a239c     main.obj
 0003:103ec3a0       ?noGridLighting@@3W4qboolean@@A 00000001504a23a0     main.obj
 0003:103ec3a4       ?noTrace@@3W4qboolean@@A   00000001504a23a4     main.obj
 0003:103ec3a8       ?noTraceGrid@@3W4qboolean@@A 00000001504a23a8     main.obj
 0003:103ec3ac       ?noSurfaces@@3W4qboolean@@A 00000001504a23ac     main.obj
 0003:103ec3b0       ?noStitch@@3W4qboolean@@A  00000001504a23b0     main.obj
 0003:103ec3b4       ?patchShadows@@3W4qboolean@@A 00000001504a23b4     main.obj
 0003:103ec3b8       ?cpmaHack@@3W4qboolean@@A  00000001504a23b8     main.obj
 0003:103ec3bc       ?stitch@@3W4qboolean@@A    00000001504a23bc     main.obj
 0003:103ec3c0       ?deluxemap@@3W4qboolean@@A 00000001504a23c0     main.obj
 0003:103ec3c4       ?debugDeluxemap@@3W4qboolean@@A 00000001504a23c4     main.obj
 0003:103ec3c8       ?deluxemode@@3HA           00000001504a23c8     main.obj
 0003:103ec3cc       ?fast@@3W4qboolean@@A      00000001504a23cc     main.obj
 0003:103ec3d0       ?faster@@3W4qboolean@@A    00000001504a23d0     main.obj
 0003:103ec3d4       ?fastgrid@@3W4qboolean@@A  00000001504a23d4     main.obj
 0003:103ec3d8       ?fastbounce@@3W4qboolean@@A 00000001504a23d8     main.obj
 0003:103ec3dc       ?bounce@@3HA               00000001504a23dc     main.obj
 0003:103ec3e0       ?bounceOnly@@3W4qboolean@@A 00000001504a23e0     main.obj
 0003:103ec3e4       ?bouncing@@3W4qboolean@@A  00000001504a23e4     main.obj
 0003:103ec3e8       ?bouncegrid@@3W4qboolean@@A 00000001504a23e8     main.obj
 0003:103ec3ec       ?normalmap@@3W4qboolean@@A 00000001504a23ec     main.obj
 0003:103ec3f0       ?trisoup@@3W4qboolean@@A   00000001504a23f0     main.obj
 0003:103ec3f4       ?shade@@3W4qboolean@@A     00000001504a23f4     main.obj
 0003:103ec3f8       ?shadeAngleDegrees@@3MA    00000001504a23f8     main.obj
 0003:103ec3fc       ?superSample@@3HA          00000001504a23fc     main.obj
 0003:103ec400       ?gridSuperSample@@3HA      00000001504a2400     main.obj
 0003:103ec404       ?gridOnly@@3W4qboolean@@A  00000001504a2404     main.obj
 0003:103ec408       ?gridFromLightmap@@3W4qboolean@@A 00000001504a2408     main.obj
 0003:103ec40c       ?filter@@3W4qboolean@@A    00000001504a240c     main.obj
 0003:103ec410       ?sunOnly@@3W4qboolean@@A   00000001504a2410     main.obj
 0003:103ec414       ?skyLightSurfaces@@3W4qboolean@@A 00000001504a2414     main.obj
 0003:103ec418       ?approximateTolerance@@3HA 00000001504a2418     main.obj
 0003:103ec41c       ?noCollapse@@3W4qboolean@@A 00000001504a241c     main.obj
 0003:103ec420       ?exportLightmaps@@3W4qboolean@@A 00000001504a2420     main.obj
 0003:103ec424       ?externalLightmaps@@3W4qboolean@@A 00000001504a2424     main.obj
 0003:103ec428       ?lmMaxSurfaceSize@@3HA     00000001504a2428     main.obj
 0003:103ec42c       ?lightmapsRGB@@3W4qboolean@@A 00000001504a242c     main.obj
 0003:103ec430       ?colorsRGB@@3W4qboolean@@A 00000001504a2430     main.obj
 0003:103ec434       ?texturesRGB@@3W4qboolean@@A 00000001504a2434     main.obj
 0003:103ec438       ?dirty@@3W4qboolean@@A     00000001504a2438     main.obj
 0003:103ec43c       ?nodirt@@3W4qboolean@@A    00000001504a243c     main.obj
 0003:103ec440       ?dirtDebug@@3W4qboolean@@A 00000001504a2440     main.obj
 0003:103ec444       ?dirtMode@@3W4dirtMode_t@@A 00000001504a2444     main.obj
 0003:103ec448       ?noDeviance@@3W4qboolean@@A 00000001504a2448     main.obj
 0003:103ec44c       ?devianceJitter@@3MA       00000001504a244c     main.obj
 0003:103ec450       ?devianceSamples@@3HA      00000001504a2450     main.obj
 0003:103ec454       ?devianceAtten@@3HA        00000001504a2454     main.obj
 0003:103ec458       ?devianceForm@@3HA         00000001504a2458     main.obj
 0003:103ec45c       ?debugnormals@@3W4qboolean@@A 00000001504a245c     main.obj
 0003:103ec460       ?floodlighty@@3W4qboolean@@A 00000001504a2460     main.obj
 0003:103ec464       ?floodlight_lowquality@@3W4qboolean@@A 00000001504a2464     main.obj
 0003:103ec468       ?dump@@3W4qboolean@@A      00000001504a2468     main.obj
 0003:103ec46c       ?debug@@3W4qboolean@@A     00000001504a246c     main.obj
 0003:103ec470       ?debugUnused@@3W4qboolean@@A 00000001504a2470     main.obj
 0003:103ec474       ?debugAxis@@3W4qboolean@@A 00000001504a2474     main.obj
 0003:103ec478       ?debugCluster@@3W4qboolean@@A 00000001504a2478     main.obj
 0003:103ec47c       ?debugOrigin@@3W4qboolean@@A 00000001504a247c     main.obj
 0003:103ec480       ?debugStitch@@3W4qboolean@@A 00000001504a2480     main.obj
 0003:103ec484       ?debugLightmap@@3W4qboolean@@A 00000001504a2484     main.obj
 0003:103ec488       ?debugRawLightmap@@3W4qboolean@@A 00000001504a2488     main.obj
 0003:103ec48c       ?debugGrid@@3W4qboolean@@A 00000001504a248c     main.obj
 0003:103ec490       ?lightmapBorder@@3W4qboolean@@A 00000001504a2490     main.obj
 0003:103ec494       ?lightmapDebugState@@3W4qboolean@@A 00000001504a2494     main.obj
 0003:103ec498       ?maxMapDistance@@3MA       00000001504a2498     main.obj
 0003:103ec49c       ?lightAngleHL@@3W4qboolean@@A 00000001504a249c     main.obj
 0003:103ec4a0       ?minLight@@3PAMA           00000001504a24a0     main.obj
 0003:103ec4ac       ?numDiffuseSurfaces@@3HA   00000001504a24ac     main.obj
 0003:103ec4b0       ?minVertexLight@@3PAMA     00000001504a24b0     main.obj
 0003:103ec4bc       ?numLightSurfaces@@3HA     00000001504a24bc     main.obj
 0003:103ec4c0       ?minGridLight@@3PAMA       00000001504a24c0     main.obj
 0003:103ec4cc       ?numRawSuperLuxels@@3HA    00000001504a24cc     main.obj
 0003:103ec4d0       ?surfaceInfos@@3PEAUsurfaceInfo_s@@EA 00000001504a24d0     main.obj
 0003:103ec4d8       ?sortSurfaces@@3PEAHEA     00000001504a24d8     main.obj
 0003:103ec4e0       ?lightSurfaces@@3PEAHEA    00000001504a24e0     main.obj
 0003:103ec4e8       ?numRawLightmaps@@3HA      00000001504a24e8     main.obj
 0003:103ec4ec       ?numLightmapShaders@@3HA   00000001504a24ec     main.obj
 0003:103ec4f0       ?rawLightmaps@@3PEAUrawLightmap_s@@EA 00000001504a24f0     main.obj
 0003:103ec4f8       ?sortLightmaps@@3PEAHEA    00000001504a24f8     main.obj
 0003:103ec500       ?numSolidLightmaps@@3HA    00000001504a2500     main.obj
 0003:103ec504       ?numOutLightmaps@@3HA      00000001504a2504     main.obj
 0003:103ec508       ?numBSPLightmaps@@3HA      00000001504a2508     main.obj
 0003:103ec50c       ?numExtLightmaps@@3HA      00000001504a250c     main.obj
 0003:103ec510       ?outLightmaps@@3PEAUoutLightmap_s@@EA 00000001504a2510     main.obj
 0003:103ec518       ?numSurfacesFloodlighten@@3HA 00000001504a2518     main.obj
 0003:103ec51c       ?numRawGridPoints@@3HA     00000001504a251c     main.obj
 0003:103ec520       ?rawGridPoints@@3PEAUrawGridPoint_s@@EA 00000001504a2520     main.obj
 0003:103ec528       ?numSurfsVertexLit@@3HA    00000001504a2528     main.obj
 0003:103ec52c       ?numSurfsVertexForced@@3HA 00000001504a252c     main.obj
 0003:103ec530       ?numSurfsVertexApproximated@@3HA 00000001504a2530     main.obj
 0003:103ec534       ?numSurfsLightmapped@@3HA  00000001504a2534     main.obj
 0003:103ec538       ?numPlanarsLightmapped@@3HA 00000001504a2538     main.obj
 0003:103ec53c       ?numNonPlanarsLightmapped@@3HA 00000001504a253c     main.obj
 0003:103ec540       ?numPatchesLightmapped@@3HA 00000001504a2540     main.obj
 0003:103ec544       ?numPlanarPatchesLightmapped@@3HA 00000001504a2544     main.obj
 0003:103ec548       ?numLuxels@@3HA            00000001504a2548     main.obj
 0003:103ec54c       ?numLuxelsMapped@@3HA      00000001504a254c     main.obj
 0003:103ec550       ?numLuxelsNudged@@3HA      00000001504a2550     main.obj
 0003:103ec554       ?numLuxelsRemapped@@3HA    00000001504a2554     main.obj
 0003:103ec558       ?numLuxelsOccluded@@3HA    00000001504a2558     main.obj
 0003:103ec55c       ?numLuxelsIlluminated@@3HA 00000001504a255c     main.obj
 0003:103ec560       ?numLuxelsStitched@@3HA    00000001504a2560     main.obj
 0003:103ec564       ?numVertsIlluminated@@3HA  00000001504a2564     main.obj
 0003:103ec568       ?numGridAreas@@3HA         00000001504a2568     main.obj
 0003:103ec56c       ?numEntities@@3HA          00000001504a256c     main.obj
 0003:103ec570       ?numBSPEntities@@3HA       00000001504a2570     main.obj
 0003:103ec574       ?numBSPModels@@3HA         00000001504a2574     main.obj
 0003:103ec578       ?numBSPShaders@@3HA        00000001504a2578     main.obj
 0003:103ec57c       ?bspEntDataSize@@3HA       00000001504a257c     main.obj
 0003:103ec580       ?numBSPLeafs@@3HA          00000001504a2580     main.obj
 0003:103ec584       ?numBSPPlanes@@3HA         00000001504a2584     main.obj
 0003:103ec588       ?numBSPNodes@@3HA          00000001504a2588     main.obj
 0003:103ec58c       ?numBSPLeafSurfaces@@3HA   00000001504a258c     main.obj
 0003:103ec590       ?numBSPLeafBrushes@@3HA    00000001504a2590     main.obj
 0003:103ec594       ?numBSPBrushes@@3HA        00000001504a2594     main.obj
 0003:103ec598       ?numBSPBrushSides@@3HA     00000001504a2598     main.obj
 0003:103ec59c       ?numBSPLightBytes@@3HA     00000001504a259c     main.obj
 0003:103ec5a0       ?bspLightBytes@@3PEAEEA    00000001504a25a0     main.obj
 0003:103ec5a8       ?numBSPGridPoints@@3HA     00000001504a25a8     main.obj
 0003:103ec5ac       ?numBSPVisBytes@@3HA       00000001504a25ac     main.obj
 0003:103ec5b0       ?bspGridPoints@@3PEAUbspGridPoint_s@@EA 00000001504a25b0     main.obj
 0003:103ec5b8       ?numBSPDrawVerts@@3HA      00000001504a25b8     main.obj
 0003:103ec5bc       ?numBSPDrawIndexes@@3HA    00000001504a25bc     main.obj
 0003:103ec5c0       ?bspDrawVerts@@3PEAUbspDrawVert_t@@EA 00000001504a25c0     main.obj
 0003:103ec5c8       ?numBSPDrawSurfaces@@3HA   00000001504a25c8     main.obj
 0003:103ec5cc       ?numBSPFogs@@3HA           00000001504a25cc     main.obj
 0003:103ec5d0       ?bspDrawSurfaces@@3PEAUbspDrawSurface_t@@EA 00000001504a25d0     main.obj
 0003:103ec5e8       ?importRtlights@@3W4qboolean@@A 00000001504a25e8     decorations.obj
 0003:103ec5ec       ?importRtlightsSkipCubemapped@@3W4qboolean@@A 00000001504a25ec     decorations.obj
 0003:103ec5f0       ?importRtlightsSpawnflags@@3HA 00000001504a25f0     decorations.obj
 0003:103ec5f4       ?importRtlightsShadowDeviance@@3MA 00000001504a25f4     decorations.obj
 0003:103ec5f8       ?importRtlightsShadowSamples@@3MA 00000001504a25f8     decorations.obj
 0003:103ec5fc       ?importRtlightsSkipStylesNum@@3HA 00000001504a25fc     decorations.obj
 0003:103ec600       ?numAlphaFixedVerts@@3HA   00000001504a2600     surface.obj
 0003:103ec604       ?numSurfaceExtras@@3HA     00000001504a2604     surface_extra.obj
 0003:103ec608       ?alphaFixEntity@@3PEAUentity_t@@EA 00000001504a2608     surface.obj
 0003:103ec610       ?alphaFixMutex@@3PEAUThreadMutex_s@@EA 00000001504a2610     surface.obj
 0003:103ec618       ?maxSurfaceExtras@@3HA     00000001504a2618     surface_extra.obj
 0003:103ec61c       ?maxMetaVerts@@3HA         00000001504a261c     surface_meta.obj
 0003:103ec620       ?numMetaVerts@@3HA         00000001504a2620     surface_meta.obj
 0003:103ec624       ?firstSearchMetaVert@@3HA  00000001504a2624     surface_meta.obj
 0003:103ec628       ?metaVerts@@3PEAUbspDrawVert_t@@EA 00000001504a2628     surface_meta.obj
 0003:103ec630       ?maxMetaTriangles@@3HA     00000001504a2630     surface_meta.obj
 0003:103ec634       ?numMetaTriangles@@3HA     00000001504a2634     surface_meta.obj
 0003:103ec638       ?metaTriangles@@3PEAUmetaTriangle_s@@EA 00000001504a2638     surface_meta.obj
 0003:103ec640       ?maxShadeAngle@@3HA        00000001504a2640     surface_meta.obj
 0003:103ec644       ?defaultShadeAngle@@3HA    00000001504a2644     surface_meta.obj
 0003:103ec648       ?AddMetaVertToSurfaceMutex@@3UThreadMutex_s@@A 00000001504a2648     surface_meta.obj
 0003:103ec668       ?AddMetaTriangleToSurfaceMutex@@3UThreadMutex_s@@A 00000001504a2668     surface_meta.obj
 0003:103ec688       ?MetaTrianglesToSurfaceMutex@@3UThreadMutex_s@@A 00000001504a2688     surface_meta.obj
 0003:103ec6a8       ?MetaTrianglesToSurfaceMutex2@@3UThreadMutex_s@@A 00000001504a26a8     surface_meta.obj
 0003:103ec6c8       ?MetaTrianglesToSurfaceMutex3@@3UThreadMutex_s@@A 00000001504a26c8     surface_meta.obj
 0003:103ec6e8       ?c_broken@@3HA             00000001504a26e8     tjunction.obj
 0003:103ec6ec       ?gridPointsMapped@@3HA     00000001504a26ec     light.obj
 0003:103ec6f0       ?gridPointsIlluminated@@3HA 00000001504a26f0     light.obj
 0003:103ec6f4       ?gridPointsOccluded@@3HA   00000001504a26f4     light.obj
 0003:103ec6f8       ?gridPointsFlooded@@3HA    00000001504a26f8     light.obj
 0003:103ec6fc       ?gridSampleLightmap@@3HA   00000001504a26fc     light.obj
 0003:103ec700       ?iterations@@3HA           00000001504a2700     light_bounce.obj
 0003:103ec704       ?numTraceInfos@@3HA        00000001504a2704     light_trace.obj
 0003:103ec708       ?maxTraceInfos@@3HA        00000001504a2708     light_trace.obj
 0003:103ec70c       ?firstTraceInfo@@3HA       00000001504a270c     light_trace.obj
 0003:103ec710       ?traceInfos@@3PEAUtraceInfo_s@@EA 00000001504a2710     light_trace.obj
 0003:103ec718       ?numTraceWindings@@3HA     00000001504a2718     light_trace.obj
 0003:103ec71c       ?maxTraceWindings@@3HA     00000001504a271c     light_trace.obj
 0003:103ec720       ?traceWindings@@3PEAUtraceWinding_s@@EA 00000001504a2720     light_trace.obj
 0003:103ec728       ?numTraceTriangles@@3HA    00000001504a2728     light_trace.obj
 0003:103ec72c       ?maxTraceTriangles@@3HA    00000001504a272c     light_trace.obj
 0003:103ec730       ?traceTriangles@@3PEAUtraceTriangle_s@@EA 00000001504a2730     light_trace.obj
 0003:103ec738       ?headNodeNum@@3HA          00000001504a2738     light_trace.obj
 0003:103ec73c       ?skyboxNodeNum@@3HA        00000001504a273c     light_trace.obj
 0003:103ec740       ?maxTraceDepth@@3HA        00000001504a2740     light_trace.obj
 0003:103ec744       ?numTraceLeafNodes@@3HA    00000001504a2744     light_trace.obj
 0003:103ec748       ?numTraceNodes@@3HA        00000001504a2748     light_trace.obj
 0003:103ec74c       ?maxTraceNodes@@3HA        00000001504a274c     light_trace.obj
 0003:103ec750       ?traceNodes@@3PEAUtraceNode_s@@EA 00000001504a2750     light_trace.obj
 0003:103ec760       ?stitchLuxels@@3PEAUstitchLuxel_t@@EA 00000001504a2760     lightmaps_ydnar.obj
 0003:103ec768       ?numStitchLuxels@@3HA      00000001504a2768     lightmaps_ydnar.obj
 0003:103ec76c       ?maxStitchLuxels@@3HA      00000001504a276c     lightmaps_ydnar.obj
 0003:103ec770       ?convertedSurfaces@@3HA    00000001504a2770     convert_ase.obj
 0003:103ec774       ?convertedVertexes@@3HA    00000001504a2774     convert_ase.obj
 0003:103ec778       ?convertedTriangles@@3HA   00000001504a2778     convert_ase.obj
 0003:103ec77c       ?numthreads@@3HA           00000001504a277c     threads.obj
 0003:105ecfa8       __native_startup_state     00000001506a2fa8     <common>
 0003:105ecfb0       __native_startup_lock      00000001506a2fb0     <common>
 0003:105ecfb8       __dyn_tls_init_callback    00000001506a2fb8     <common>
 0003:105ecfc0       __onexitend                00000001506a2fc0     <common>
 0003:105ecfc8       __onexitbegin              00000001506a2fc8     <common>
 0003:105ecfe0       winsockdata                00000001506a2fe0     <common>
 0003:105ed180       my_tcpip_address           00000001506a3180     <common>

 entry point at        0001:000979fc

 Static symbols

 0001:00002990       ?CopyBrushSidesLump@@YAXPEAUibspHeader_t@@@Z 0000000140003990 f    CIL library: CIL module
 0001:00002a20       ?AddBrushSidesLump@@YAXPEAU_iobuf@@PEAUibspHeader_t@@@Z 0000000140003a20 f    CIL library: CIL module
 0001:00002b10       ?CopyDrawSurfacesLump@@YAXPEAUibspHeader_t@@@Z 0000000140003b10 f    CIL library: CIL module
 0001:00002c70       ?AddDrawSurfacesLump@@YAXPEAU_iobuf@@PEAUibspHeader_t@@@Z 0000000140003c70 f    CIL library: CIL module
 0001:00003250       ?CopyDrawVertsLump@@YAXPEAUibspHeader_t@@@Z 0000000140004250 f    CIL library: CIL module
 0001:00003540       ?AddDrawVertsLump@@YAXPEAU_iobuf@@PEAUibspHeader_t@@@Z 0000000140004540 f    CIL library: CIL module
 0001:00003880       ?CopyLightGridLumps@@YAXPEAUibspHeader_t@@@Z 0000000140004880 f    CIL library: CIL module
 0001:000039b0       ?AddLightGridLumps@@YAXPEAU_iobuf@@PEAUibspHeader_t@@@Z 00000001400049b0 f    CIL library: CIL module
 0001:000046b0       ?CopyLightGridLumps@@YAXPEAUrbspHeader_t@@@Z 00000001400056b0 f    CIL library: CIL module
 0001:000047c0       ?AddLightGridLumps@@YAXPEAU_iobuf@@PEAUrbspHeader_t@@@Z 00000001400057c0 f    CIL library: CIL module
 0001:00005960       ?LoadDDSBuffer@@YAXPEAEHPEAPEAEPEAH2@Z 0000000140006960 f    CIL library: CIL module
 0001:00005ab0       ?LoadPNGBuffer@@YAXPEAEHPEAPEAEPEAH2@Z 0000000140006ab0 f    CIL library: CIL module
 0001:00005da0       ?PNGWriteData@@YAXPEAUpng_struct_def@@PEAE_K@Z 0000000140006da0 f    CIL library: CIL module
 0001:00005dc0       ?PNGWriteError@@YAXPEAUpng_struct_def@@PEBD@Z 0000000140006dc0 f    CIL library: CIL module
 0001:00005dd0       ?PNGWriteWarning@@YAXPEAUpng_struct_def@@PEBD@Z 0000000140006dd0 f    CIL library: CIL module
 0001:000060a0       ?ImageInit@@YAXXZ          00000001400070a0 f    CIL library: CIL module
 0001:00006850       ?ExitQ3Map@@YAXXZ          0000000140007850 f    CIL library: CIL module
 0001:000068b0       ?MD4BlockChecksum@@YAHPEAXH@Z 00000001400078b0 f    CIL library: CIL module
 0001:000104f0       ?CompareRefEntry@@YAHPEBX0@Z 00000001400114f0 f    CIL library: CIL module
 0001:00014620       ?AllocShaderInfo@@YAPEAUshaderInfo_s@@XZ 0000000140015620 f    CIL library: CIL module
 0001:00014ae0       ?LoadShaderImages@@YAXPEAUshaderInfo_s@@@Z 0000000140015ae0 f    CIL library: CIL module
 0001:00015350       ?ParseShaderFile@@YAXPEBD@Z 0000000140016350 f    CIL library: CIL module
 0001:00018140       ?ParseCustomInfoParms@@YAXXZ 0000000140019140 f    CIL library: CIL module
 0001:0001a070       ?FixBrushSides@@YAXPEAUentity_t@@@Z 000000014001b070 f    CIL library: CIL module
 0001:0001a180       ?FixBrushFaces@@YAXPEAUentity_t@@@Z 000000014001b180 f    CIL library: CIL module
 0001:0001d8a0       ?MakeTextureMatrix@@YA?AW4qboolean@@PEAUdecalProjector_s@@QEAMPEAUbspDrawVert_t@@22@Z 000000014001e8a0 f    CIL library: CIL module
 0001:0001e2e0       ?TransformDecalProjector@@YAXPEAUdecalProjector_s@@QEAY02MQEAM0@Z 000000014001f2e0 f    CIL library: CIL module
 0001:0001e7c0       ?MakeDecalProjector@@YAHHPEAUshaderInfo_s@@QEAMMHPEAPEAUbspDrawVert_t@@MM11111H@Z 000000014001f7c0 f    CIL library: CIL module
 0001:0001f460       ?ProjectDecalOntoWinding@@YAXPEAUdecalProjector_s@@PEAUmapDrawSurface_s@@PEAUwinding_t@@@Z 0000000140020460 f    CIL library: CIL module
 0001:0001fb80       ?ProjectDecalOntoPatch@@YAXPEAUdecalProjector_s@@PEAUmapDrawSurface_s@@@Z 0000000140020b80 f    CIL library: CIL module
 0001:0001ff30       ?ProjectDecalOntoTriangles@@YAXPEAUdecalProjector_s@@PEAUmapDrawSurface_s@@@Z 0000000140020f30 f    CIL library: CIL module
 0001:000232e0       ?SelectSplitPlaneNum@@YAXPEAUnode_s@@PEAUface_s@@PEAH2@Z 00000001400242e0 f    CIL library: CIL module
 0001:00027410       ?ParseRawBrush@@YAXXZ      0000000140028410 f    CIL library: CIL module
 0001:00027b50       ?ParseBrush@@YAXW4qboolean@@00@Z 0000000140028b50 f    CIL library: CIL module
 0001:00028880       ?ParseMapEntity@@YA?AW4qboolean@@W41@000@Z 0000000140029880 f    CIL library: CIL module
 0001:00029b90       ?ExpandLongestCurve@@YAXPEAMQEAM11@Z 000000014002ab90 f    CIL library: CIL module
 0001:00029f10       ?ExpandMaxIterations@@YAXPEAHHQEAM11@Z 000000014002af10 f    CIL library: CIL module
 0001:0002aeb0       ?GrowGroup_r@@YAXPEAUparseMesh_s@@HHPEAPEAU1@PEAE2@Z 000000014002beb0 f    CIL library: CIL module
 0001:000305b0       ?AddSurfaceFlare@@YAXPEAUmapDrawSurface_s@@QEAM@Z 00000001400315b0 f    CIL library: CIL module
 0001:00030750       ?SubdivideFace_r@@YAXPEAUentity_t@@PEAUbrush_s@@PEAUside_s@@PEAUwinding_t@@HM@Z 0000000140031750 f    CIL library: CIL module
 0001:00031ca0       ?FilterPatchIntoTree@@YAHPEAUmapDrawSurface_s@@PEAUtree_t@@@Z 0000000140032ca0 f    CIL library: CIL module
 0001:000320b0       ?FilterTrianglesIntoTree@@YAHPEAUmapDrawSurface_s@@PEAUtree_t@@@Z 00000001400330b0 f    CIL library: CIL module
 0001:000322d0       ?FilterFoliageIntoTree@@YAHPEAUmapDrawSurface_s@@PEAUtree_t@@@Z 00000001400332d0 f    CIL library: CIL module
 0001:00033550       ?OptimizeTriangleSurface@@YAXPEAUmapDrawSurface_s@@@Z 0000000140034550 f    CIL library: CIL module
 0001:000337f0       ?EmitTriangleSurface@@YAXPEAUmapDrawSurface_s@@@Z 00000001400347f0 f    CIL library: CIL module
 0001:00033e30       ?MakeDebugPortalSurfs_r@@YAXPEAUnode_s@@PEAUshaderInfo_s@@@Z 0000000140034e30 f    CIL library: CIL module
 0001:000352c0       ?VolumeColorMods@@YAXPEAUentity_t@@PEAUmapDrawSurface_s@@@Z 00000001400362c0 f    CIL library: CIL module
 0001:00036d90       ?AllocSurfaceExtra@@YAPEAUsurfaceExtra_s@@XZ 0000000140037d90 f    CIL library: CIL module
 0001:00037a70       ?SubdivideFoliageTriangle_r@@YAXPEAUmapDrawSurface_s@@PEAUfoliage_s@@PEAPEAUbspDrawVert_t@@@Z 0000000140038a70 f    CIL library: CIL module
 0001:00038750       ?FindMetaVertex@@YAHPEAUbspDrawVert_t@@@Z 0000000140039750 f    CIL library: CIL module
 0001:00038810       ?AddMetaTriangle@@YAHXZ    0000000140039810 f    CIL library: CIL module
 0001:00038d00       ?SurfaceToMetaTriangles@@YAXPEAUmapDrawSurface_s@@@Z 0000000140039d00 f    CIL library: CIL module
 0001:00039c10       ?CompareMetaTrianglesPlane@@YAHPEBX0@Z 000000014003ac10 f    CIL library: CIL module
 0001:0003a180       ?CompareSmoothVerts@@YAHPEBX0@Z 000000014003b180 f    CIL library: CIL module
 0001:0003b040       ?AddMetaTriangleToSurface@@YAHPEAUmapDrawSurface_s@@PEAUmetaTriangle_s@@W4qboolean@@@Z 000000014003c040 f    CIL library: CIL module
 0001:0003b8c0       ?MetaTrianglesToSurface@@YAXHPEAUmetaTriangle_s@@PEAUbspDrawVert_t@@PEAH@Z 000000014003c8c0 f    CIL library: CIL module
 0001:0003bfa0       ?CompareMetaTriangles@@YAHPEBX0@Z 000000014003cfa0 f    CIL library: CIL module
 0001:0003f820       ?CreateSunLight@@YAXPEAUsun_s@@@Z 0000000140040820 f    CIL library: CIL module
 0001:0003fb50       ?CreateSkyLights@@YAXQEAMMHMH@Z 0000000140040b50 f    CIL library: CIL module
 0001:0004b4a0       ?RadClipWindingEpsilon@@YAXPEAUradWinding_t@@QEAMMM00PEAUclipWork_t@@@Z 000000014004c4a0 f    CIL library: CIL module
 0001:0004bab0       ?RadSample@@YAXHPEAUbspDrawSurface_t@@PEAUrawLightmap_s@@PEAUshaderInfo_s@@PEAUradWinding_t@@QEAM4PEAH@Z 000000014004cab0 f    CIL library: CIL module
 0001:0004c1c0       ?RadSubdivideDiffuseLight@@YAXHPEAUbspDrawSurface_t@@PEAUrawLightmap_s@@PEAUshaderInfo_s@@MMW4qboolean@@PEAUradWinding_t@@PEAUclipWork_t@@@Z 000000014004d1c0 f    CIL library: CIL module
 0001:0004d7b0       ?AddTraceInfo@@YAHPEAUtraceInfo_s@@@Z 000000014004e7b0 f    CIL library: CIL module
 0001:0004d8d0       ?AllocTraceNode@@YAHXZ     000000014004e8d0 f    CIL library: CIL module
 0001:0004d9c0       ?AddTraceWinding@@YAHPEAUtraceWinding_s@@@Z 000000014004e9c0 f    CIL library: CIL module
 0001:0004dab0       ?AddTraceTriangle@@YAHPEAUtraceTriangle_s@@@Z 000000014004eab0 f    CIL library: CIL module
 0001:0004dc20       ?AddItemToTraceNode@@YAHPEAUtraceNode_s@@H@Z 000000014004ec20 f    CIL library: CIL module
 0001:0004dce0       ?SetupTraceNodes_r@@YAHH@Z 000000014004ece0 f    CIL library: CIL module
 0001:0004e300       ?FilterTraceWindingIntoNodes_r@@YAXPEAUtraceWinding_s@@H@Z 000000014004f300 f    CIL library: CIL module
 0001:0004e550       ?SubdivideTraceNode_r@@YAXHH@Z 000000014004f550 f    CIL library: CIL module
 0001:0004ea80       ?TriangulateTraceNode_r@@YAHH@Z 000000014004fa80 f    CIL library: CIL module
 0001:0004ed00       ?PopulateWithBSPModel@@YAXPEAUbspModel_t@@QEAM@Z 000000014004fd00 f    CIL library: CIL module
 0001:0004f3d0       ?PopulateWithPicoModel@@YAXDPEAUpicoModel_s@@QEAMH@Z 00000001400503d0 f    CIL library: CIL module
 0001:0004f610       ?PopulateTraceNodes@@YAXXZ 0000000140050610 f    CIL library: CIL module
 0001:00050a50       ?TraceLine_r@@YA?AW4qboolean@@HQEAM0PEAUtrace_t@@@Z 0000000140051a50 f    CIL library: CIL module
 0001:00053150       ?CalcTangentVectors@@YA?AW4qboolean@@HPEAPEAUbspDrawVert_t@@PEAY02M1@Z 0000000140054150 f    CIL library: CIL module
 0001:00053520       ?PerturbNormal@@YAXPEAUbspDrawVert_t@@PEAUshaderInfo_s@@QEAMQEAY02M3@Z 0000000140054520 f    CIL library: CIL module
 0001:00053680       ?MapSingleLuxel@@YAHPEAUrawLightmap_s@@PEAUsurfaceInfo_s@@PEAUbspDrawVert_t@@QEAM3MQEAY02M44@Z 0000000140054680 f    CIL library: CIL module
 0001:00054420       ?MapTriangle_r@@YAXPEAUrawLightmap_s@@PEAUsurfaceInfo_s@@QEAPEAUbspDrawVert_t@@QEAM3QEAY02M44@Z 0000000140055420 f    CIL library: CIL module
 0001:000546b0       ?MapTriangle@@YA?AW4qboolean@@PEAUrawLightmap_s@@PEAUsurfaceInfo_s@@QEAPEAUbspDrawVert_t@@W41@@Z 00000001400556b0 f    CIL library: CIL module
 0001:00054a30       ?MapQuad_r@@YAXPEAUrawLightmap_s@@PEAUsurfaceInfo_s@@QEAPEAUbspDrawVert_t@@QEAM3QEAY02M4@Z 0000000140055a30 f    CIL library: CIL module
 0001:00054db0       ?MapQuad@@YA?AW4qboolean@@PEAUrawLightmap_s@@PEAUsurfaceInfo_s@@QEAPEAUbspDrawVert_t@@@Z 0000000140055db0 f    CIL library: CIL module
 0001:00057c40       ?SubmapRawLuxel@@YA?AW4qboolean@@PEAUrawLightmap_s@@HHMMPEAHQEAM2@Z 0000000140058c40 f    CIL library: CIL module
 0001:00057fc0       ?SubsampleRawLuxel_r@@YAXPEAUrawLightmap_s@@PEAUtrace_t@@QEAMHHMPEAM@Z 0000000140058fc0 f    CIL library: CIL module
 0001:0005f170       ?CompareLightSurface@@YAHPEBX0@Z 0000000140060170 f    CIL library: CIL module
 0001:00060a50       ?CompareSurfaceInfo@@YAHPEBX0@Z 0000000140061a50 f    CIL library: CIL module
 0001:000630f0       ?CompareBSPLuxels@@YA?AW4qboolean@@PEAUrawLightmap_s@@H0H@Z 00000001400640f0 f    CIL library: CIL module
 0001:000634a0       ?MergeBSPLuxels@@YA?AW4qboolean@@PEAUrawLightmap_s@@H0H@Z 00000001400644a0 f    CIL library: CIL module
 0001:00063730       ?ApproximateLuxel@@YA?AW4qboolean@@PEAUrawLightmap_s@@PEAUbspDrawVert_t@@@Z 0000000140064730 f    CIL library: CIL module
 0001:00063960       ?ApproximateTriangle_r@@YA?AW4qboolean@@PEAUrawLightmap_s@@QEAPEAUbspDrawVert_t@@@Z 0000000140064960 f    CIL library: CIL module
 0001:00063b70       ?ApproximateLightmap@@YA?AW4qboolean@@PEAUrawLightmap_s@@@Z 0000000140064b70 f    CIL library: CIL module
 0001:00063fe0       ?TestOutLightmapStamp@@YA?AW4qboolean@@PEAUrawLightmap_s@@HPEAUoutLightmap_s@@HH@Z 0000000140064fe0 f    CIL library: CIL module
 0001:00064170       ?SetupOutLightmap@@YAXPEAUrawLightmap_s@@PEAUoutLightmap_s@@@Z 0000000140065170 f    CIL library: CIL module
 0001:000642d0       ?FindOutLightmaps@@YAXPEAUrawLightmap_s@@@Z 00000001400652d0 f    CIL library: CIL module
 0001:00064c60       ?CompareRawLightmap@@YAHPEBX0@Z 0000000140065c60 f    CIL library: CIL module
 0001:0006e340       ?ConvertCollapsedSurface@@YAXPEAU_iobuf@@PEAUbspModel_t@@HHHQEAM@Z 000000014006f340 f    CIL library: CIL module
 0001:0006efc0       ?ConvertSurface@@YAXPEAU_iobuf@@PEAUbspModel_t@@HPEAUbspDrawSurface_t@@HQEAM@Z 000000014006ffc0 f    CIL library: CIL module
 0001:0006f630       ?ConvertModel@@YAXPEAU_iobuf@@PEAUbspModel_t@@HQEAMH@Z 0000000140070630 f    CIL library: CIL module
 0001:0006f730       ?ConvertShader@@YAXPEAU_iobuf@@PEAUbspShader_t@@H@Z 0000000140070730 f    CIL library: CIL module
 0001:0006fe90       ?ConvertBrush@@YAXPEAU_iobuf@@HPEAUbspBrush_t@@QEAM@Z 0000000140070e90 f    CIL library: CIL module
 0001:00070210       ?ConvertPatch@@YAXPEAU_iobuf@@HPEAUbspDrawSurface_t@@QEAM@Z 0000000140071210 f    CIL library: CIL module
 0001:00070430       ?ConvertModel@@YAXPEAU_iobuf@@PEAUbspModel_t@@HQEAM@Z 0000000140071430 f    CIL library: CIL module
 0001:00073bf0       ?MD4Transform@@YAXQEAKQEAE@Z 0000000140074bf0 f    CIL library: CIL module
 0001:00077270       ?unzlocal_SearchCentralDir@@YAKPEAU_iobuf@@@Z 0000000140078270 f    CIL library: CIL module
 0001:000775f0       ?unzlocal_GetCurrentFileInfoInternal@@YAHPEAXPEAUunz_file_info_s@@PEAUunz_file_info_internal_s@@PEADK0K3K@Z 00000001400785f0 f    CIL library: CIL module
 0001:00077a70       ?unzlocal_CheckCurrentFileCoherencyHeader@@YAHPEAUunz_s@@PEAIPEAK1@Z 0000000140078a70 f    CIL library: CIL module
 0001:00079110       ?huft_build@@YAHPEAIIIPEBI1PEAPEAUinflate_huft_s@@0PEAU1@00@Z 000000014007a110 f    CIL library: CIL module
 0001:0007a920       ?vfsInitPakFile@@YAXPEBD@Z 000000014007b920 f    CIL library: CIL module
 0001:0007d370       DDSDecodePixelFormat       000000014007e370 f   ddslib:ddslib.obj
 0001:0007d430       DDSGetColorBlockColors     000000014007e430 f   ddslib:ddslib.obj
 0001:0007d600       DDSDecodeColorBlock        000000014007e600 f   ddslib:ddslib.obj
 0001:0007d6e0       DDSDecodeAlphaExplicit     000000014007e6e0 f   ddslib:ddslib.obj
 0001:0007d7e0       DDSDecodeAlpha3BitLinear   000000014007e7e0 f   ddslib:ddslib.obj
 0001:0007dae0       DDSDecompressDXT1          000000014007eae0 f   ddslib:ddslib.obj
 0001:0007dbf0       DDSDecompressDXT3          000000014007ebf0 f   ddslib:ddslib.obj
 0001:0007dd70       DDSDecompressDXT5          000000014007ed70 f   ddslib:ddslib.obj
 0001:0007def0       DDSDecompressDXT2          000000014007eef0 f   ddslib:ddslib.obj
 0001:0007df00       DDSDecompressDXT4          000000014007ef00 f   ddslib:ddslib.obj
 0001:0007df10       DDSDecompressARGB8888      000000014007ef10 f   ddslib:ddslib.obj
 0001:0007e340       ?default_decompress_parms@@YAXPEAUjpeg_decompress_struct@@@Z 000000014007f340 f   jpeg6:jdapimin.obj
 0001:0007e760       ?output_pass_setup@@YAEPEAUjpeg_decompress_struct@@@Z 000000014007f760 f   jpeg6:jdapistd.obj
 0001:0007e960       ?init_source@@YAXPEAUjpeg_decompress_struct@@@Z 000000014007f960 f   jpeg6:jdatasrc.obj
 0001:0007e970       ?fill_input_buffer@@YAEPEAUjpeg_decompress_struct@@@Z 000000014007f970 f   jpeg6:jdatasrc.obj
 0001:0007e9d0       ?skip_input_data@@YAXPEAUjpeg_decompress_struct@@J@Z 000000014007f9d0 f   jpeg6:jdatasrc.obj
 0001:0007ead0       ?error_exit@@YAXPEAUjpeg_common_struct@@@Z 000000014007fad0 f   jpeg6:jerror.obj
 0001:0007eb00       ?output_message@@YAXPEAUjpeg_common_struct@@@Z 000000014007fb00 f   jpeg6:jerror.obj
 0001:0007eb30       ?emit_message@@YAXPEAUjpeg_common_struct@@H@Z 000000014007fb30 f   jpeg6:jerror.obj
 0001:0007eb70       ?format_message@@YAXPEAUjpeg_common_struct@@PEAD@Z 000000014007fb70 f   jpeg6:jerror.obj
 0001:0007ec50       ?reset_error_mgr@@YAXPEAUjpeg_common_struct@@@Z 000000014007fc50 f   jpeg6:jerror.obj
 0001:0007ecf0       ?initial_setup@@YAXPEAUjpeg_decompress_struct@@@Z 000000014007fcf0 f   jpeg6:jdinput.obj
 0001:0007ef00       ?per_scan_setup@@YAXPEAUjpeg_decompress_struct@@@Z 000000014007ff00 f   jpeg6:jdinput.obj
 0001:0007f0e0       ?latch_quant_tables@@YAXPEAUjpeg_decompress_struct@@@Z 00000001400800e0 f   jpeg6:jdinput.obj
 0001:0007f1b0       ?start_input_pass@@YAXPEAUjpeg_decompress_struct@@@Z 00000001400801b0 f   jpeg6:jdinput.obj
 0001:0007f200       ?consume_markers@@YAHPEAUjpeg_decompress_struct@@@Z 0000000140080200 f   jpeg6:jdinput.obj
 0001:0007f310       ?reset_input_controller@@YAXPEAUjpeg_decompress_struct@@@Z 0000000140080310 f   jpeg6:jdinput.obj
 0001:0007f360       ?finish_input_pass@@YAXPEAUjpeg_decompress_struct@@@Z 0000000140080360 f   jpeg6:jdinput.obj
 0001:0007f3e0       ?get_soi@@YAEPEAUjpeg_decompress_struct@@@Z 00000001400803e0 f   jpeg6:jdmarker.obj
 0001:0007f4a0       ?get_sof@@YAEPEAUjpeg_decompress_struct@@EE@Z 00000001400804a0 f   jpeg6:jdmarker.obj
 0001:0007f7f0       ?get_sos@@YAEPEAUjpeg_decompress_struct@@@Z 00000001400807f0 f   jpeg6:jdmarker.obj
 0001:0007fb20       ?get_app0@@YAEPEAUjpeg_decompress_struct@@@Z 0000000140080b20 f   jpeg6:jdmarker.obj
 0001:0007fe00       ?get_app14@@YAEPEAUjpeg_decompress_struct@@@Z 0000000140080e00 f   jpeg6:jdmarker.obj
 0001:0007fff0       ?get_dac@@YAEPEAUjpeg_decompress_struct@@@Z 0000000140080ff0 f   jpeg6:jdmarker.obj
 0001:000801a0       ?get_dht@@YAEPEAUjpeg_decompress_struct@@@Z 00000001400811a0 f   jpeg6:jdmarker.obj
 0001:000804d0       ?get_dqt@@YAEPEAUjpeg_decompress_struct@@@Z 00000001400814d0 f   jpeg6:jdmarker.obj
 0001:00080750       ?get_dri@@YAEPEAUjpeg_decompress_struct@@@Z 0000000140081750 f   jpeg6:jdmarker.obj
 0001:00080870       ?skip_variable@@YAEPEAUjpeg_decompress_struct@@@Z 0000000140081870 f   jpeg6:jdmarker.obj
 0001:00080940       ?next_marker@@YAEPEAUjpeg_decompress_struct@@@Z 0000000140081940 f   jpeg6:jdmarker.obj
 0001:00080ab0       ?first_marker@@YAEPEAUjpeg_decompress_struct@@@Z 0000000140081ab0 f   jpeg6:jdmarker.obj
 0001:00080b80       ?read_markers@@YAHPEAUjpeg_decompress_struct@@@Z 0000000140081b80 f   jpeg6:jdmarker.obj
 0001:00080ea0       ?read_restart_marker@@YAEPEAUjpeg_decompress_struct@@@Z 0000000140081ea0 f   jpeg6:jdmarker.obj
 0001:00081070       ?reset_marker_reader@@YAXPEAUjpeg_decompress_struct@@@Z 0000000140082070 f   jpeg6:jdmarker.obj
 0001:00081160       ?out_of_memory@@YAXPEAUjpeg_common_struct@@H@Z 0000000140082160 f   jpeg6:jmemmgr.obj
 0001:00081180       ?alloc_small@@YAPEAXPEAUjpeg_common_struct@@H_K@Z 0000000140082180 f   jpeg6:jmemmgr.obj
 0001:00081300       ?alloc_large@@YAPEAXPEAUjpeg_common_struct@@H_K@Z 0000000140082300 f   jpeg6:jmemmgr.obj
 0001:000813e0       ?alloc_sarray@@YAPEAPEAEPEAUjpeg_common_struct@@HII@Z 00000001400823e0 f   jpeg6:jmemmgr.obj
 0001:000814d0       ?alloc_barray@@YAPEAPEAY0EA@FPEAUjpeg_common_struct@@HII@Z 00000001400824d0 f   jpeg6:jmemmgr.obj
 0001:000815e0       ?request_virt_sarray@@YAPEAUjvirt_sarray_control@@PEAUjpeg_common_struct@@HEIII@Z 00000001400825e0 f   jpeg6:jmemmgr.obj
 0001:00081690       ?request_virt_barray@@YAPEAUjvirt_barray_control@@PEAUjpeg_common_struct@@HEIII@Z 0000000140082690 f   jpeg6:jmemmgr.obj
 0001:00081740       ?realize_virt_arrays@@YAXPEAUjpeg_common_struct@@@Z 0000000140082740 f   jpeg6:jmemmgr.obj
 0001:00081920       ?do_sarray_io@@YAXPEAUjpeg_common_struct@@PEAUjvirt_sarray_control@@E@Z 0000000140082920 f   jpeg6:jmemmgr.obj
 0001:000819e0       ?do_barray_io@@YAXPEAUjpeg_common_struct@@PEAUjvirt_barray_control@@E@Z 00000001400829e0 f   jpeg6:jmemmgr.obj
 0001:00081aa0       ?access_virt_sarray@@YAPEAPEAEPEAUjpeg_common_struct@@PEAUjvirt_sarray_control@@IIE@Z 0000000140082aa0 f   jpeg6:jmemmgr.obj
 0001:00081c00       ?access_virt_barray@@YAPEAPEAY0EA@FPEAUjpeg_common_struct@@PEAUjvirt_barray_control@@IIE@Z 0000000140082c00 f   jpeg6:jmemmgr.obj
 0001:00081d60       ?free_pool@@YAXPEAUjpeg_common_struct@@H@Z 0000000140082d60 f   jpeg6:jmemmgr.obj
 0001:00081eb0       ?self_destruct@@YAXPEAUjpeg_common_struct@@@Z 0000000140082eb0 f   jpeg6:jmemmgr.obj
 0001:00082130       ?use_merged_upsample@@YAEPEAUjpeg_decompress_struct@@@Z 0000000140083130 f   jpeg6:jdmaster.obj
 0001:000821f0       ?prepare_range_limit_table@@YAXPEAUjpeg_decompress_struct@@@Z 00000001400831f0 f   jpeg6:jdmaster.obj
 0001:000822a0       ?master_selection@@YAXPEAUjpeg_decompress_struct@@@Z 00000001400832a0 f   jpeg6:jdmaster.obj
 0001:00082450       ?prepare_for_output_pass@@YAXPEAUjpeg_decompress_struct@@@Z 0000000140083450 f   jpeg6:jdmaster.obj
 0001:000825a0       ?finish_output_pass@@YAXPEAUjpeg_decompress_struct@@@Z 00000001400835a0 f   jpeg6:jdmaster.obj
 0001:00082710       ?dummy_consume_data@@YAHPEAUjpeg_decompress_struct@@@Z 0000000140083710 f   jpeg6:jmemnobs.obj
 0001:00082720       ?alloc_funny_pointers@@YAXPEAUjpeg_decompress_struct@@@Z 0000000140083720 f   jpeg6:jdmainct.obj
 0001:00082820       ?make_funny_pointers@@YAXPEAUjpeg_decompress_struct@@@Z 0000000140083820 f   jpeg6:jdmainct.obj
 0001:000829c0       ?set_wraparound_pointers@@YAXPEAUjpeg_decompress_struct@@@Z 00000001400839c0 f   jpeg6:jdmainct.obj
 0001:00082ad0       ?set_bottom_pointers@@YAXPEAUjpeg_decompress_struct@@@Z 0000000140083ad0 f   jpeg6:jdmainct.obj
 0001:00082ba0       ?process_data_simple_main@@YAXPEAUjpeg_decompress_struct@@PEAPEAEPEAII@Z 0000000140083ba0 f   jpeg6:jdmainct.obj
 0001:00082c50       ?process_data_context_main@@YAXPEAUjpeg_decompress_struct@@PEAPEAEPEAII@Z 0000000140083c50 f   jpeg6:jdmainct.obj
 0001:00082de0       ?start_pass_main@@YAXPEAUjpeg_decompress_struct@@W4J_BUF_MODE@@@Z 0000000140083de0 f   jpeg6:jdmainct.obj
 0001:00082f90       ?start_iMCU_row@@YAXPEAUjpeg_decompress_struct@@@Z 0000000140083f90 f   jpeg6:jdcoefct.obj
 0001:00082ff0       ?start_input_pass@@YAXPEAUjpeg_decompress_struct@@@Z 0000000140083ff0 f   jpeg6:jdcoefct.obj
 0001:00083000       ?start_output_pass@@YAXPEAUjpeg_decompress_struct@@@Z 0000000140084000 f   jpeg6:jdcoefct.obj
 0001:00083010       ?decompress_onepass@@YAHPEAUjpeg_decompress_struct@@PEAPEAPEAE@Z 0000000140084010 f   jpeg6:jdcoefct.obj
 0001:00083850       ?process_restart@@YAEPEAUjpeg_decompress_struct@@@Z 0000000140084850 f   jpeg6:jdhuff.obj
 0001:000838f0       ?decode_mcu@@YAEPEAUjpeg_decompress_struct@@PEAPEAY0EA@F@Z 00000001400848f0 f   jpeg6:jdhuff.obj
 0001:00083dc0       ?start_pass_huff_decoder@@YAXPEAUjpeg_decompress_struct@@@Z 0000000140084dc0 f   jpeg6:jdhuff.obj
 0001:00083f80       ?start_pass@@YAXPEAUjpeg_decompress_struct@@@Z 0000000140084f80 f   jpeg6:jddctmgr.obj
 0001:00084340       ?post_process_1pass@@YAXPEAUjpeg_decompress_struct@@PEAPEAPEAEPEAIIPEAPEAE2I@Z 0000000140085340 f   jpeg6:jdpostct.obj
 0001:000843f0       ?start_pass_dpost@@YAXPEAUjpeg_decompress_struct@@W4J_BUF_MODE@@@Z 00000001400853f0 f   jpeg6:jdpostct.obj
 0001:00084540       ?start_pass_upsample@@YAXPEAUjpeg_decompress_struct@@@Z 0000000140085540 f   jpeg6:jdsample.obj
 0001:00084560       ?sep_upsample@@YAXPEAUjpeg_decompress_struct@@PEAPEAPEAEPEAIIPEAPEAE2I@Z 0000000140085560 f   jpeg6:jdsample.obj
 0001:000846b0       ?fullsize_upsample@@YAXPEAUjpeg_decompress_struct@@PEAUjpeg_component_info@@PEAPEAEPEAPEAPEAE@Z 00000001400856b0 f   jpeg6:jdsample.obj
 0001:000846c0       ?noop_upsample@@YAXPEAUjpeg_decompress_struct@@PEAUjpeg_component_info@@PEAPEAEPEAPEAPEAE@Z 00000001400856c0 f   jpeg6:jdsample.obj
 0001:000846d0       ?int_upsample@@YAXPEAUjpeg_decompress_struct@@PEAUjpeg_component_info@@PEAPEAEPEAPEAPEAE@Z 00000001400856d0 f   jpeg6:jdsample.obj
 0001:00084830       ?h2v1_upsample@@YAXPEAUjpeg_decompress_struct@@PEAUjpeg_component_info@@PEAPEAEPEAPEAPEAE@Z 0000000140085830 f   jpeg6:jdsample.obj
 0001:000848a0       ?h2v2_upsample@@YAXPEAUjpeg_decompress_struct@@PEAUjpeg_component_info@@PEAPEAEPEAPEAPEAE@Z 00000001400858a0 f   jpeg6:jdsample.obj
 0001:00084960       ?h2v1_fancy_upsample@@YAXPEAUjpeg_decompress_struct@@PEAUjpeg_component_info@@PEAPEAEPEAPEAPEAE@Z 0000000140085960 f   jpeg6:jdsample.obj
 0001:00084a50       ?h2v2_fancy_upsample@@YAXPEAUjpeg_decompress_struct@@PEAUjpeg_component_info@@PEAPEAEPEAPEAPEAE@Z 0000000140085a50 f   jpeg6:jdsample.obj
 0001:00084e10       ?build_ycc_rgb_table@@YAXPEAUjpeg_decompress_struct@@@Z 0000000140085e10 f   jpeg6:jdcolor.obj
 0001:00084f10       ?ycc_rgb_convert@@YAXPEAUjpeg_decompress_struct@@PEAPEAPEAEIPEAPEAEH@Z 0000000140085f10 f   jpeg6:jdcolor.obj
 0001:000850b0       ?null_convert@@YAXPEAUjpeg_decompress_struct@@PEAPEAPEAEIPEAPEAEH@Z 00000001400860b0 f   jpeg6:jdcolor.obj
 0001:00085170       ?grayscale_convert@@YAXPEAUjpeg_decompress_struct@@PEAPEAPEAEIPEAPEAEH@Z 0000000140086170 f   jpeg6:jdcolor.obj
 0001:000851b0       ?ycck_cmyk_convert@@YAXPEAUjpeg_decompress_struct@@PEAPEAPEAEIPEAPEAEH@Z 00000001400861b0 f   jpeg6:jdcolor.obj
 0001:00085380       ?term_source@@YAXPEAUjpeg_decompress_struct@@@Z 0000000140086380 f   jpeg6:jdcolor.obj
 0001:00085380       ?PNGFlushData@@YAXPEAUpng_struct_def@@@Z 0000000140086380 f   jpeg6:jdcolor.obj
 0001:00085380       ?start_pass_dcolor@@YAXPEAUjpeg_decompress_struct@@@Z 0000000140086380 f   jpeg6:jdcolor.obj
 0001:00089eb0       _obj_canload               000000014008aeb0 f   picomodel:pm_obj.obj
 0001:0008a010       SizeObjVertexData          000000014008b010 f   picomodel:pm_obj.obj
 0001:0008a0d0       FreeObjVertexData          000000014008b0d0 f   picomodel:pm_obj.obj
 0001:0008a0f0       _obj_load                  000000014008b0f0 f   picomodel:pm_obj.obj
 0001:0008b000       _terrain_canload           000000014008c000 f   picomodel:pm_terrain.obj
 0001:0008b070       _terrain_load              000000014008c070 f   picomodel:pm_terrain.obj
 0001:0008b850       lwo_lwIDToStr              000000014008c850 f   picomodel:pm_lwo.obj
 0001:0008b8a0       _lwo_canload               000000014008c8a0 f   picomodel:pm_lwo.obj
 0001:0008b910       _lwo_load                  000000014008c910 f   picomodel:pm_lwo.obj
 0001:0008c210       _fm_canload                000000014008d210 f   picomodel:pm_fm.obj
 0001:0008c340       _fm_load                   000000014008d340 f   picomodel:pm_fm.obj
 0001:0008ce20       _md2_canload               000000014008de20 f   picomodel:pm_md2.obj
 0001:0008ce70       _md2_load                  000000014008de70 f   picomodel:pm_md2.obj
 0001:0008d8e0       _mdc_canload               000000014008e8e0 f   picomodel:pm_mdc.obj
 0001:0008d930       _mdc_load                  000000014008e930 f   picomodel:pm_mdc.obj
 0001:0008e210       _ms3d_canload              000000014008f210 f   picomodel:pm_ms3d.obj
 0001:0008e290       GetWord                    000000014008f290 f   picomodel:pm_ms3d.obj
 0001:0008e2d0       _ms3d_load                 000000014008f2d0 f   picomodel:pm_ms3d.obj
 0001:0008ea00       _ase_get_material          000000014008fa00 f   picomodel:pm_ase.obj
 0001:0008ea20       _ase_get_submaterial       000000014008fa20 f   picomodel:pm_ase.obj
 0001:0008ead0       _ase_add_material          000000014008fad0 f   picomodel:pm_ase.obj
 0001:0008eb10       _ase_add_submaterial       000000014008fb10 f   picomodel:pm_ase.obj
 0001:0008eb90       _ase_free_materials        000000014008fb90 f   picomodel:pm_ase.obj
 0001:0008ec10       _ase_canload               000000014008fc10 f   picomodel:pm_ase.obj
 0001:0008eca0       _ase_submit_triangles      000000014008fca0 f   picomodel:pm_ase.obj
 0001:0008f210       _ase_load                  0000000140090210 f   picomodel:pm_ase.obj
 0001:00090870       _3ds_canload               0000000140091870 f   picomodel:pm_3ds.obj
 0001:000908d0       GetChunk                   00000001400918d0 f   picomodel:pm_3ds.obj
 0001:00090930       GetASCIIZ                  0000000140091930 f   picomodel:pm_3ds.obj
 0001:000909c0       GetByte                    00000001400919c0 f   picomodel:pm_3ds.obj
 0001:000909e0       GetWord                    00000001400919e0 f   picomodel:pm_3ds.obj
 0001:00090a20       GetFloat                   0000000140091a20 f   picomodel:pm_3ds.obj
 0001:00090a50       GetMeshVertices            0000000140091a50 f   picomodel:pm_3ds.obj
 0001:00090ae0       GetMeshFaces               0000000140091ae0 f   picomodel:pm_3ds.obj
 0001:00090ba0       GetMeshTexCoords           0000000140091ba0 f   picomodel:pm_3ds.obj
 0001:00090c30       GetMeshShader              0000000140091c30 f   picomodel:pm_3ds.obj
 0001:00090e00       GetDiffuseColor            0000000140091e00 f   picomodel:pm_3ds.obj
 0001:00090e50       DoNextEditorDataChunk      0000000140091e50 f   picomodel:pm_3ds.obj
 0001:000910d0       DoNextChunk                00000001400920d0 f   picomodel:pm_3ds.obj
 0001:00091190       _3ds_load                  0000000140092190 f   picomodel:pm_3ds.obj
 0001:000912a0       _md3_canload               00000001400922a0 f   picomodel:pm_md3.obj
 0001:000912f0       _md3_load                  00000001400922f0 f   picomodel:pm_md3.obj
 0001:00094a10       compare_shaders            0000000140095a10 f   picomodel:surface.obj
 0001:00094a10       compare_textures           0000000140095a10 f   picomodel:surface.obj
 0001:00094a40       add_texture                0000000140095a40 f   picomodel:surface.obj
 0001:00095750       compare_keys               0000000140096750 f   picomodel:envelope.obj
 0001:00096200       add_clip                   0000000140097200 f   picomodel:lwob.obj
 0001:000962b0       add_tvel                   00000001400972b0 f   picomodel:lwob.obj
 0001:00096430       get_texture                0000000140097430 f   picomodel:lwob.obj
 0001:0009772c       pre_cpp_init               000000014009872c f   MSVCRT:crtexe.obj
 0001:00097794       __tmainCRTStartup          0000000140098794 f   MSVCRT:crtexe.obj
 0001:00097914       pre_c_init                 0000000140098914 f   MSVCRT:crtexe.obj
 0001:00097db0       _onexit$fin$0              0000000140098db0 f   MSVCRT:atonexit.obj
 0001:00097dc9       __tmainCRTStartup$filt$0   0000000140098dc9 f   MSVCRT:crtexe.obj
 0001:00097df0       _IsNonwritableInCurrentImage$filt$0 0000000140098df0 f   MSVCRT:pesect.obj
