 bloodmap

 Timestamp is 53526bea (Sat Apr 19 16:28:26 2014)

 Preferred load address is 0000000140000000

 Start         Length     Name                   Class
 0001:00000000 000847c8H .text                   CODE
 0001:000847d0 0000005eH .text$00                CODE
 0001:00084830 00000061H .text$x                 CODE
 0002:00000000 000004d0H .idata$5                DATA
 0002:000004d0 00000008H .CRT$XCA                DATA
 0002:000004d8 00000008H .CRT$XCAA               DATA
 0002:000004e0 00000008H .CRT$XCZ                DATA
 0002:000004e8 00000008H .CRT$XIA                DATA
 0002:000004f0 00000008H .CRT$XIAA               DATA
 0002:000004f8 00000008H .CRT$XIY                DATA
 0002:00000500 00000008H .CRT$XIZ                DATA
 0002:00000510 0000ff10H .rdata                  DATA
 0002:00010420 00000042H .rdata$debug            DATA
 0002:00010468 00000008H .rtc$IAA                DATA
 0002:00010470 00000008H .rtc$IZZ                DATA
 0002:00010478 00000008H .rtc$TAA                DATA
 0002:00010480 00000008H .rtc$TZZ                DATA
 0002:00010488 00009848H .xdata                  DATA
 0002:00019cd0 00000078H .idata$2                DATA
 0002:00019d48 00000014H .idata$3                DATA
 0002:00019d60 000004d0H .idata$4                DATA
 0002:0001a230 00000752H .idata$6                DATA
 0002:0001a982 00000000H .edata                  DATA
 0003:00000000 00014538H .data                   DATA
 0003:00014540 0f82ede0H .bss                    DATA
 0004:00000000 0000627cH .pdata                  DATA
 0005:00000000 00000250H .rsrc$01                DATA
 0005:00000250 000102f8H .rsrc$02                DATA

  Address         Publics by Value              Rva+Base               Lib:Object

 0000:00000000       ___safe_se_handler_table   0000000000000000     <absolute>
 0000:00000000       ___safe_se_handler_count   0000000000000000     <absolute>
 0000:00000000       __ImageBase                0000000140000000     <linker-defined>
 0001:00000000       ?IncDrawVerts@@YAXXZ       0000000140001000 f   bspfile_abstract.obj
 0001:000000d0       ?SetDrawVerts@@YAXH@Z      00000001400010d0 f   bspfile_abstract.obj
 0001:00000190       ?SetDrawSurfaces@@YAXH@Z   0000000140001190 f   bspfile_abstract.obj
 0001:00000250       ?SwapBSPFile@@YAXXZ        0000000140001250 f   bspfile_abstract.obj
 0001:00000420       ?WriteBSPFile@@YAXPEBD@Z   0000000140001420 f   bspfile_abstract.obj
 0001:000004c0       ?PrintBSPFileSizes@@YAXXZ  00000001400014c0 f   bspfile_abstract.obj
 0001:00000760       ?ParseEPair@@YAPEAUepair_s@@XZ 0000000140001760 f   bspfile_abstract.obj
 0001:000008d0       ?ParseEntity@@YA?AW4qboolean@@XZ 00000001400018d0 f   bspfile_abstract.obj
 0001:000009d0       ?ParseEntities@@YAXXZ      00000001400019d0 f   bspfile_abstract.obj
 0001:00000a70       ?UnparseEntities@@YAXW4qboolean@@@Z 0000000140001a70 f   bspfile_abstract.obj
 0001:00000db0       ?SetKeyValue@@YAXPEAUentity_t@@PEBD1@Z 0000000140001db0 f   bspfile_abstract.obj
 0001:00000f00       ?ValueForKey@@YAPEBDPEBUentity_t@@PEBD@Z 0000000140001f00 f   bspfile_abstract.obj
 0001:00000f70       ?IntForKey@@YAHPEBUentity_t@@PEBD@Z 0000000140001f70 f   bspfile_abstract.obj
 0001:00000ff0       ?FloatForKey@@YAMPEBUentity_t@@PEBD@Z 0000000140001ff0 f   bspfile_abstract.obj
 0001:00001060       ?GetVectorForKey@@YAXPEBUentity_t@@PEBDQEAM@Z 0000000140002060 f   bspfile_abstract.obj
 0001:00001120       ?FindTargetEntity@@YAPEAUentity_t@@PEBD@Z 0000000140002120 f   bspfile_abstract.obj
 0001:000011f0       ?GetEntityShadowFlags@@YAXPEBUentity_t@@0PEAD1@Z 00000001400021f0 f   bspfile_abstract.obj
 0001:00002610       ?LoadIBSPFile@@YAXPEBD@Z   0000000140003610 f   bspfile_ibsp.obj
 0001:00002be0       ?WriteIBSPFile@@YAXPEBD@Z  0000000140003be0 f   bspfile_ibsp.obj
 0001:00003610       ?LoadRBSPFile@@YAXPEBD@Z   0000000140004610 f   bspfile_rbsp.obj
 0001:00003dd0       ?WriteRBSPFile@@YAXPEBD@Z  0000000140004dd0 f   bspfile_rbsp.obj
 0001:000044a0       ?AllocateDiskPage@@YAXPEAUdiskCache_t@@HH@Z 00000001400054a0 f   diskcache.obj
 0001:00004590       ?SelectDiskPage@@YAPEAUcachePage_s@@PEAUdiskCache_t@@H@Z 0000000140005590 f   diskcache.obj
 0001:00004630       ?DeselectDiskPage@@YAXPEAUdiskCache_t@@H@Z 0000000140005630 f   diskcache.obj
 0001:000047c0       ?PNGReadData@@YAXPEAUpng_struct_def@@PEAE_K@Z 00000001400057c0 f   image.obj
 0001:00004c00       ?ImageFind@@YAPEAUimage_s@@PEBD@Z 0000000140005c00 f   image.obj
 0001:00004cf0       ?ImageLoad@@YAPEAUimage_s@@PEBD@Z 0000000140005cf0 f   image.obj
 0001:00005580       ?FixAAS@@YAHHPEAPEAD@Z     0000000140006580 f   main.obj
 0001:00005810       ?AnalyzeBSP@@YAHHPEAPEAD@Z 0000000140006810 f   main.obj
 0001:00005c00       ?BSPInfo@@YAHHPEAPEAD@Z    0000000140006c00 f   main.obj
 0001:00005f40       ?ScaleBSPMain@@YAHHPEAPEAD@Z 0000000140006f40 f   main.obj
 0001:00006f00       ?ConvertBSPMain@@YAHHPEAPEAD@Z 0000000140007f00 f   main.obj
 0001:00007250       main                       0000000140008250 f   main.obj
 0001:00007890       ?LerpDrawVert@@YAXPEAUbspDrawVert_t@@00@Z 0000000140008890 f   mesh.obj
 0001:00007a50       ?LerpDrawVertAmount@@YAXPEAUbspDrawVert_t@@0M0@Z 0000000140008a50 f   mesh.obj
 0001:00007cc0       ?CopyMesh@@YAPEAUmesh_t@@PEAU1@@Z 0000000140008cc0 f   mesh.obj
 0001:00007d40       ?TransposeMesh@@YAPEAUmesh_t@@PEAU1@@Z 0000000140008d40 f   mesh.obj
 0001:00007e40       ?InvertMesh@@YAXPEAUmesh_t@@@Z 0000000140008e40 f   mesh.obj
 0001:00007f80       ?MakeMeshNormals@@YAXUmesh_t@@@Z 0000000140008f80 f   mesh.obj
 0001:00008510       ?PutMeshOnCurve@@YAXUmesh_t@@@Z 0000000140009510 f   mesh.obj
 0001:00008950       ?SubdivideMesh@@YAPEAUmesh_t@@U1@MM@Z 0000000140009950 f   mesh.obj
 0001:00009280       ?IterationsForCurve@@YAHMH@Z 000000014000a280 f   mesh.obj
 0001:00009300       ?SubdivideMesh2@@YAPEAUmesh_t@@U1@H@Z 000000014000a300 f   mesh.obj
 0001:00009850       ?RemoveLinearMeshColumnsRows@@YAPEAUmesh_t@@PEAU1@@Z 000000014000a850 f   mesh.obj
 0001:00009e40       ?PicoPrintFunc@@YAXHPEBD@Z 000000014000ae40 f   model.obj
 0001:00009ec0       ?PicoLoadFileFunc@@YAXPEADPEAPEAEPEAH@Z 000000014000aec0 f   model.obj
 0001:00009ee0       ?FindModel@@YAPEAUpicoModel_s@@PEBDH@Z 000000014000aee0 f   model.obj
 0001:00009fb0       ?LoadModel@@YAPEAUpicoModel_s@@PEBDH@Z 000000014000afb0 f   model.obj
 0001:0000a0b0       ?InsertModel@@YAXPEADHHQEAMMPEAUremap_s@@PEAUshaderInfo_s@@HDDHMHEHW4qboolean@@M@Z 000000014000b0b0 f   model.obj
 0001:0000b300       ?LoadTriangleModels@@YAXXZ 000000014000c300 f   model.obj
 0001:0000b530       ?AddTriangleModels@@YAXPEAUentity_t@@@Z 000000014000c530 f   model.obj
 0001:0000c6b0       ?TidyShaders@@YAXXZ        000000014000d6b0 f   optimize.obj
 0001:0000ce10       ?MergeDrawSurfaces@@YAXXZ  000000014000de10 f   optimize.obj
 0001:0000da40       ?MergeDrawVerts@@YAXXZ     000000014000ea40 f   optimize.obj
 0001:0000e490       ?WriteResourceOBJFile@@YAXPEBD@Z 000000014000f490 f   optimize.obj
 0001:0000eab0       ?OptimizeBSPMain@@YAHHPEAPEAD@Z 000000014000fab0 f   optimize.obj
 0001:0000f160       ?AllocateEntity@@YAPEAUentity_t@@PEAU1@@Z 0000000140010160 f   patchbsp.obj
 0001:0000f1e0       ?FindMapEntityByUniqueKey@@YAPEAUentity_t@@PEBD@Z 00000001400101e0 f   patchbsp.obj
 0001:0000f2f0       ?PatchEntities@@YAXXZ      00000001400102f0 f   patchbsp.obj
 0001:0000f870       ?PatchBSPMain@@YAHHPEAPEAD@Z 0000000140010870 f   patchbsp.obj
 0001:0000fe40       ?GetGame@@YAPEAUgame_s@@PEAD@Z 0000000140010e40 f   path_init.obj
 0001:0000ff90       ?AddBasePath@@YAXPEAD@Z    0000000140010f90 f   path_init.obj
 0001:00010030       ?AddGamePath@@YAXPEAD@Z    0000000140011030 f   path_init.obj
 0001:000100d0       ?InitPaths@@YAXPEAHPEAPEAD@Z 00000001400110d0 f   path_init.obj
 0001:000105b0       ?GetGamePath@@YA?AW4qboolean@@PEAD0@Z 00000001400115b0 f   path_init.obj
 0001:00010840       ?ColorModBuildRandomMatrix@@YAXXZ 0000000140011840 f   shaders.obj
 0001:000108f0       ?ColorModRandom@@YAMQEAMM@Z 00000001400118f0 f   shaders.obj
 0001:00010bc0       ?ColorMod@@YAXPEAUmapDrawSurface_s@@PEAUcolorMod_s@@PEAUbrush_s@@HH@Z 0000000140011bc0 f   shaders.obj
 0001:00011350       ?TCModMultiply@@YAXQEAY02M00@Z 0000000140012350 f   shaders.obj
 0001:000114d0       ?TCModRotate@@YAXQEAY02MM@Z 00000001400124d0 f   shaders.obj
 0001:000115c0       ?ApplySurfaceParm@@YA?AW4qboolean@@PEADPEAH11@Z 00000001400125c0 f   shaders.obj
 0001:00011710       ?BeginMapShaderFile@@YAXPEBD@Z 0000000140012710 f   shaders.obj
 0001:00011860       ?WriteMapShaderFile@@YAXXZ 0000000140012860 f   shaders.obj
 0001:000119e0       ?CustomShader@@YAPEAUshaderInfo_s@@PEAU1@PEAD1@Z 00000001400129e0 f   shaders.obj
 0001:00012090       ?FinishShader@@YAXPEAUshaderInfo_s@@@Z 0000000140013090 f   shaders.obj
 0001:000127d0       ?ShaderInfoForShader@@YAPEAUshaderInfo_s@@PEBD@Z 00000001400137d0 f   shaders.obj
 0001:000129d0       ?GetTokenAppend@@YA?AW4qboolean@@PEADW41@@Z 00000001400139d0 f   shaders.obj
 0001:00012ad0       ?Parse1DMatrixAppend@@YAXPEADHPEAM@Z 0000000140013ad0 f   shaders.obj
 0001:000154e0       ?LoadShaderInfo@@YAXXZ     00000001400164e0 f   shaders.obj
 0001:00015810       ?SetSurfaceExtra@@YAXPEAUmapDrawSurface_s@@H@Z 0000000140016810 f   surface_extra.obj
 0001:000158c0       ?WriteSurfaceExtraFile@@YAXPEBD@Z 00000001400168c0 f   surface_extra.obj
 0001:00015c50       ?LoadSurfaceExtraFile@@YAXPEBD@Z 0000000140016c50 f   surface_extra.obj
 0001:00016120       ?safe_malloc_f@@YAPEAX_K@Z 0000000140017120 f   cmdlib.obj
 0001:00016160       ?safe_malloc_log@@YAPEAX_KPEBDH@Z 0000000140017160 f   cmdlib.obj
 0001:000162b0       ?safe_malloc_logend@@YAXXZ 00000001400172b0 f   cmdlib.obj
 0001:00016350       ?ExpandArg@@YAPEADPEBD@Z   0000000140017350 f   cmdlib.obj
 0001:000163e0       ?ExpandPath@@YAPEADPEBD@Z  00000001400173e0 f   cmdlib.obj
 0001:00016450       ?Q_getwd@@YAXPEAD@Z        0000000140017450 f   cmdlib.obj
 0001:000164b0       ?LoadFile@@YAHPEBDPEAPEAX@Z 00000001400174b0 f   cmdlib.obj
 0001:000165a0       ?DefaultExtension@@YAXPEADPEBD@Z 00000001400175a0 f   cmdlib.obj
 0001:00016610       ?LBMRLEDecompress@@YAPEAEPEAE0H@Z 0000000140017610 f   imagelib.obj
 0001:000166e0       ?LoadLBM@@YAXPEBDPEAPEAE1@Z 00000001400176e0 f   imagelib.obj
 0001:00016ad0       ?LoadPCX@@YAXPEBDPEAPEAE1PEAH2@Z 0000000140017ad0 f   imagelib.obj
 0001:00016d70       ?LoadBMP@@YAXPEBDPEAPEAE1PEAH2@Z 0000000140017d70 f   imagelib.obj
 0001:00017390       ?Load256Image@@YAXPEBDPEAPEAE1PEAH2@Z 0000000140018390 f   imagelib.obj
 0001:000175a0       ?TargaError@@YAXPEAU_TargaHeader@@PEBD@Z 00000001400185a0 f   imagelib.obj
 0001:00017650       ?LoadTGABuffer@@YAXPEBE0PEAPEAEPEAH2@Z 0000000140018650 f   imagelib.obj
 0001:00017d20       ?LoadTGA@@YAXPEBDPEAPEAEPEAH2@Z 0000000140018d20 f   imagelib.obj
 0001:00017db0       ?WriteTGA@@YAXPEBDPEAEHH@Z 0000000140018db0 f   imagelib.obj
 0001:00017ec0       ?Load32BitImage@@YAXPEBDPEAPEAIPEAH2@Z 0000000140018ec0 f   imagelib.obj
 0001:00018070       ?xml_SendNode@@YAXPEAU_xmlNode@@@Z 0000000140019070 f   inout.obj
 0001:00018190       ?xml_Select@@YAXPEADHHW4qboolean@@@Z 0000000140019190 f   inout.obj
 0001:000182d0       ?xml_Winding@@YAXPEADQEAY02MHW4qboolean@@@Z 00000001400192d0 f   inout.obj
 0001:00018470       ?Broadcast_Shutdown@@YAXXZ 0000000140019470 f   inout.obj
 0001:000184b0       ?Sys_FPrintf@@YAXHPEBDZZ   00000001400194b0 f   inout.obj
 0001:000185e0       ?Sys_Printf@@YAXPEBDZZ     00000001400195e0 f   inout.obj
 0001:000186e0       ?Error@@YAXPEBDZZ          00000001400196e0 f   inout.obj
 0001:00018830       ?MD4Update@@YAXPEAUMD4_CTX_s@@PEAEI@Z 0000000140019830 f   md4.obj
 0001:00018900       ?MD4Final@@YAXQEAEPEAUMD4_CTX_s@@@Z 0000000140019900 f   md4.obj
 0001:00018fb0       ?AllocWinding@@YAPEAUwinding_t@@H@Z 0000000140019fb0 f   polylib.obj
 0001:00019050       ?FreeWinding@@YAXPEAUwinding_t@@@Z 000000014001a050 f   polylib.obj
 0001:00019090       ?WindingArea@@YAMPEAUwinding_t@@@Z 000000014001a090 f   polylib.obj
 0001:000191f0       ?BaseWindingForPlane@@YAPEAUwinding_t@@QEAMM@Z 000000014001a1f0 f   polylib.obj
 0001:00019550       ?ReverseWinding@@YAPEAUwinding_t@@PEAU1@@Z 000000014001a550 f   polylib.obj
 0001:00019660       ?ClipWindingEpsilon@@YAXPEAUwinding_t@@QEAMMMPEAPEAU1@2@Z 000000014001a660 f   polylib.obj
 0001:00019ae0       ?ChopWindingInPlace@@YAXPEAPEAUwinding_t@@QEAMMM@Z 000000014001aae0 f   polylib.obj
 0001:00019ea0       ?WindingOnPlaneSide@@YAHPEAUwinding_t@@QEAMM@Z 000000014001aea0 f   polylib.obj
 0001:00019fc0       ?AddWindingToConvexHull@@YAXPEAUwinding_t@@PEAPEAU1@QEAM@Z 000000014001afc0 f   polylib.obj
 0001:0001a610       ?AddScriptToStack@@YAXPEBDH@Z 000000014001b610 f   scriplib.obj
 0001:0001a710       ?EndOfScript@@YA?AW4qboolean@@W41@@Z 000000014001b710 f   scriplib.obj
 0001:0001a7f0       ?GetToken@@YA?AW4qboolean@@W41@@Z 000000014001b7f0 f   scriplib.obj
 0001:0001ab20       ?TokenAvailable@@YA?AW4qboolean@@XZ 000000014001bb20 f   scriplib.obj
 0001:0001ab60       ?MatchToken@@YAXPEAD@Z     000000014001bb60 f   scriplib.obj
 0001:0001abc0       ?Parse1DMatrix@@YAXHPEAM@Z 000000014001bbc0 f   scriplib.obj
 0001:0001acb0       ?Parse2DMatrix@@YAXHHPEAM@Z 000000014001bcb0 f   scriplib.obj
 0001:0001ad80       ?GetThreadWork@@YAHXZ      000000014001bd80 f   threads.obj
 0001:0001aec0       ?ThreadWorkerFunction@@YAXH@Z 000000014001bec0 f   threads.obj
 0001:0001aef0       ?RunThreadsOnIndividual@@YAXHW4qboolean@@P6AXH@Z@Z 000000014001bef0 f   threads.obj
 0001:0001af70       ?RunThreadsOn@@YAXHW4qboolean@@P6AXH@Z@Z 000000014001bf70 f   threads.obj
 0001:0001b230       ?unzOpen@@YAPEAXPEBD@Z     000000014001c230 f   unzip.obj
 0001:0001b7e0       ?unzGoToFirstFile@@YAHPEAX@Z 000000014001c7e0 f   unzip.obj
 0001:0001b840       ?unzGoToNextFile@@YAHPEAX@Z 000000014001c840 f   unzip.obj
 0001:0001bac0       ?unzOpenCurrentFile@@YAHPEAX@Z 000000014001cac0 f   unzip.obj
 0001:0001bc40       ?unzReadCurrentFile@@YAHPEAX0I@Z 000000014001cc40 f   unzip.obj
 0001:0001be70       ?unzCloseCurrentFile@@YAHPEAX@Z 000000014001ce70 f   unzip.obj
 0001:0001bf20       ?crc32@@YAKKPEBEI@Z        000000014001cf20 f   unzip.obj
 0001:0001c070       ?inflate_blocks_reset@@YAXPEAUinflate_blocks_state@@PEAUz_stream_s@@PEAK@Z 000000014001d070 f   unzip.obj
 0001:0001c0f0       ?inflate_blocks_new@@YAPEAUinflate_blocks_state@@PEAUz_stream_s@@P6AKKPEBEI@ZI@Z 000000014001d0f0 f   unzip.obj
 0001:0001c1d0       ?inflate_blocks@@YAHPEAUinflate_blocks_state@@PEAUz_stream_s@@H@Z 000000014001d1d0 f   unzip.obj
 0001:0001cdb0       ?inflate_blocks_free@@YAHPEAUinflate_blocks_state@@PEAUz_stream_s@@@Z 000000014001ddb0 f   unzip.obj
 0001:0001ce50       ?inflate_flush@@YAHPEAUinflate_blocks_state@@PEAUz_stream_s@@H@Z 000000014001de50 f   unzip.obj
 0001:0001d470       ?inflate_trees_bits@@YAHPEAI0PEAPEAUinflate_huft_s@@PEAU1@PEAUz_stream_s@@@Z 000000014001e470 f   unzip.obj
 0001:0001d550       ?inflate_fast@@YAHIIPEAUinflate_huft_s@@0PEAUinflate_blocks_state@@PEAUz_stream_s@@@Z 000000014001e550 f   unzip.obj
 0001:0001d8e0       ?inflate_codes_new@@YAPEAUinflate_codes_state@@IIPEAUinflate_huft_s@@0PEAUz_stream_s@@@Z 000000014001e8e0 f   unzip.obj
 0001:0001d950       ?inflate_codes@@YAHPEAUinflate_blocks_state@@PEAUz_stream_s@@H@Z 000000014001e950 f   unzip.obj
 0001:0001df50       ?adler32@@YAKKPEBEI@Z      000000014001ef50 f   unzip.obj
 0001:0001e0c0       ?inflateReset@@YAHPEAUz_stream_s@@@Z 000000014001f0c0 f   unzip.obj
 0001:0001e180       ?inflateEnd@@YAHPEAUz_stream_s@@@Z 000000014001f180 f   unzip.obj
 0001:0001e1e0       ?inflateInit2_@@YAHPEAUz_stream_s@@HPEBDH@Z 000000014001f1e0 f   unzip.obj
 0001:0001e2d0       ?inflate@@YAHPEAUz_stream_s@@H@Z 000000014001f2d0 f   unzip.obj
 0001:0001e750       ?zcalloc@@YAPEAEPEAEII@Z   000000014001f750 f   unzip.obj
 0001:0001e770       ?zcfree@@YAXPEAE0@Z        000000014001f770 f   unzip.obj
 0001:0001e910       ?vfsInitDirectory@@YAXPEBD@Z 000000014001f910 f   vfs.obj
 0001:0001eae0       ?vfsGetFileCount@@YAHPEBD@Z 000000014001fae0 f   vfs.obj
 0001:0001ec60       ?vfsLoadFile@@YAHPEBDPEAPEAXH@Z 000000014001fc60 f   vfs.obj
 0001:0001efb0       ?AllocSideRef@@YAPEAUsideRef_s@@PEAUside_s@@PEAU1@@Z 000000014001ffb0 f   brush.obj
 0001:0001f000       ?AllocBrush@@YAPEAUbrush_s@@H@Z 0000000140020000 f   brush.obj
 0001:0001f080       ?FreeBrush@@YAXPEAUbrush_s@@@Z 0000000140020080 f   brush.obj
 0001:0001f170       ?CopyBrush@@YAPEAUbrush_s@@PEAU1@@Z 0000000140020170 f   brush.obj
 0001:0001f240       ?BoundBrush@@YA?AW4qboolean@@PEAUbrush_s@@@Z 0000000140020240 f   brush.obj
 0001:0001f330       ?SnapWeldVector@@YAXQEAM00@Z 0000000140020330 f   brush.obj
 0001:0001f470       ?FixWinding@@YA?AW4qboolean@@PEAUwinding_t@@@Z 0000000140020470 f   brush.obj
 0001:0001f5e0       ?CreateBrushWindings@@YA?AW4qboolean@@PEAUbrush_s@@@Z 00000001400205e0 f   brush.obj
 0001:0001f740       ?BrushVolume@@YAMPEAUbrush_s@@@Z 0000000140020740 f   brush.obj
 0001:0001f870       ?WriteBSPBrushMap@@YAXPEADPEAUbrush_s@@@Z 0000000140020870 f   brush.obj
 0001:0001fa50       ?FilterBrushIntoTree_r@@YAHPEAUbrush_s@@PEAUnode_s@@@Z 0000000140020a50 f   brush.obj
 0001:0001fb20       ?FilterDetailBrushesIntoTree@@YAXPEAUentity_t@@PEAUtree_t@@@Z 0000000140020b20 f   brush.obj
 0001:0001fbf0       ?FilterStructuralBrushesIntoTree@@YAXPEAUentity_t@@PEAUtree_t@@@Z 0000000140020bf0 f   brush.obj
 0001:0001fcc0       ?WindingIsTiny@@YA?AW4qboolean@@PEAUwinding_t@@@Z 0000000140020cc0 f   brush.obj
 0001:0001fda0       ?BrushMostlyOnSide@@YAHPEAUbrush_s@@PEAUplane_s@@@Z 0000000140020da0 f   brush.obj
 0001:00020020       ?SplitBrush@@YAXPEAUbrush_s@@HPEAPEAU1@1@Z 0000000140021020 f   brush.obj
 0001:000207d0       ?ComputeAxisBase@@YAXQEAM00@Z 00000001400217d0 f   brush_primit.obj
 0001:00020930       ?SetCloneModelNumbers@@YAXXZ 0000000140021930 f   bsp.obj
 0001:00020d70       ?ProcessWorldModel@@YAXXZ  0000000140021d70 f   bsp.obj
 0001:00021920       ?ProcessSubModel@@YAXXZ    0000000140022920 f   bsp.obj
 0001:00021bb0       ?ProcessModels@@YAXXZ      0000000140022bb0 f   bsp.obj
 0001:00021d90       ?BSPMain@@YAHHPEAPEAD@Z    0000000140022d90 f   bsp.obj
 0001:00023d80       ?ProcessDecals@@YAXXZ      0000000140024d80 f   decals.obj
 0001:00025250       ?MakeEntityDecals@@YAXPEAUentity_t@@@Z 0000000140026250 f   decals.obj
 0001:00025600       ?FreeNode@@YAXPEAUdnode_s@@@Z 0000000140026600 f   decorations.obj
 0001:00025670       ?FreeNodesArray@@YAXPEAUdnode_s@@H@Z 0000000140026670 f   decorations.obj
 0001:00025770       ?EntityArrayAdd@@YAXPEAUdgroupents_s@@PEAUentity_t@@@Z 0000000140026770 f   decorations.obj
 0001:00025830       ?NewDecoreGroup@@YAPEAUdgroup_s@@PEADW4decoreMatchParm_t@@@Z 0000000140026830 f   decorations.obj
 0001:00025950       ?PopulateDecoreGroup@@YA?AW4qboolean@@PEAUentity_t@@W4decoreMatchParm_t@@PEAD@Z 0000000140026950 f   decorations.obj
 0001:00025a50       ?DecoreParseActions@@YAXPEAUdactions_s@@@Z 0000000140026a50 f   decorations.obj
 0001:00026090       ?EntityPopulateDecorationGroups@@YAXH@Z 0000000140027090 f   decorations.obj
 0001:00026100       ?LoadDecorationScript@@YAXXZ 0000000140027100 f   decorations.obj
 0001:00026940       ?EntityProcessActions@@YAXPEAUentity_t@@PEAUdactions_s@@@Z 0000000140027940 f   decorations.obj
 0001:00026b10       ?ImportRtlights@@YAXXZ     0000000140027b10 f   decorations.obj
 0001:000274d0       ?ProcessDecorationGroup@@YAXH@Z 00000001400284d0 f   decorations.obj
 0001:00027dd0       ?ProcessDecorations@@YAXXZ 0000000140028dd0 f   decorations.obj
 0001:00028210       ?BuildFaceTree_r@@YAXPEAUnode_s@@PEAUface_s@@@Z 0000000140029210 f   facebsp.obj
 0001:000285e0       ?FaceBSP@@YAPEAUtree_t@@PEAUface_s@@@Z 00000001400295e0 f   facebsp.obj
 0001:00028780       ?MakeStructuralBSPFaceList@@YAPEAUface_s@@PEAUbrush_s@@@Z 0000000140029780 f   facebsp.obj
 0001:000288e0       ?MakeVisibleBSPFaceList@@YAPEAUface_s@@PEAUbrush_s@@@Z 00000001400298e0 f   facebsp.obj
 0001:00028a40       ?DrawSurfToMesh@@YAPEAUmesh_t@@PEAUmapDrawSurface_s@@@Z 0000000140029a40 f   fog.obj
 0001:00028ae0       ?SplitMeshByPlane@@YAXPEAUmesh_t@@QEAMMPEAPEAU1@2@Z 0000000140029ae0 f   fog.obj
 0001:00029280       ?ChopPatchSurfaceByBrush@@YA?AW4qboolean@@PEAUentity_t@@PEAUmapDrawSurface_s@@PEAUbrush_s@@@Z 000000014002a280 f   fog.obj
 0001:000294e0       ?WindingFromDrawSurf@@YAPEAUwinding_t@@PEAUmapDrawSurface_s@@@Z 000000014002a4e0 f   fog.obj
 0001:00029720       ?ChopFaceSurfaceByBrush@@YA?AW4qboolean@@PEAUentity_t@@PEAUmapDrawSurface_s@@PEAUbrush_s@@@Z 000000014002a720 f   fog.obj
 0001:00029a80       ?FogDrawSurfaces@@YAXPEAUentity_t@@@Z 000000014002aa80 f   fog.obj
 0001:00029c90       ?FogForBounds@@YAHQEAM0M@Z 000000014002ac90 f   fog.obj
 0001:00029e10       ?CreateMapFogs@@YAXXZ      000000014002ae10 f   fog.obj
 0001:0002a150       ?LeakFile@@YAPEAU_xmlNode@@PEAUtree_t@@@Z 000000014002b150 f   leakfile.obj
 0001:0002a5d0       ?CreateNewFloatPlane@@YAHQEAMM@Z 000000014002b5d0 f   map.obj
 0001:0002a7c0       ?SnapNormal@@YAXQEAM@Z     000000014002b7c0 f   map.obj
 0001:0002a860       ?FindFloatPlane@@YAHQEAMMHPEAY02M@Z 000000014002b860 f   map.obj
 0001:0002abb0       ?MapPlaneFromPoints@@YAHPEAY02M@Z 000000014002bbb0 f   map.obj
 0001:0002aca0       ?SetBrushContents@@YAXPEAUbrush_s@@@Z 000000014002bca0 f   map.obj
 0001:0002ade0       ?AddBrushBevels@@YAXXZ     000000014002bde0 f   map.obj
 0001:0002bb30       ?FinishBrush@@YAPEAUbrush_s@@XZ 000000014002cb30 f   map.obj
 0001:0002bd50       ?TextureAxisFromPlane@@YAXPEAUplane_s@@QEAM1@Z 000000014002cd50 f   map.obj
 0001:0002bf20       ?QuakeTextureVecs@@YAXPEAUplane_s@@QEAMM1QEAY03M@Z 000000014002cf20 f   map.obj
 0001:0002c7d0       ?RemoveDuplicateBrushPlanes@@YA?AW4qboolean@@PEAUbrush_s@@@Z 000000014002d7d0 f   map.obj
 0001:0002ccf0       ?MoveBrushesToWorld@@YAXPEAUentity_t@@@Z 000000014002dcf0 f   map.obj
 0001:0002cdf0       ?AdjustBrushesForOrigin@@YAXPEAUentity_t@@@Z 000000014002ddf0 f   map.obj
 0001:0002cf40       ?SetEntityBounds@@YAXPEAUentity_t@@@Z 000000014002df40 f   map.obj
 0001:0002d2d0       ?LoadEntityIndexMap@@YAXPEAUentity_t@@@Z 000000014002e2d0 f   map.obj
 0001:0002dfd0       ?LoadMapFile@@YAXPEADW4qboolean@@1@Z 000000014002efd0 f   map.obj
 0001:0002eee0       ?ParsePatch@@YAXW4qboolean@@@Z 000000014002fee0 f   patch.obj
 0001:0002f6c0       ?PatchMapDrawSurfs@@YAXPEAUentity_t@@@Z 00000001400306c0 f   patch.obj
 0001:0002fc80       ?MakeHeadnodePortals@@YAXPEAUtree_t@@@Z 0000000140030c80 f   portals.obj
 0001:0002ff80       ?BaseWindingForNode@@YAPEAUwinding_t@@PEAUnode_s@@@Z 0000000140030f80 f   portals.obj
 0001:00030090       ?MakeNodePortal@@YAXPEAUnode_s@@@Z 0000000140031090 f   portals.obj
 0001:000302d0       ?SplitNodePortals@@YAXPEAUnode_s@@@Z 00000001400312d0 f   portals.obj
 0001:00030a40       ?CalcNodeBounds@@YAXPEAUnode_s@@@Z 0000000140031a40 f   portals.obj
 0001:00030ad0       ?MakeTreePortals_r@@YAXPEAUnode_s@@@Z 0000000140031ad0 f   portals.obj
 0001:00030bf0       ?FloodPortals_r@@YAXPEAUnode_s@@HW4qboolean@@@Z 0000000140031bf0 f   portals.obj
 0001:00030c90       ?FloodEntities@@YA?AW4qboolean@@PEAUtree_t@@@Z 0000000140031c90 f   portals.obj
 0001:00031260       ?FloodAreas_r@@YAXPEAUnode_s@@@Z 0000000140032260 f   portals.obj
 0001:000313a0       ?FindAreas_r@@YAXPEAUnode_s@@@Z 00000001400323a0 f   portals.obj
 0001:000313f0       ?FloodSkyboxArea_r@@YAXPEAUnode_s@@@Z 00000001400323f0 f   portals.obj
 0001:00031440       ?FloodAreas@@YAXPEAUtree_t@@@Z 0000000140032440 f   portals.obj
 0001:000314f0       ?FillOutside_r@@YAXPEAUnode_s@@@Z 00000001400324f0 f   portals.obj
 0001:00031550       ?FillOutside@@YAXPEAUnode_s@@@Z 0000000140032550 f   portals.obj
 0001:00031610       ?WriteFloat@@YAXPEAU_iobuf@@M@Z 0000000140032610 f   prtfile.obj
 0001:000316a0       ?WritePortalFile_r@@YAXPEAUnode_s@@@Z 00000001400326a0 f   prtfile.obj
 0001:000319c0       ?WriteFaceFile_r@@YAXPEAUnode_s@@@Z 00000001400329c0 f   prtfile.obj
 0001:00031c00       ?NumberLeafs_r@@YAXPEAUnode_s@@@Z 0000000140032c00 f   prtfile.obj
 0001:00031d30       ?NumberClusters@@YAXPEAUtree_t@@@Z 0000000140032d30 f   prtfile.obj
 0001:00031db0       ?WritePortalFile@@YAXPEAUtree_t@@@Z 0000000140032db0 f   prtfile.obj
 0001:00031eb0       ?AllocDrawSurface@@YAPEAUmapDrawSurface_s@@W4surfaceType_t@@@Z 0000000140032eb0 f   surface.obj
 0001:00031f60       ?FinishSurface@@YAXPEAUmapDrawSurface_s@@@Z 0000000140032f60 f   surface.obj
 0001:00032020       ?CloneSurface@@YAPEAUmapDrawSurface_s@@PEAU1@PEAUshaderInfo_s@@@Z 0000000140033020 f   surface.obj
 0001:00032120       ?MakeSkyboxSurface@@YAPEAUmapDrawSurface_s@@PEAU1@@Z 0000000140033120 f   surface.obj
 0001:000321a0       ?IsTriangleDegenerate@@YA?AW4qboolean@@PEAUbspDrawVert_t@@HHH@Z 00000001400331a0 f   surface.obj
 0001:00032290       ?ClearSurface@@YAXPEAUmapDrawSurface_s@@@Z 0000000140033290 f   surface.obj
 0001:000322f0       ?TidyEntitySurfaces@@YAXPEAUentity_t@@@Z 00000001400332f0 f   surface.obj
 0001:00032470       ?CalcSurfaceTextureRange@@YA?AW4qboolean@@PEAUmapDrawSurface_s@@@Z 0000000140033470 f   surface.obj
 0001:000326d0       ?CalcLightmapAxis@@YA?AW4qboolean@@QEAM0@Z 00000001400336d0 f   surface.obj
 0001:000327e0       ?ClassifySurfaces@@YAXHPEAUmapDrawSurface_s@@@Z 00000001400337e0 f   surface.obj
 0001:00032c80       ?ClassifyEntitySurfaces@@YAXPEAUentity_t@@@Z 0000000140033c80 f   surface.obj
 0001:00032d00       ?GetShaderIndexForPoint@@YAEPEAUindexMap_s@@QEAM11@Z 0000000140033d00 f   surface.obj
 0001:00032df0       ?GetIndexedShader@@YAPEAUshaderInfo_s@@PEAU1@PEAUindexMap_s@@HPEAE@Z 0000000140033df0 f   surface.obj
 0001:00033040       ?DrawSurfaceForSide@@YAPEAUmapDrawSurface_s@@PEAUentity_t@@PEAUbrush_s@@PEAUside_s@@PEAUwinding_t@@@Z 0000000140034040 f   surface.obj
 0001:00033a70       ?DrawSurfaceForMesh@@YAPEAUmapDrawSurface_s@@PEAUentity_t@@PEAUparseMesh_s@@PEAUmesh_t@@@Z 0000000140034a70 f   surface.obj
 0001:00034540       ?DrawSurfaceForFlare@@YAPEAUmapDrawSurface_s@@HQEAM00PEADH@Z 0000000140035540 f   surface.obj
 0001:00034a90       ?SubdivideFaceSurfaces@@YAXPEAUentity_t@@PEAUtree_t@@@Z 0000000140035a90 f   surface.obj
 0001:00034df0       ?ClipSideIntoTree_r@@YAXPEAUwinding_t@@PEAUside_s@@PEAUnode_s@@@Z 0000000140035df0 f   surface.obj
 0001:00034f00       ?SideInBrush@@YA?AW4qboolean@@PEAUside_s@@PEAUbrush_s@@@Z 0000000140035f00 f   surface.obj
 0001:00034ff0       ?CullSides@@YAXPEAUentity_t@@@Z 0000000140035ff0 f   surface.obj
 0001:00035610       ?ClipSidesIntoTree@@YAXPEAUentity_t@@PEAUtree_t@@@Z 0000000140036610 f   surface.obj
 0001:000357c0       ?AddReferenceToLeaf@@YAHPEAUmapDrawSurface_s@@PEAUnode_s@@@Z 00000001400367c0 f   surface.obj
 0001:00035870       ?AddReferenceToTree_r@@YAHPEAUmapDrawSurface_s@@PEAUnode_s@@W4qboolean@@@Z 0000000140036870 f   surface.obj
 0001:00035940       ?FilterPointIntoTree_r@@YAHQEAMPEAUmapDrawSurface_s@@PEAUnode_s@@@Z 0000000140036940 f   surface.obj
 0001:00035a20       ?FilterWindingIntoTree_r@@YAHPEAUwinding_t@@PEAUmapDrawSurface_s@@PEAUnode_s@@@Z 0000000140036a20 f   surface.obj
 0001:00036830       ?EmitDrawVerts@@YAXPEAUmapDrawSurface_s@@PEAUbspDrawSurface_t@@@Z 0000000140037830 f   surface.obj
 0001:00036a30       ?FindDrawIndexes@@YAHHPEAH@Z 0000000140037a30 f   surface.obj
 0001:00036b90       ?EmitDrawIndexes@@YAXPEAUmapDrawSurface_s@@PEAUbspDrawSurface_t@@@Z 0000000140037b90 f   surface.obj
 0001:00036c70       ?EmitFlareSurface@@YAXPEAUmapDrawSurface_s@@@Z 0000000140037c70 f   surface.obj
 0001:00036db0       ?EmitPatchSurface@@YAXPEAUentity_t@@PEAUmapDrawSurface_s@@@Z 0000000140037db0 f   surface.obj
 0001:00038030       ?MakeFogHullSurfs@@YAXPEAUentity_t@@PEAUtree_t@@PEAD@Z 0000000140039030 f   surface.obj
 0001:00038400       ?AddSurfaceModelsToTriangle_r@@YAHPEAUmapDrawSurface_s@@PEAUsurfaceModel_s@@PEAPEAUbspDrawVert_t@@@Z 0000000140039400 f   surface.obj
 0001:000389f0       ?AddSurfaceModels@@YAHPEAUmapDrawSurface_s@@@Z 00000001400399f0 f   surface.obj
 0001:00039420       ?FixDrawsurfVertexAlpha@@YAXH@Z 000000014003a420 f   surface.obj
 0001:00039aa0       ?FixVertexAlpha@@YAXPEAUentity_t@@W4qboolean@@@Z 000000014003aaa0 f   surface.obj
 0001:00039c10       ?ApplyVertexMods@@YAXPEAUentity_t@@W4qboolean@@@Z 000000014003ac10 f   surface.obj
 0001:00039e50       ?FilterDrawsurfsIntoTree@@YAXPEAUentity_t@@PEAUtree_t@@W4qboolean@@@Z 000000014003ae50 f   surface.obj
 0001:0003a410       ?EmitDrawsurfsStats@@YAXXZ 000000014003b410 f   surface.obj
 0001:0003a950       ?Foliage@@YAXPEAUmapDrawSurface_s@@@Z 000000014003b950 f   surface_foliage.obj
 0001:0003af50       ?Fur@@YAXPEAUmapDrawSurface_s@@@Z 000000014003bf50 f   surface_fur.obj
 0001:0003b360       ?FindMetaTriangle@@YAHPEAUmetaTriangle_s@@PEAUbspDrawVert_t@@11H@Z 000000014003c360 f   surface_meta.obj
 0001:0003b840       ?TriangulatePatchSurface@@YAXPEAUentity_t@@PEAUmapDrawSurface_s@@@Z 000000014003c840 f   surface_meta.obj
 0001:0003bd60       ?FanFaceSurface@@YAXPEAUmapDrawSurface_s@@@Z 000000014003cd60 f   surface_meta.obj
 0001:0003c120       ?StripFaceSurface@@YAXPEAUmapDrawSurface_s@@@Z 000000014003d120 f   surface_meta.obj
 0001:0003c430       ?EmitMetaStats@@YAXXZ      000000014003d430 f   surface_meta.obj
 0001:0003c4e0       ?MakeEntityMetaTriangles@@YAXPEAUentity_t@@@Z 000000014003d4e0 f   surface_meta.obj
 0001:0003c6f0       ?SmoothMetaTriangles@@YAXXZ 000000014003d6f0 f   surface_meta.obj
 0001:0003d0c0       ?AddMetaVertToSurface@@YAHPEAUmapDrawSurface_s@@PEAUbspDrawVert_t@@PEAH@Z 000000014003e0c0 f   surface_meta.obj
 0001:0003dd40       ?MergeMetaTriangles@@YAXXZ 000000014003ed40 f   surface_meta.obj
 0001:0003dee0       ?InsertPointOnEdge@@YAXQEAMPEAUedgeLine_s@@@Z 000000014003eee0 f   tjunction.obj
 0001:0003e010       ?AddEdge@@YAHQEAM0W4qboolean@@@Z 000000014003f010 f   tjunction.obj
 0001:0003e4d0       ?AddSurfaceEdges@@YAXPEAUmapDrawSurface_s@@@Z 000000014003f4d0 f   tjunction.obj
 0001:0003e560       ?ColinearEdge@@YA?AW4qboolean@@QEAM00@Z 000000014003f560 f   tjunction.obj
 0001:0003e680       ?AddPatchEdges@@YAXPEAUmapDrawSurface_s@@@Z 000000014003f680 f   tjunction.obj
 0001:0003e850       ?FixSurfaceJunctions@@YAXPEAUmapDrawSurface_s@@@Z 000000014003f850 f   tjunction.obj
 0001:0003ee20       ?FixBrokenSurface@@YA?AW4qboolean@@PEAUmapDrawSurface_s@@@Z 000000014003fe20 f   tjunction.obj
 0001:0003f170       ?EdgeCompare@@YAHPEBX0@Z   0000000140040170 f   tjunction.obj
 0001:0003f180       ?FixTJunctions@@YAXPEAUentity_t@@@Z 0000000140040180 f   tjunction.obj
 0001:0003f440       ?FreeTreePortals_r@@YAXPEAUnode_s@@@Z 0000000140040440 f   tree.obj
 0001:0003f5d0       ?FreeTree_r@@YAXPEAUnode_s@@@Z 00000001400405d0 f   tree.obj
 0001:0003f630       ?FreeTree@@YAXPEAUtree_t@@@Z 0000000140040630 f   tree.obj
 0001:0003f6b0       ?EmitShader@@YAHPEBDPEAH1@Z 00000001400406b0 f   writebsp.obj
 0001:0003f820       ?EmitPlanes@@YAXXZ         0000000140040820 f   writebsp.obj
 0001:0003f970       ?EmitLeaf@@YAXPEAUnode_s@@@Z 0000000140040970 f   writebsp.obj
 0001:0003fad0       ?EmitDrawNode_r@@YAHPEAUnode_s@@@Z 0000000140040ad0 f   writebsp.obj
 0001:0003fc00       ?SetModelNumbers@@YAXXZ    0000000140040c00 f   writebsp.obj
 0001:0003fca0       ?SetLightStyles@@YAXXZ     0000000140040ca0 f   writebsp.obj
 0001:0003fff0       ?EndBSPFile@@YAXXZ         0000000140040ff0 f   writebsp.obj
 0001:000400e0       ?EmitBrushes@@YAXPEAUbrush_s@@PEAH1@Z 00000001400410e0 f   writebsp.obj
 0001:000403e0       ?EmitFogs@@YAXXZ           00000001400413e0 f   writebsp.obj
 0001:00040500       ?BeginModel@@YAXXZ         0000000140041500 f   writebsp.obj
 0001:00040860       ?EndModel@@YAXPEAUentity_t@@PEAUnode_s@@@Z 0000000140041860 f   writebsp.obj
 0001:00040e60       ?CreateEntityLights@@YAXXZ 0000000140041e60 f   light.obj
 0001:00041c70       ?CreateSurfaceLights@@YAXXZ 0000000140042c70 f   light.obj
 0001:00041fe0       ?SetEntityOrigins@@YAXXZ   0000000140042fe0 f   light.obj
 0001:00042260       ?PointToPolygonFormFactor@@YAMQEBM0PEBUwinding_t@@@Z 0000000140043260 f   light.obj
 0001:00042520       ?LightContribution@@YAHPEAUtrace_t@@HW4qboolean@@@Z 0000000140043520 f   light.obj
 0001:00042cb0       ?LightContributionAllStyles@@YAXPEAUtrace_t@@QEAEQEAY02MHW4qboolean@@@Z 0000000140043cb0 f   light.obj
 0001:00042f50       ?TraceGrid@@YAXH@Z         0000000140043f50 f   light.obj
 0001:00043870       ?SetupGrid@@YAXXZ          0000000140044870 f   light.obj
 0001:00043cc0       ?LightWorld@@YAXXZ         0000000140044cc0 f   light.obj
 0001:00044ac0       ?LightMain@@YAHHPEAPEAD@Z  0000000140045ac0 f   light.obj
 0001:00046d80       ?RadFreeLights@@YAXXZ      0000000140047d80 f   light_bounce.obj
 0001:00047280       ?RadSampleImage@@YA?AW4qboolean@@PEAEHHQEAM1@Z 0000000140048280 f   light_bounce.obj
 0001:00048450       ?RadLightForTriangles@@YAXHHPEAUrawLightmap_s@@PEAUshaderInfo_s@@MMPEAUclipWork_t@@@Z 0000000140049450 f   light_bounce.obj
 0001:000486a0       ?RadLightForPatch@@YAXHHPEAUrawLightmap_s@@PEAUshaderInfo_s@@MMPEAUclipWork_t@@@Z 00000001400496a0 f   light_bounce.obj
 0001:00048c70       ?RadLight@@YAXH@Z          0000000140049c70 f   light_bounce.obj
 0001:00048ea0       ?RadCreateDiffuseLights@@YAXXZ 0000000140049ea0 f   light_bounce.obj
 0001:00049770       ?ClipTraceWinding@@YAXPEAUtraceWinding_s@@QEAM00@Z 000000014004a770 f   light_trace.obj
 0001:0004b810       ?SetupTraceNodes@@YAXXZ    000000014004c810 f   light_trace.obj
 0001:0004ba40       ?TraceTriangle@@YA?AW4qboolean@@PEAUtraceInfo_s@@PEAUtraceTriangle_s@@PEAUtrace_t@@@Z 000000014004ca40 f   light_trace.obj
 0001:0004c3f0       ?TraceLine@@YAXPEAUtrace_t@@@Z 000000014004d3f0 f   light_trace.obj
 0001:0004c5d0       ?SetupTrace@@YAMPEAUtrace_t@@@Z 000000014004d5d0 f   light_trace.obj
 0001:0004c650       ?ColorToBytes@@YAXPEBMPEAEM@Z 000000014004d650 f   light_ydnar.obj
 0001:0004c880       ?SmoothNormals@@YAXXZ      000000014004d880 f   light_ydnar.obj
 0001:0004ed80       ?MapRawLightmap@@YAXH@Z    000000014004fd80 f   light_ydnar.obj
 0001:0004fb70       ?EnableDirtForEntity@@YAXH@Z 0000000140050b70 f   light_ydnar.obj
 0001:0004fc10       ?SetupDirtForEntity@@YAXH@Z 0000000140050c10 f   light_ydnar.obj
 0001:000503a0       ?SetupDirt@@YAXXZ          00000001400513a0 f   light_ydnar.obj
 0001:00050650       ?DirtForSample@@YAMPEAUtrace_t@@H@Z 0000000140051650 f   light_ydnar.obj
 0001:00050f50       ?DirtyRawLightmap@@YAXH@Z  0000000140051f50 f   light_ydnar.obj
 0001:000515e0       ?ApplyDirt@@YAXPEAM000HMM@Z 00000001400525e0 f   light_ydnar.obj
 0001:00051ba0       ?SkyLightAmbientIlluminateLightmap@@YAXPEAUrawLightmap_s@@@Z 0000000140052ba0 f   light_ydnar.obj
 0001:00052920       ?IlluminateRawLightmap@@YAXH@Z 0000000140053920 f   light_ydnar.obj
 0001:00054800       ?IlluminateVertexes@@YAXH@Z 0000000140055800 f   light_ydnar.obj
 0001:00055d40       ?SetupBrushes@@YAXXZ       0000000140056d40 f   light_ydnar.obj
 0001:00055f10       ?ClusterVisible@@YA?AW4qboolean@@HH@Z 0000000140056f10 f   light_ydnar.obj
 0001:00055fa0       ?PointInLeafNum_r@@YAHQEAMH@Z 0000000140056fa0 f   light_ydnar.obj
 0001:000560b0       ?ClusterForPointExt@@YAHQEAMM@Z 00000001400570b0 f   light_ydnar.obj
 0001:000563e0       ?ClusterForPointExtFilter@@YAHQEAMMHPEAH@Z 00000001400573e0 f   light_ydnar.obj
 0001:00056450       ?SetupEnvelopes@@YAXW4qboolean@@0@Z 0000000140057450 f   light_ydnar.obj
 0001:00056e40       ?CreateTraceLightsForBounds@@YAXQEAM00HPEAHHPEAUtrace_t@@@Z 0000000140057e40 f   light_ydnar.obj
 0001:000571e0       ?CreateTraceLightsForSurface@@YAXHPEAUtrace_t@@@Z 00000001400581e0 f   light_ydnar.obj
 0001:00057300       ?SetupFloodLight@@YAXXZ    0000000140058300 f   light_ydnar.obj
 0001:00057620       ?FloodLightForSample@@YAMPEAUtrace_t@@MW4qboolean@@@Z 0000000140058620 f   light_ydnar.obj
 0001:00057a90       ?FloodlightIlluminateLightmap@@YAXPEAUrawLightmap_s@@@Z 0000000140058a90 f   light_ydnar.obj
 0001:00057d10       ?WriteTGA24@@YAXPEADPEAEHHW4qboolean@@@Z 0000000140058d10 f   lightmaps_ydnar.obj
 0001:00057e90       ?ExportLightmaps@@YAXXZ    0000000140058e90 f   lightmaps_ydnar.obj
 0001:00058030       ?ExportLightmapsMain@@YAHHPEAPEAD@Z 0000000140059030 f   lightmaps_ydnar.obj
 0001:00058160       ?ImportLightmapsMain@@YAHHPEAPEAD@Z 0000000140059160 f   lightmaps_ydnar.obj
 0001:000586a0       ?LoadRawLightmap@@YAPEAUcachePage_s@@H@Z 00000001400596a0 f   lightmaps_ydnar.obj
 0001:00058880       ?FinishRawLightmap@@YAXH@Z 0000000140059880 f   lightmaps_ydnar.obj
 0001:00058f80       ?AddPatchToRawLightmap@@YA?AW4qboolean@@HPEAUrawLightmap_s@@@Z 0000000140059f80 f   lightmaps_ydnar.obj
 0001:00059550       ?AddSurfaceToRawLightmap@@YA?AW4qboolean@@HPEAUrawLightmap_s@@@Z 000000014005a550 f   lightmaps_ydnar.obj
 0001:0005a0a0       ?SetupSurfaceLightmaps@@YAXXZ 000000014005b0a0 f   lightmaps_ydnar.obj
 0001:0005ac90       ?AllocateSurfaceLightmaps@@YAXXZ 000000014005bc90 f   lightmaps_ydnar.obj
 0001:0005cad0       ?FloodLightmapBorders@@YAXPEAUoutLightmap_s@@@Z 000000014005dad0 f   lightmaps_ydnar.obj
 0001:0005d300       ?StoreSurfaceLightmaps@@YAXXZ 000000014005e300 f   lightmaps_ydnar.obj
 0001:000601d0       ?PlaneFromWinding@@YAXPEAUfixedWinding_t@@PEAUvisPlane_t@@@Z 00000001400611d0 f   vis.obj
 0001:000602e0       ?NewFixedWinding@@YAPEAUfixedWinding_t@@H@Z 00000001400612e0 f   vis.obj
 0001:00060350       ?PComp@@YAHPEBX0@Z         0000000140061350 f   vis.obj
 0001:00060380       ?LeafVectorFromPortalVector@@YAHPEAE0@Z 0000000140061380 f   vis.obj
 0001:000604e0       ?ClusterMerge@@YAXH@Z      00000001400614e0 f   vis.obj
 0001:000606e0       ?CalcPortalVis@@YAXXZ      00000001400616e0 f   vis.obj
 0001:00060760       ?CalcPassageVis@@YAXXZ     0000000140061760 f   vis.obj
 0001:00060870       ?CalcPassagePortalVis@@YAXXZ 0000000140061870 f   vis.obj
 0001:00060980       ?CalcVis@@YAXXZ            0000000140061980 f   vis.obj
 0001:00060c40       ?SetPortalSphere@@YAXPEAUvportal_t@@@Z 0000000140061c40 f   vis.obj
 0001:00060da0       ?TryMergeLeaves@@YAHHH@Z   0000000140061da0 f   vis.obj
 0001:00061100       ?MergeLeaves@@YAXXZ        0000000140062100 f   vis.obj
 0001:00061260       ?TryMergeWinding@@YAPEAUfixedWinding_t@@PEAU1@0QEAM@Z 0000000140062260 f   vis.obj
 0001:00061790       ?MergeLeafPortals@@YAXXZ   0000000140062790 f   vis.obj
 0001:000619a0       ?LoadPortals@@YAXPEAD@Z    00000001400629a0 f   vis.obj
 0001:000621d0       ?VisMain@@YAHHPEAPEAD@Z    00000001400631d0 f   vis.obj
 0001:00062660       ?FreeStackWinding@@YAXPEAUfixedWinding_t@@PEAUpstack_s@@@Z 0000000140063660 f   visflow.obj
 0001:000626c0       ?VisChopWinding@@YAPEAUfixedWinding_t@@PEAU1@PEAUpstack_s@@PEAUvisPlane_t@@@Z 00000001400636c0 f   visflow.obj
 0001:00062b70       ?ClipToSeperators@@YAPEAUfixedWinding_t@@PEAU1@00W4qboolean@@PEAUpstack_s@@@Z 0000000140063b70 f   visflow.obj
 0001:000631c0       ?RecursiveLeafFlow@@YAXHPEAUthreaddata_t@@PEAUpstack_s@@@Z 00000001400641c0 f   visflow.obj
 0001:00063880       ?PortalFlow@@YAXH@Z        0000000140064880 f   visflow.obj
 0001:00063a40       ?RecursivePassageFlow@@YAXPEAUvportal_t@@PEAUthreaddata_t@@PEAUpstack_s@@@Z 0000000140064a40 f   visflow.obj
 0001:00063cc0       ?PassageFlow@@YAXH@Z       0000000140064cc0 f   visflow.obj
 0001:00063d90       ?RecursivePassagePortalFlow@@YAXPEAUvportal_t@@PEAUthreaddata_t@@PEAUpstack_s@@@Z 0000000140064d90 f   visflow.obj
 0001:00064450       ?PassagePortalFlow@@YAXH@Z 0000000140065450 f   visflow.obj
 0001:00064520       ?PassageChopWinding@@YAPEAUfixedWinding_t@@PEAU1@0PEAUvisPlane_t@@@Z 0000000140065520 f   visflow.obj
 0001:00064860       ?AddSeperators@@YAHPEAUfixedWinding_t@@0W4qboolean@@PEAUvisPlane_t@@H@Z 0000000140065860 f   visflow.obj
 0001:00064e50       ?CreatePassages@@YAXH@Z    0000000140065e50 f   visflow.obj
 0001:00065460       ?PassageMemory@@YAXXZ      0000000140066460 f   visflow.obj
 0001:00065520       ?SimpleFlood@@YAXPEAUvportal_t@@H@Z 0000000140066520 f   visflow.obj
 0001:00065620       ?BasePortalVis@@YAXH@Z     0000000140066620 f   visflow.obj
 0001:00067210       ?ConvertBSPToASE@@YAHPEADH@Z 0000000140068210 f   convert_ase.obj
 0001:00067e50       ?ConvertBSPToMap@@YAHPEADH@Z 0000000140068e50 f   convert_map.obj
 0001:00068290       WinPrint                   0000000140069290 f   l_net:l_net.obj
 0001:000682a0       Net_Send                   00000001400692a0 f   l_net:l_net.obj
 0001:000682f0       Net_AllocSocket            00000001400692f0 f   l_net:l_net.obj
 0001:00068320       Net_FreeSocket             0000000140069320 f   l_net:l_net.obj
 0001:00068330       Net_Connect                0000000140069330 f   l_net:l_net.obj
 0001:000683e0       Net_Disconnect             00000001400693e0 f   l_net:l_net.obj
 0001:00068410       Net_StringToAddress        0000000140069410 f   l_net:l_net.obj
 0001:00068430       Net_Setup                  0000000140069430 f   l_net:l_net.obj
 0001:00068460       NMSG_Clear                 0000000140069460 f   l_net:l_net.obj
 0001:00068470       NMSG_WriteLong             0000000140069470 f   l_net:l_net.obj
 0001:000684e0       NMSG_WriteString           00000001400694e0 f   l_net:l_net.obj
 0001:00068570       WINS_ErrorMessage          0000000140069570 f   l_net:l_net_wins.obj
 0001:000685d0       WINS_Init                  00000001400695d0 f   l_net:l_net_wins.obj
 0001:00068740       WINS_MyAddress             0000000140069740 f   l_net:l_net_wins.obj
 0001:00068750       WINS_OpenSocket            0000000140069750 f   l_net:l_net_wins.obj
 0001:00068840       WINS_OpenReliableSocket    0000000140069840 f   l_net:l_net_wins.obj
 0001:00068960       WINS_CloseSocket           0000000140069960 f   l_net:l_net_wins.obj
 0001:000689a0       WINS_Connect               00000001400699a0 f   l_net:l_net_wins.obj
 0001:00068a10       WINS_Write                 0000000140069a10 f   l_net:l_net_wins.obj
 0001:00068ac0       WINS_AddrToString          0000000140069ac0 f   l_net:l_net_wins.obj
 0001:00068b40       WINS_StringToAddr          0000000140069b40 f   l_net:l_net_wins.obj
 0001:00068bc0       WINS_GetSocketAddr         0000000140069bc0 f   l_net:l_net_wins.obj
 0001:00068c20       MakeNormalVectors          0000000140069c20 f   mathlib:mathlib.obj
 0001:00068ce0       VectorCompare              0000000140069ce0 f   mathlib:mathlib.obj
 0001:00068d30       VectorCompareExt           0000000140069d30 f   mathlib:mathlib.obj
 0001:00068d80       VectorLength               0000000140069d80 f   mathlib:mathlib.obj
 0001:00068db0       VectorMA                   0000000140069db0 f   mathlib:mathlib.obj
 0001:00068df0       VectorNormalize            0000000140069df0 f   mathlib:mathlib.obj
 0001:00068ea0       ColorNormalize             0000000140069ea0 f   mathlib:mathlib.obj
 0001:00068f10       ClearBounds                0000000140069f10 f   mathlib:mathlib.obj
 0001:00068f40       AddPointToBounds           0000000140069f40 f   mathlib:mathlib.obj
 0001:00068fe0       PlaneFromPoints            0000000140069fe0 f   mathlib:mathlib.obj
 0001:000690e0       NormalToLatLong            000000014006a0e0 f   mathlib:mathlib.obj
 0001:000691a0       PlaneTypeForNormal         000000014006a1a0 f   mathlib:mathlib.obj
 0001:00069200       m4x4_identity              000000014006a200 f   mathlib:m4x4.obj
 0001:00069250       m4x4_assign                000000014006a250 f   mathlib:m4x4.obj
 0001:000692b0       m4x4_translation_for_vec3  000000014006a2b0 f   mathlib:m4x4.obj
 0001:00069300       m4x4_rotation_for_vec3     000000014006a300 f   mathlib:m4x4.obj
 0001:000694d0       m4x4_scale_for_vec3        000000014006a4d0 f   mathlib:m4x4.obj
 0001:00069510       m4x4_translate_by_vec3     000000014006a510 f   mathlib:m4x4.obj
 0001:00069540       m4x4_rotate_by_vec3        000000014006a540 f   mathlib:m4x4.obj
 0001:00069570       m4x4_scale_by_vec3         000000014006a570 f   mathlib:m4x4.obj
 0001:000695a0       m4x4_pivoted_transform_by_vec3 000000014006a5a0 f   mathlib:m4x4.obj
 0001:00069650       m4x4_multiply_by_m4x4      000000014006a650 f   mathlib:m4x4.obj
 0001:00069a50       m4x4_transform_point       000000014006aa50 f   mathlib:m4x4.obj
 0001:00069af0       m4x4_transform_normal      000000014006aaf0 f   mathlib:m4x4.obj
 0001:00069b80       m4x4_transpose             000000014006ab80 f   mathlib:m4x4.obj
 0001:00069c80       ?m3_det@@YAMQEAM@Z         000000014006ac80 f   mathlib:m4x4.obj
 0001:00069d10       ?m4_submat@@YAXQEAM0HH@Z   000000014006ad10 f   mathlib:m4x4.obj
 0001:00069e60       ?m4_det@@YAMQEAM@Z         000000014006ae60 f   mathlib:m4x4.obj
 0001:00069ef0       m4x4_invert                000000014006aef0 f   mathlib:m4x4.obj
 0001:00069fb8       g_free                     000000014006afb8 f   glib-2.0:libglib-2.0-0.dll
 0001:00069fbe       g_locale_to_utf8           000000014006afbe f   glib-2.0:libglib-2.0-0.dll
 0001:00069fc4       g_strdup                   000000014006afc4 f   glib-2.0:libglib-2.0-0.dll
 0001:00069fca       g_strdown                  000000014006afca f   glib-2.0:libglib-2.0-0.dll
 0001:00069fd0       g_dir_read_name_utf8       000000014006afd0 f   glib-2.0:libglib-2.0-0.dll
 0001:00069fd6       g_dir_open_utf8            000000014006afd6 f   glib-2.0:libglib-2.0-0.dll
 0001:00069fdc       g_dir_close                000000014006afdc f   glib-2.0:libglib-2.0-0.dll
 0001:00069fe2       g_slist_append             000000014006afe2 f   glib-2.0:libglib-2.0-0.dll
 0001:00069fe8       xmlNodeSetContent          000000014006afe8 f   libxml2:libxml2-2.dll
 0001:00069fee       xmlBufferFree              000000014006afee f   libxml2:libxml2-2.dll
 0001:00069ff4       xmlNodeDump                000000014006aff4 f   libxml2:libxml2-2.dll
 0001:00069ffa       xmlBufferCreate            000000014006affa f   libxml2:libxml2-2.dll
 0001:0006a000       xmlNewNode                 000000014006b000 f   libxml2:libxml2-2.dll
 0001:0006a006       xmlAddChild                000000014006b006 f   libxml2:libxml2-2.dll
 0001:0006a00c       xmlNewDoc                  000000014006b00c f   libxml2:libxml2-2.dll
 0001:0006a012       xmlSetProp                 000000014006b012 f   libxml2:libxml2-2.dll
 0001:0006a018       xmlNewDocRawNode           000000014006b018 f   libxml2:libxml2-2.dll
 0001:0006a01e       png_get_IHDR               000000014006b01e f   libpng:libpng14-14.dll
 0001:0006a024       png_read_image             000000014006b024 f   libpng:libpng14-14.dll
 0001:0006a02a       png_set_expand             000000014006b02a f   libpng:libpng14-14.dll
 0001:0006a030       png_read_info              000000014006b030 f   libpng:libpng14-14.dll
 0001:0006a036       png_set_strip_16           000000014006b036 f   libpng:libpng14-14.dll
 0001:0006a03c       png_sig_cmp                000000014006b03c f   libpng:libpng14-14.dll
 0001:0006a042       png_create_read_struct     000000014006b042 f   libpng:libpng14-14.dll
 0001:0006a048       png_get_io_ptr             000000014006b048 f   libpng:libpng14-14.dll
 0001:0006a04e       png_create_info_struct     000000014006b04e f   libpng:libpng14-14.dll
 0001:0006a054       png_set_read_fn            000000014006b054 f   libpng:libpng14-14.dll
 0001:0006a05a       png_get_valid              000000014006b05a f   libpng:libpng14-14.dll
 0001:0006a060       png_set_filler             000000014006b060 f   libpng:libpng14-14.dll
 0001:0006a066       png_get_channels           000000014006b066 f   libpng:libpng14-14.dll
 0001:0006a06c       png_destroy_read_struct    000000014006b06c f   libpng:libpng14-14.dll
 0001:0006a080       DDSLittleLong              000000014006b080 f   ddslib:ddslib.obj
 0001:0006a090       DDSLittleShort             000000014006b090 f   ddslib:ddslib.obj
 0001:0006a100       DDSGetInfo                 000000014006b100 f   ddslib:ddslib.obj
 0001:0006aca0       DDSDecompress              000000014006bca0 f   ddslib:ddslib.obj
 0001:0006adc0       LoadJPGBuff                000000014006bdc0 f   jpeg6:jpgload.obj
 0001:0006afb0       jpeg_create_decompress     000000014006bfb0 f   jpeg6:jdapimin.obj
 0001:0006b060       jpeg_destroy_decompress    000000014006c060 f   jpeg6:jdapimin.obj
 0001:0006b240       jpeg_consume_input         000000014006c240 f   jpeg6:jdapimin.obj
 0001:0006b330       jpeg_finish_decompress     000000014006c330 f   jpeg6:jdapimin.obj
 0001:0006b400       jpeg_read_header           000000014006c400 f   jpeg6:jdapimin.obj
 0001:0006b510       jpeg_read_scanlines        000000014006c510 f   jpeg6:jdapistd.obj
 0001:0006b5e0       jpeg_start_decompress      000000014006c5e0 f   jpeg6:jdapistd.obj
 0001:0006b750       jpeg_stdio_src             000000014006c750 f   jpeg6:jdatasrc.obj
 0001:0006b9a0       jpeg_std_error             000000014006c9a0 f   jpeg6:jerror.obj
 0001:0006c0b0       jinit_input_controller     000000014006d0b0 f   jpeg6:jdinput.obj
 0001:0006dc80       jpeg_resync_to_restart     000000014006ec80 f   jpeg6:jdmarker.obj
 0001:0006dde0       jinit_marker_reader        000000014006ede0 f   jpeg6:jdmarker.obj
 0001:0006ec30       jinit_memory_mgr           000000014006fc30 f   jpeg6:jmemmgr.obj
 0001:0006eda0       jpeg_abort                 000000014006fda0 f   jpeg6:jcomapi.obj
 0001:0006ede0       jpeg_destroy               000000014006fde0 f   jpeg6:jcomapi.obj
 0001:0006ee20       jpeg_alloc_quant_table     000000014006fe20 f   jpeg6:jcomapi.obj
 0001:0006ee40       jpeg_alloc_huff_table      000000014006fe40 f   jpeg6:jcomapi.obj
 0001:0006ee70       jpeg_calc_output_dimensions 000000014006fe70 f   jpeg6:jdmaster.obj
 0001:0006f300       jinit_master_decompress    0000000140070300 f   jpeg6:jdmaster.obj
 0001:0006f350       jdiv_round_up              0000000140070350 f   jpeg6:jutils.obj
 0001:0006f360       jround_up                  0000000140070360 f   jpeg6:jutils.obj
 0001:0006f380       jcopy_sample_rows          0000000140070380 f   jpeg6:jutils.obj
 0001:0006f3f0       jzero_far                  00000001400703f0 f   jpeg6:jutils.obj
 0001:0006f400       ?jpeg_get_large@@YAPEAXPEAUjpeg_common_struct@@_K@Z 0000000140070400 f   jpeg6:jmemnobs.obj
 0001:0006f400       ?jpeg_get_small@@YAPEAXPEAUjpeg_common_struct@@_K@Z 0000000140070400 f   jpeg6:jmemnobs.obj
 0001:0006f410       ?jpeg_free_small@@YAXPEAUjpeg_common_struct@@PEAX_K@Z 0000000140070410 f   jpeg6:jmemnobs.obj
 0001:0006f410       ?jpeg_free_large@@YAXPEAUjpeg_common_struct@@PEAX_K@Z 0000000140070410 f   jpeg6:jmemnobs.obj
 0001:0006f420       ?jpeg_mem_available@@YAJPEAUjpeg_common_struct@@JJJ@Z 0000000140070420 f   jpeg6:jmemnobs.obj
 0001:0006f430       ?jpeg_open_backing_store@@YAXPEAUjpeg_common_struct@@PEAUbacking_store_struct@@J@Z 0000000140070430 f   jpeg6:jmemnobs.obj
 0001:0006f440       ?jpeg_mem_init@@YAJPEAUjpeg_common_struct@@@Z 0000000140070440 f   jpeg6:jmemnobs.obj
 0001:0006fba0       jinit_d_main_controller    0000000140070ba0 f   jpeg6:jdmainct.obj
 0001:00070000       jinit_d_coef_controller    0000000140071000 f   jpeg6:jdcoefct.obj
 0001:00070120       ?jpeg_make_d_derived_tbl@@YAXPEAUjpeg_decompress_struct@@PEAUJHUFF_TBL@@PEAPEAUd_derived_tbl@@@Z 0000000140071120 f   jpeg6:jdhuff.obj
 0001:00070330       ?jpeg_fill_bit_buffer@@YAEPEAUbitread_working_state@@HHH@Z 0000000140071330 f   jpeg6:jdhuff.obj
 0001:00070460       ?jpeg_huff_decode@@YAHPEAUbitread_working_state@@HHPEAUd_derived_tbl@@H@Z 0000000140071460 f   jpeg6:jdhuff.obj
 0001:00070c50       jinit_huff_decoder         0000000140071c50 f   jpeg6:jdhuff.obj
 0001:00070fc0       jinit_inverse_dct          0000000140071fc0 f   jpeg6:jddctmgr.obj
 0001:000711c0       jinit_d_post_controller    00000001400721c0 f   jpeg6:jdpostct.obj
 0001:000718f0       jinit_upsampler            00000001400728f0 f   jpeg6:jdsample.obj
 0001:000720b0       jinit_color_deconverter    00000001400730b0 f   jpeg6:jdcolor.obj
 0001:00072250       ?jpeg_idct_float@@YAXPEAUjpeg_decompress_struct@@PEAUjpeg_component_info@@PEAFPEAPEAEI@Z 0000000140073250 f   jpeg6:jidctflt.obj
 0001:00072760       PicoInit                   0000000140073760 f   picomodel:picomodel.obj
 0001:00072770       PicoSetMallocFunc          0000000140073770 f   picomodel:picomodel.obj
 0001:00072790       PicoSetFreeFunc            0000000140073790 f   picomodel:picomodel.obj
 0001:000727b0       PicoSetLoadFileFunc        00000001400737b0 f   picomodel:picomodel.obj
 0001:000727d0       PicoSetFreeFileFunc        00000001400737d0 f   picomodel:picomodel.obj
 0001:000727f0       PicoSetPrintFunc           00000001400737f0 f   picomodel:picomodel.obj
 0001:00072810       PicoNewModel               0000000140073810 f   picomodel:picomodel.obj
 0001:00072860       PicoAdjustModel            0000000140073860 f   picomodel:picomodel.obj
 0001:00072990       PicoNewShader              0000000140073990 f   picomodel:picomodel.obj
 0001:00072a70       PicoFreeShader             0000000140073a70 f   picomodel:picomodel.obj
 0001:00072ab0       PicoFindShader             0000000140073ab0 f   picomodel:picomodel.obj
 0001:00072ba0       PicoFreeSurface            0000000140073ba0 f   picomodel:picomodel.obj
 0001:00072c80       PicoAdjustSurface          0000000140073c80 f   picomodel:picomodel.obj
 0001:00072fc0       PicoNewSkin                0000000140073fc0 f   picomodel:picomodel.obj
 0001:00073040       PicoAdjustSkin             0000000140074040 f   picomodel:picomodel.obj
 0001:000730e0       PicoNewSkinItem            00000001400740e0 f   picomodel:picomodel.obj
 0001:00073150       PicoFreeSkinItem           0000000140074150 f   picomodel:picomodel.obj
 0001:00073190       PicoSetShaderMapName       0000000140074190 f   picomodel:picomodel.obj
 0001:00073190       PicoSetModelFileName       0000000140074190 f   picomodel:picomodel.obj
 0001:000731d0       PicoSetModelFrameNum       00000001400741d0 f   picomodel:picomodel.obj
 0001:000731e0       PicoSetModelNumFrames      00000001400741e0 f   picomodel:picomodel.obj
 0001:000731f0       PicoSetSkinItemReplacement 00000001400741f0 f   picomodel:picomodel.obj
 0001:000731f0       PicoSetModelName           00000001400741f0 f   picomodel:picomodel.obj
 0001:000731f0       PicoSetShaderName          00000001400741f0 f   picomodel:picomodel.obj
 0001:00073230       PicoSetShaderAmbientColor  0000000140074230 f   picomodel:picomodel.obj
 0001:00073260       PicoSetShaderDiffuseColor  0000000140074260 f   picomodel:picomodel.obj
 0001:00073290       PicoSetShaderSpecularColor 0000000140074290 f   picomodel:picomodel.obj
 0001:000732c0       PicoSetShaderTransparency  00000001400742c0 f   picomodel:picomodel.obj
 0001:00073300       PicoSetShaderShininess     0000000140074300 f   picomodel:picomodel.obj
 0001:00073340       PicoSetSurfaceType         0000000140074340 f   picomodel:picomodel.obj
 0001:00073350       PicoSetSurfaceName         0000000140074350 f   picomodel:picomodel.obj
 0001:00073390       PicoSetSurfaceShader       0000000140074390 f   picomodel:picomodel.obj
 0001:000733a0       PicoSetSurfaceXYZ          00000001400743a0 f   picomodel:picomodel.obj
 0001:00073430       PicoSetSurfaceNormal       0000000140074430 f   picomodel:picomodel.obj
 0001:000734a0       PicoSetSurfaceST           00000001400744a0 f   picomodel:picomodel.obj
 0001:00073520       PicoSetSurfaceColor        0000000140074520 f   picomodel:picomodel.obj
 0001:000735d0       PicoSetSurfaceIndex        00000001400745d0 f   picomodel:picomodel.obj
 0001:00073630       PicoSetSurfaceSmoothingGroup 0000000140074630 f   picomodel:picomodel.obj
 0001:00073680       PicoSetSkinNum             0000000140074680 f   picomodel:picomodel.obj
 0001:00073690       PicoSetSkinItemObject      0000000140074690 f   picomodel:picomodel.obj
 0001:000736d0       PicoGetModelName           00000001400746d0 f   picomodel:picomodel.obj
 0001:000736f0       PicoGetModelFileName       00000001400746f0 f   picomodel:picomodel.obj
 0001:000736f0       PicoGetShaderMapName       00000001400746f0 f   picomodel:picomodel.obj
 0001:00073710       PicoGetModelFrameNum       0000000140074710 f   picomodel:picomodel.obj
 0001:00073720       PicoGetModelShader         0000000140074720 f   picomodel:picomodel.obj
 0001:00073750       PicoGetModelNumSurfaces    0000000140074750 f   picomodel:picomodel.obj
 0001:00073760       PicoGetModelSurface        0000000140074760 f   picomodel:picomodel.obj
 0001:00073790       PicoGetSurfaceType         0000000140074790 f   picomodel:picomodel.obj
 0001:000737a0       PicoGetSurfaceNumVertexes  00000001400747a0 f   picomodel:picomodel.obj
 0001:000737b0       PicoGetSurfaceXYZ          00000001400747b0 f   picomodel:picomodel.obj
 0001:000737e0       PicoGetSurfaceNormal       00000001400747e0 f   picomodel:picomodel.obj
 0001:00073810       PicoGetSurfaceST           0000000140074810 f   picomodel:picomodel.obj
 0001:00073840       PicoGetSurfaceColor        0000000140074840 f   picomodel:picomodel.obj
 0001:00073870       PicoGetSurfaceNumIndexes   0000000140074870 f   picomodel:picomodel.obj
 0001:00073880       PicoGetSurfaceIndexes      0000000140074880 f   picomodel:picomodel.obj
 0001:000738a0       PicoGetSurfaceShaderNameForSkin 00000001400748a0 f   picomodel:picomodel.obj
 0001:00073980       PicoVertexCoordGenerateHash 0000000140074980 f   picomodel:picomodel.obj
 0001:00073aa0       PicoNewVertexCombinationHashTable 0000000140074aa0 f   picomodel:picomodel.obj
 0001:00073ad0       PicoFreeVertexCombinationHashTable 0000000140074ad0 f   picomodel:picomodel.obj
 0001:00073b50       PicoFindVertexCombinationInHashTable 0000000140074b50 f   picomodel:picomodel.obj
 0001:00073d10       PicoAddVertexCombinationToHashTable 0000000140074d10 f   picomodel:picomodel.obj
 0001:00073e00       PicoFindSurfaceVertexNum   0000000140074e00 f   picomodel:picomodel.obj
 0001:00074100       indexarray_push_back       0000000140075100 f   picomodel:picomodel.obj
 0001:00074110       indexarray_reserve         0000000140075110 f   picomodel:picomodel.obj
 0001:00074140       indexarray_clear           0000000140075140 f   picomodel:picomodel.obj
 0001:00074140       binarytree_clear           0000000140075140 f   picomodel:picomodel.obj
 0001:00074150       binarytree_extend          0000000140075150 f   picomodel:picomodel.obj
 0001:00074170       binarytree_size            0000000140075170 f   picomodel:picomodel.obj
 0001:00074180       binarytree_reserve         0000000140075180 f   picomodel:picomodel.obj
 0001:000741b0       UniqueIndices_size         00000001400751b0 f   picomodel:picomodel.obj
 0001:000741c0       UniqueIndices_reserve      00000001400751c0 f   picomodel:picomodel.obj
 0001:000741f0       UniqueIndices_init         00000001400751f0 f   picomodel:picomodel.obj
 0001:00074200       UniqueIndices_destroy      0000000140075200 f   picomodel:picomodel.obj
 0001:00074220       UniqueIndices_find_or_insert 0000000140075220 f   picomodel:picomodel.obj
 0001:000742f0       UniqueIndices_insert       00000001400752f0 f   picomodel:picomodel.obj
 0001:00074330       lessSmoothVertex           0000000140075330 f   picomodel:picomodel.obj
 0001:000743b0       _pico_vertices_combine_shared_normals 00000001400753b0 f   picomodel:picomodel.obj
 0001:00074500       _pico_triangles_generate_weighted_normals 0000000140075500 f   picomodel:picomodel.obj
 0001:000745e0       _pico_normals_zero         00000001400755e0 f   picomodel:picomodel.obj
 0001:00074620       _pico_normals_normalize    0000000140075620 f   picomodel:picomodel.obj
 0001:00074660       _pico_length_vec           0000000140075660 f   picomodel:picomodel.obj
 0001:00074690       _pico_normal_is_unit_length 0000000140075690 f   picomodel:picomodel.obj
 0001:000746d0       _pico_normal_within_tolerance 00000001400756d0 f   picomodel:picomodel.obj
 0001:00074700       _pico_normals_assign_generated_normals 0000000140075700 f   picomodel:picomodel.obj
 0001:00074770       PicoFixSurfaceNormals      0000000140075770 f   picomodel:picomodel.obj
 0001:00074810       PicoRemapModel             0000000140075810 f   picomodel:picomodel.obj
 0001:00074d60       PicoParseToken             0000000140075d60 f   picomodel:picomodel.obj
 0001:00074ff0       PicoLoadSkinFiles          0000000140075ff0 f   picomodel:picomodel.obj
 0001:000752b0       PicoModuleLoadModel        00000001400762b0 f   picomodel:picomodel.obj
 0001:00075390       PicoLoadModel              0000000140076390 f   picomodel:picomodel.obj
 0001:00075480       PicoNewSurface             0000000140076480 f   picomodel:picomodel.obj
 0001:00075530       PicoFreeSkin               0000000140076530 f   picomodel:picomodel.obj
 0001:00075590       PicoAddTriangleToModel     0000000140076590 f   picomodel:picomodel.obj
 0001:00075820       PicoFreeModel              0000000140076820 f   picomodel:picomodel.obj
 0001:00075910       _pico_alloc                0000000140076910 f   picomodel:picointernal.obj
 0001:00075970       _pico_calloc               0000000140076970 f   picomodel:picointernal.obj
 0001:000759e0       _pico_clone_alloc          00000001400769e0 f   picomodel:picointernal.obj
 0001:00075a40       _pico_free                 0000000140076a40 f   picomodel:picointernal.obj
 0001:00075a60       _pico_load_file            0000000140076a60 f   picomodel:picointernal.obj
 0001:00075a80       _pico_free_file            0000000140076a80 f   picomodel:picointernal.obj
 0001:00075ab0       _pico_printf               0000000140076ab0 f   picomodel:picointernal.obj
 0001:00075b40       _pico_first_token          0000000140076b40 f   picomodel:picointernal.obj
 0001:00075b70       _pico_strltrim             0000000140076b70 f   picomodel:picointernal.obj
 0001:00075bf0       _pico_strrtrim             0000000140076bf0 f   picomodel:picointernal.obj
 0001:00075cb0       _pico_strlwr               0000000140076cb0 f   picomodel:picointernal.obj
 0001:00075ce0       _pico_strchcount           0000000140076ce0 f   picomodel:picointernal.obj
 0001:00075d10       _pico_zero_bounds          0000000140076d10 f   picomodel:picointernal.obj
 0001:00075d40       _pico_expand_bounds        0000000140076d40 f   picomodel:picointernal.obj
 0001:00075da0       _pico_zero_vec             0000000140076da0 f   picomodel:picointernal.obj
 0001:00075db0       _pico_zero_vec2            0000000140076db0 f   picomodel:picointernal.obj
 0001:00075dc0       _pico_set_vec              0000000140076dc0 f   picomodel:picointernal.obj
 0001:00075dd0       _pico_copy_vec             0000000140076dd0 f   picomodel:picointernal.obj
 0001:00075df0       _pico_copy_vec2            0000000140076df0 f   picomodel:picointernal.obj
 0001:00075e00       _pico_normalize_vec        0000000140076e00 f   picomodel:picointernal.obj
 0001:00075e90       _pico_add_vec              0000000140076e90 f   picomodel:picointernal.obj
 0001:00075ec0       _pico_subtract_vec         0000000140076ec0 f   picomodel:picointernal.obj
 0001:00075ef0       _pico_scale_vec            0000000140076ef0 f   picomodel:picointernal.obj
 0001:00075f20       _pico_dot_vec              0000000140076f20 f   picomodel:picointernal.obj
 0001:00075f20       dot                        0000000140076f20 f   picomodel:vecmath.obj
 0001:00075f50       _pico_set_color            0000000140076f50 f   picomodel:picointernal.obj
 0001:00075f70       _pico_copy_color           0000000140076f70 f   picomodel:picointernal.obj
 0001:00075f90       _pico_little_long          0000000140076f90 f   picomodel:picointernal.obj
 0001:00075fa0       _pico_little_short         0000000140076fa0 f   picomodel:picointernal.obj
 0001:00075fb0       ?jpeg_mem_term@@YAXPEAUjpeg_common_struct@@@Z 0000000140076fb0 f   jpeg6:jmemnobs.obj
 0001:00075fb0       _pico_little_float         0000000140076fb0 f   picomodel:picointernal.obj
 0001:00075fc0       _pico_stristr              0000000140076fc0 f   picomodel:picointernal.obj
 0001:00076040       _pico_unixify              0000000140077040 f   picomodel:picointernal.obj
 0001:00076070       _pico_nopath               0000000140077070 f   picomodel:picointernal.obj
 0001:00076110       _pico_setfext              0000000140077110 f   picomodel:picointernal.obj
 0001:000761e0       _pico_new_parser           00000001400771e0 f   picomodel:picointernal.obj
 0001:000762b0       _pico_free_parser          00000001400772b0 f   picomodel:picointernal.obj
 0001:000762e0       _pico_parse_ex             00000001400772e0 f   picomodel:picointernal.obj
 0001:00076440       _pico_parse_first          0000000140077440 f   picomodel:picointernal.obj
 0001:00076480       _pico_parse                0000000140077480 f   picomodel:picointernal.obj
 0001:000764b0       _pico_parse_skip_rest      00000001400774b0 f   picomodel:picointernal.obj
 0001:000764e0       _pico_parse_skip_braced    00000001400774e0 f   picomodel:picointernal.obj
 0001:00076590       _pico_parse_check          0000000140077590 f   picomodel:picointernal.obj
 0001:000765f0       _pico_parse_int            00000001400775f0 f   picomodel:picointernal.obj
 0001:00076640       _pico_parse_float          0000000140077640 f   picomodel:picointernal.obj
 0001:00076690       _pico_parse_vec            0000000140077690 f   picomodel:picointernal.obj
 0001:00076730       _pico_parse_vec2           0000000140077730 f   picomodel:picointernal.obj
 0001:000767d0       _pico_new_memstream        00000001400777d0 f   picomodel:picointernal.obj
 0001:00076830       _pico_free_memstream       0000000140077830 f   picomodel:picointernal.obj
 0001:00076850       _pico_memstream_read       0000000140077850 f   picomodel:picointernal.obj
 0001:000768e0       _pico_memstream_getc       00000001400778e0 f   picomodel:picointernal.obj
 0001:00076920       _pico_memstream_seek       0000000140077920 f   picomodel:picointernal.obj
 0001:000769b0       _pico_memstream_tell       00000001400779b0 f   picomodel:picointernal.obj
 0001:000769d0       _pico_realloc              00000001400779d0 f   picomodel:picointernal.obj
 0001:00076a70       PicoModuleList             0000000140077a70 f   picomodel:picomodules.obj
 0001:00077720       _terrain_load_tga_buffer   0000000140078720 f   picomodel:pm_terrain.obj
 0001:0007b660       _ase_get_submaterial_or_default 000000014007c660 f   picomodel:pm_ase.obj
 0001:0007e590       lwFreeLayer                000000014007f590 f   picomodel:lwo2.obj
 0001:0007e5e0       lwFreeObject               000000014007f5e0 f   picomodel:lwo2.obj
 0001:0007e650       lwGetObject                000000014007f650 f   picomodel:lwo2.obj
 0001:0007eba0       lwValidateObject           000000014007fba0 f   picomodel:lwo2.obj
 0001:0007ec70       lwListFree                 000000014007fc70 f   picomodel:list.obj
 0001:0007eca0       lwListAdd                  000000014007fca0 f   picomodel:list.obj
 0001:0007ecd0       lwListInsert               000000014007fcd0 f   picomodel:list.obj
 0001:0007ed70       lwFreeVMap                 000000014007fd70 f   picomodel:vmap.obj
 0001:0007ede0       lwGetVMap                  000000014007fde0 f   picomodel:vmap.obj
 0001:0007f040       lwGetPointVMaps            0000000140080040 f   picomodel:vmap.obj
 0001:0007f1a0       lwGetPolyVMaps             00000001400801a0 f   picomodel:vmap.obj
 0001:0007f380       lwFreePoints               0000000140080380 f   picomodel:pntspols.obj
 0001:0007f410       lwFreePolygons             0000000140080410 f   picomodel:pntspols.obj
 0001:0007f4f0       lwGetPoints                00000001400804f0 f   picomodel:pntspols.obj
 0001:0007f710       lwGetBoundingBox           0000000140080710 f   picomodel:pntspols.obj
 0001:0007f800       lwAllocPolygons            0000000140080800 f   picomodel:pntspols.obj
 0001:0007f920       lwGetPolygons              0000000140080920 f   picomodel:pntspols.obj
 0001:0007faf0       lwGetPolyNormals           0000000140080af0 f   picomodel:pntspols.obj
 0001:0007fc60       lwGetPointPolygons         0000000140080c60 f   picomodel:pntspols.obj
 0001:0007fdc0       lwResolvePolySurfaces      0000000140080dc0 f   picomodel:pntspols.obj
 0001:0007ff90       lwGetVertNormals           0000000140080f90 f   picomodel:pntspols.obj
 0001:00080210       lwFreeTags                 0000000140081210 f   picomodel:pntspols.obj
 0001:00080290       lwGetTags                  0000000140081290 f   picomodel:pntspols.obj
 0001:000803e0       lwGetPolygonTags           00000001400813e0 f   picomodel:pntspols.obj
 0001:00080520       lwFreePlugin               0000000140081520 f   picomodel:surface.obj
 0001:00080570       lwFreeTexture              0000000140081570 f   picomodel:surface.obj
 0001:00080600       lwFreeSurface              0000000140081600 f   picomodel:surface.obj
 0001:00080700       lwGetTHeader               0000000140081700 f   picomodel:surface.obj
 0001:00080890       lwGetTMap                  0000000140081890 f   picomodel:surface.obj
 0001:00080ac0       lwGetImageMap              0000000140081ac0 f   picomodel:surface.obj
 0001:00080d40       lwGetProcedural            0000000140081d40 f   picomodel:surface.obj
 0001:00080ee0       lwGetGradient              0000000140081ee0 f   picomodel:surface.obj
 0001:00081190       lwGetTexture               0000000140082190 f   picomodel:surface.obj
 0001:000812d0       lwGetShader                00000001400822d0 f   picomodel:surface.obj
 0001:000815a0       lwDefaultSurface           00000001400825a0 f   picomodel:surface.obj
 0001:00081610       lwGetSurface               0000000140082610 f   picomodel:surface.obj
 0001:00081c50       lwFreeClip                 0000000140082c50 f   picomodel:clip.obj
 0001:00081d20       lwGetClip                  0000000140082d20 f   picomodel:clip.obj
 0001:000821a0       lwFreeEnvelope             00000001400831a0 f   picomodel:envelope.obj
 0001:00082220       lwGetEnvelope              0000000140083220 f   picomodel:envelope.obj
 0001:00082550       set_flen                   0000000140083550 f   picomodel:lwio.obj
 0001:00082560       get_flen                   0000000140083560 f   picomodel:lwio.obj
 0001:00082570       revbytes                   0000000140083570 f   picomodel:lwio.obj
 0001:000825f0       getbytes                   00000001400835f0 f   picomodel:lwio.obj
 0001:000826a0       getU2                      00000001400836a0 f   picomodel:lwio.obj
 0001:000826a0       getI2                      00000001400836a0 f   picomodel:lwio.obj
 0001:00082700       getU1                      0000000140083700 f   picomodel:lwio.obj
 0001:00082740       getI4                      0000000140083740 f   picomodel:lwio.obj
 0001:00082740       getU4                      0000000140083740 f   picomodel:lwio.obj
 0001:000827a0       getVX                      00000001400837a0 f   picomodel:lwio.obj
 0001:00082850       getF4                      0000000140083850 f   picomodel:lwio.obj
 0001:000828b0       getS0                      00000001400838b0 f   picomodel:lwio.obj
 0001:000829f0       sgetI2                     00000001400839f0 f   picomodel:lwio.obj
 0001:00082a50       sgetU2                     0000000140083a50 f   picomodel:lwio.obj
 0001:00082a90       sgetU4                     0000000140083a90 f   picomodel:lwio.obj
 0001:00082af0       sgetVX                     0000000140083af0 f   picomodel:lwio.obj
 0001:00082b70       sgetF4                     0000000140083b70 f   picomodel:lwio.obj
 0001:00082bd0       sgetS0                     0000000140083bd0 f   picomodel:lwio.obj
 0001:00083030       lwGetSurface5              0000000140084030 f   picomodel:lwob.obj
 0001:00083a30       lwGetPolygons5             0000000140084a30 f   picomodel:lwob.obj
 0001:00083bf0       lwGetObject5               0000000140084bf0 f   picomodel:lwob.obj
 0001:00083e70       lwValidateObject5          0000000140084e70 f   picomodel:lwob.obj
 0001:00083f20       _pico_cross_vec            0000000140084f20 f   picomodel:picointernal.obj
 0001:00083f20       cross                      0000000140084f20 f   picomodel:vecmath.obj
 0001:00083f80       normalize                  0000000140084f80 f   picomodel:vecmath.obj
 0001:00083fcc       _stricmp                   0000000140084fcc f   MSVCRT:MSVCR90.dll
 0001:00083fd2       rename                     0000000140084fd2 f   MSVCRT:MSVCR90.dll
 0001:00083fd8       sprintf                    0000000140084fd8 f   MSVCRT:MSVCR90.dll
 0001:00083fde       sscanf                     0000000140084fde f   MSVCRT:MSVCR90.dll
 0001:00083fe4       strncmp                    0000000140084fe4 f   MSVCRT:MSVCR90.dll
 0001:00083fea       free                       0000000140084fea f   MSVCRT:MSVCR90.dll
 0001:00083ff0       atoi                       0000000140084ff0 f   MSVCRT:MSVCR90.dll
 0001:00083ff6       remove                     0000000140084ff6 f   MSVCRT:MSVCR90.dll
 0001:00083ffc       ftell                      0000000140084ffc f   MSVCRT:MSVCR90.dll
 0001:00084002       realloc                    0000000140085002 f   MSVCRT:MSVCR90.dll
 0001:00084008       atof                       0000000140085008 f   MSVCRT:MSVCR90.dll
 0001:0008400e       _time64                    000000014008500e f   MSVCRT:MSVCR90.dll
 0001:00084014       asctime                    0000000140085014 f   MSVCRT:MSVCR90.dll
 0001:0008401a       _localtime64               000000014008501a f   MSVCRT:MSVCR90.dll
 0001:00084020       fseek                      0000000140085020 f   MSVCRT:MSVCR90.dll
 0001:00084026       fclose                     0000000140085026 f   MSVCRT:MSVCR90.dll
 0001:0008402c       tmpnam                     000000014008502c f   MSVCRT:MSVCR90.dll
 0001:00084032       strstr                     0000000140085032 f   MSVCRT:MSVCR90.dll
 0001:00084038       _onexit                    0000000140085038 f   MSVCRT:atonexit.obj
 0001:000840e8       atexit                     00000001400850e8 f   MSVCRT:atonexit.obj
 0001:00084100       printf                     0000000140085100 f   MSVCRT:MSVCR90.dll
 0001:00084106       fopen                      0000000140085106 f   MSVCRT:MSVCR90.dll
 0001:0008410c       rand                       000000014008510c f   MSVCRT:MSVCR90.dll
 0001:00084112       srand                      0000000140085112 f   MSVCRT:MSVCR90.dll
 0001:00084118       fwrite                     0000000140085118 f   MSVCRT:MSVCR90.dll
 0001:0008411e       memmove                    000000014008511e f   MSVCRT:MSVCR90.dll
 0001:00084124       _strnicmp                  0000000140085124 f   MSVCRT:MSVCR90.dll
 0001:0008412a       strchr                     000000014008512a f   MSVCRT:MSVCR90.dll
 0001:00084130       strncpy                    0000000140085130 f   MSVCRT:MSVCR90.dll
 0001:00084136       fprintf                    0000000140085136 f   MSVCRT:MSVCR90.dll
 0001:0008413c       exit                       000000014008513c f   MSVCRT:MSVCR90.dll
 0001:00084142       malloc                     0000000140085142 f   MSVCRT:MSVCR90.dll
 0001:00084148       strerror                   0000000140085148 f   MSVCRT:MSVCR90.dll
 0001:0008414e       fputs                      000000014008514e f   MSVCRT:MSVCR90.dll
 0001:00084154       _errno                     0000000140085154 f   MSVCRT:MSVCR90.dll
 0001:0008415a       _mkdir                     000000014008515a f   MSVCRT:MSVCR90.dll
 0001:00084160       fread                      0000000140085160 f   MSVCRT:MSVCR90.dll
 0001:00084166       _getcwd                    0000000140085166 f   MSVCRT:MSVCR90.dll
 0001:0008416c       vsprintf                   000000014008516c f   MSVCRT:MSVCR90.dll
 0001:00084172       __iob_func                 0000000140085172 f   MSVCRT:MSVCR90.dll
 0001:00084178       fflush                     0000000140085178 f   MSVCRT:MSVCR90.dll
 0001:0008417e       rewind                     000000014008517e f   MSVCRT:MSVCR90.dll
 0001:00084184       _access                    0000000140085184 f   MSVCRT:MSVCR90.dll
 0001:0008418a       _strdup                    000000014008518a f   MSVCRT:MSVCR90.dll
 0001:00084190       strrchr                    0000000140085190 f   MSVCRT:MSVCR90.dll
 0001:00084196       sscanf_s                   0000000140085196 f   MSVCRT:MSVCR90.dll
 0001:0008419c       qsort                      000000014008519c f   MSVCRT:MSVCR90.dll
 0001:000841a2       fscanf                     00000001400851a2 f   MSVCRT:MSVCR90.dll
 0001:00084478       mainCRTStartup             0000000140085478 f   MSVCRT:crtexe.obj
 0001:0008448a       memset                     000000014008548a f   MSVCRT:MSVCR90.dll
 0001:00084490       _setjmp                    0000000140085490 f   MSVCRT:MSVCR90.dll
 0001:00084496       memcpy                     0000000140085496 f   MSVCRT:MSVCR90.dll
 0001:000844a0       sin                        00000001400854a0 f   MSVCRT:MSVCR90.dll
 0001:000844a6       cos                        00000001400854a6 f   MSVCRT:MSVCR90.dll
 0001:000844ac       acosf                      00000001400854ac f   MSVCRT:MSVCR90.dll
 0001:000844b2       log                        00000001400854b2 f   MSVCRT:MSVCR90.dll
 0001:000844b8       __C_specific_handler       00000001400854b8 f   MSVCRT:MSVCR90.dll
 0001:000844be       _unlock                    00000001400854be f   MSVCRT:MSVCR90.dll
 0001:000844c4       __dllonexit                00000001400854c4 f   MSVCRT:MSVCR90.dll
 0001:000844ca       _lock                      00000001400854ca f   MSVCRT:MSVCR90.dll
 0001:000844d0       ?__CxxUnhandledExceptionFilter@@YAJPEAU_EXCEPTION_POINTERS@@@Z 00000001400854d0 f   MSVCRT:unhandld.obj
 0001:00084514       __CxxSetUnhandledExceptionFilter 0000000140085514 f   MSVCRT:unhandld.obj
 0001:0008452c       _amsg_exit                 000000014008552c f   MSVCRT:MSVCR90.dll
 0001:00084534       _RTC_Initialize            0000000140085534 f   MSVCRT:_initsect_.obj
 0001:0008456c       _RTC_Terminate             000000014008556c f   MSVCRT:_initsect_.obj
 0001:000845a4       _XcptFilter                00000001400855a4 f   MSVCRT:MSVCR90.dll
 0001:000845b0       _ValidateImageBase         00000001400855b0 f   MSVCRT:pesect.obj
 0001:000845e0       _FindPESection             00000001400855e0 f   MSVCRT:pesect.obj
 0001:00084630       _IsNonwritableInCurrentImage 0000000140085630 f   MSVCRT:pesect.obj
 0001:00084672       _initterm                  0000000140085672 f   MSVCRT:MSVCR90.dll
 0001:00084678       _initterm_e                0000000140085678 f   MSVCRT:MSVCR90.dll
 0001:00084680       _matherr                   0000000140085680 f   MSVCRT:merr.obj
 0001:00084680       _setargv                   0000000140085680 f   MSVCRT:dllargv.obj
 0001:00084684       __security_init_cookie     0000000140085684 f   MSVCRT:gs_support.obj
 0001:00084738       ?terminate@@YAXXZ          0000000140085738 f   MSVCRT:MSVCR90.dll
 0001:0008473e       send                       000000014008573e f   wsock32:WSOCK32.dll
 0001:00084744       gethostbyname              0000000140085744 f   wsock32:WSOCK32.dll
 0001:0008474a       closesocket                000000014008574a f   wsock32:WSOCK32.dll
 0001:00084750       socket                     0000000140085750 f   wsock32:WSOCK32.dll
 0001:00084756       bind                       0000000140085756 f   wsock32:WSOCK32.dll
 0001:0008475c       setsockopt                 000000014008575c f   wsock32:WSOCK32.dll
 0001:00084762       getsockname                0000000140085762 f   wsock32:WSOCK32.dll
 0001:00084768       ntohs                      0000000140085768 f   wsock32:WSOCK32.dll
 0001:0008476e       htons                      000000014008576e f   wsock32:WSOCK32.dll
 0001:00084774       WSAGetLastError            0000000140085774 f   wsock32:WSOCK32.dll
 0001:0008477a       htonl                      000000014008577a f   wsock32:WSOCK32.dll
 0001:00084780       inet_addr                  0000000140085780 f   wsock32:WSOCK32.dll
 0001:00084786       ntohl                      0000000140085786 f   wsock32:WSOCK32.dll
 0001:0008478c       WSAStartup                 000000014008578c f   wsock32:WSOCK32.dll
 0001:00084792       connect                    0000000140085792 f   wsock32:WSOCK32.dll
 0001:00084798       gethostname                0000000140085798 f   wsock32:WSOCK32.dll
 0001:0008479e       ioctlsocket                000000014008579e f   wsock32:WSOCK32.dll
 0001:000847a4       expf                       00000001400857a4 f   MSVCRT:MSVCR90.dll
 0001:000847aa       atan2f                     00000001400857aa f   MSVCRT:MSVCR90.dll
 0001:000847b0       sinf                       00000001400857b0 f   MSVCRT:MSVCR90.dll
 0001:000847b6       powf                       00000001400857b6 f   MSVCRT:MSVCR90.dll
 0001:000847bc       cosf                       00000001400857bc f   MSVCRT:MSVCR90.dll
 0001:000847c2       memcmp                     00000001400857c2 f   MSVCRT:MSVCR90.dll
 0001:000847e0       _alloca_probe              00000001400857e0     MSVCRT:chkstk.obj
 0001:000847e0       __chkstk                   00000001400857e0 f   MSVCRT:chkstk.obj
 0002:00000000       __imp_CloseHandle          0000000140086000     kernel32:KERNEL32.dll
 0002:00000008       __imp_ReleaseMutex         0000000140086008     kernel32:KERNEL32.dll
 0002:00000010       __imp_DeleteCriticalSection 0000000140086010     kernel32:KERNEL32.dll
 0002:00000018       __imp_CreateMutexA         0000000140086018     kernel32:KERNEL32.dll
 0002:00000020       __imp_GetSystemInfo        0000000140086020     kernel32:KERNEL32.dll
 0002:00000028       __imp_GetSystemTimeAsFileTime 0000000140086028     kernel32:KERNEL32.dll
 0002:00000030       __imp_GetCurrentProcessId  0000000140086030     kernel32:KERNEL32.dll
 0002:00000038       __imp_GetCurrentThreadId   0000000140086038     kernel32:KERNEL32.dll
 0002:00000040       __imp_GetTickCount         0000000140086040     kernel32:KERNEL32.dll
 0002:00000048       __imp_QueryPerformanceCounter 0000000140086048     kernel32:KERNEL32.dll
 0002:00000050       __imp_SetUnhandledExceptionFilter 0000000140086050     kernel32:KERNEL32.dll
 0002:00000058       __imp_WaitForSingleObject  0000000140086058     kernel32:KERNEL32.dll
 0002:00000060       __imp_EnterCriticalSection 0000000140086060     kernel32:KERNEL32.dll
 0002:00000068       __imp_LeaveCriticalSection 0000000140086068     kernel32:KERNEL32.dll
 0002:00000070       __imp_InitializeCriticalSection 0000000140086070     kernel32:KERNEL32.dll
 0002:00000078       __imp_Sleep                0000000140086078     kernel32:KERNEL32.dll
 0002:00000080       __imp_CreateThread         0000000140086080     kernel32:KERNEL32.dll
 0002:00000088       \177KERNEL32_NULL_THUNK_DATA 0000000140086088     kernel32:KERNEL32.dll
 0002:00000090       __imp__configthreadlocale  0000000140086090     MSVCRT:MSVCR90.dll
 0002:00000098       __imp__initterm_e          0000000140086098     MSVCRT:MSVCR90.dll
 0002:000000a0       __imp__initterm            00000001400860a0     MSVCRT:MSVCR90.dll
 0002:000000a8       __imp___initenv            00000001400860a8     MSVCRT:MSVCR90.dll
 0002:000000b0       __imp__cexit               00000001400860b0     MSVCRT:MSVCR90.dll
 0002:000000b8       __imp___setusermatherr     00000001400860b8     MSVCRT:MSVCR90.dll
 0002:000000c0       __imp__XcptFilter          00000001400860c0     MSVCRT:MSVCR90.dll
 0002:000000c8       __imp___getmainargs        00000001400860c8     MSVCRT:MSVCR90.dll
 0002:000000d0       __imp__amsg_exit           00000001400860d0     MSVCRT:MSVCR90.dll
 0002:000000d8       __imp__decode_pointer      00000001400860d8     MSVCRT:MSVCR90.dll
 0002:000000e0       __imp__onexit              00000001400860e0     MSVCRT:MSVCR90.dll
 0002:000000e8       __imp__lock                00000001400860e8     MSVCRT:MSVCR90.dll
 0002:000000f0       __imp__encode_pointer      00000001400860f0     MSVCRT:MSVCR90.dll
 0002:000000f8       __imp___dllonexit          00000001400860f8     MSVCRT:MSVCR90.dll
 0002:00000100       __imp__unlock              0000000140086100     MSVCRT:MSVCR90.dll
 0002:00000108       __imp___C_specific_handler 0000000140086108     MSVCRT:MSVCR90.dll
 0002:00000110       __imp_log                  0000000140086110     MSVCRT:MSVCR90.dll
 0002:00000118       __imp__commode             0000000140086118     MSVCRT:MSVCR90.dll
 0002:00000120       __imp__fmode               0000000140086120     MSVCRT:MSVCR90.dll
 0002:00000128       __imp___set_app_type       0000000140086128     MSVCRT:MSVCR90.dll
 0002:00000130       __imp_?terminate@@YAXXZ    0000000140086130     MSVCRT:MSVCR90.dll
 0002:00000138       __imp_expf                 0000000140086138     MSVCRT:MSVCR90.dll
 0002:00000140       __imp_atan2f               0000000140086140     MSVCRT:MSVCR90.dll
 0002:00000148       __imp_sinf                 0000000140086148     MSVCRT:MSVCR90.dll
 0002:00000150       __imp_powf                 0000000140086150     MSVCRT:MSVCR90.dll
 0002:00000158       __imp_cosf                 0000000140086158     MSVCRT:MSVCR90.dll
 0002:00000160       __imp__exit                0000000140086160     MSVCRT:MSVCR90.dll
 0002:00000168       __imp_stricmp              0000000140086168     MSVCRT:MSVCR90.dll
 0002:00000168       __imp__stricmp             0000000140086168     MSVCRT:MSVCR90.dll
 0002:00000170       __imp_rename               0000000140086170     MSVCRT:MSVCR90.dll
 0002:00000178       __imp_sprintf              0000000140086178     MSVCRT:MSVCR90.dll
 0002:00000180       __imp_sscanf               0000000140086180     MSVCRT:MSVCR90.dll
 0002:00000188       __imp_strncmp              0000000140086188     MSVCRT:MSVCR90.dll
 0002:00000190       __imp_free                 0000000140086190     MSVCRT:MSVCR90.dll
 0002:00000198       __imp_atoi                 0000000140086198     MSVCRT:MSVCR90.dll
 0002:000001a0       __imp_remove               00000001400861a0     MSVCRT:MSVCR90.dll
 0002:000001a8       __imp_ftell                00000001400861a8     MSVCRT:MSVCR90.dll
 0002:000001b0       __imp_realloc              00000001400861b0     MSVCRT:MSVCR90.dll
 0002:000001b8       __imp_atof                 00000001400861b8     MSVCRT:MSVCR90.dll
 0002:000001c0       __imp__time64              00000001400861c0     MSVCRT:MSVCR90.dll
 0002:000001c8       __imp_asctime              00000001400861c8     MSVCRT:MSVCR90.dll
 0002:000001d0       __imp__localtime64         00000001400861d0     MSVCRT:MSVCR90.dll
 0002:000001d8       __imp_fseek                00000001400861d8     MSVCRT:MSVCR90.dll
 0002:000001e0       __imp_fclose               00000001400861e0     MSVCRT:MSVCR90.dll
 0002:000001e8       __imp_tmpnam               00000001400861e8     MSVCRT:MSVCR90.dll
 0002:000001f0       __imp_strstr               00000001400861f0     MSVCRT:MSVCR90.dll
 0002:000001f8       __imp_printf               00000001400861f8     MSVCRT:MSVCR90.dll
 0002:00000200       __imp_fopen                0000000140086200     MSVCRT:MSVCR90.dll
 0002:00000208       __imp_rand                 0000000140086208     MSVCRT:MSVCR90.dll
 0002:00000210       __imp_srand                0000000140086210     MSVCRT:MSVCR90.dll
 0002:00000218       __imp_fwrite               0000000140086218     MSVCRT:MSVCR90.dll
 0002:00000220       __imp_memmove              0000000140086220     MSVCRT:MSVCR90.dll
 0002:00000228       __imp_strnicmp             0000000140086228     MSVCRT:MSVCR90.dll
 0002:00000228       __imp__strnicmp            0000000140086228     MSVCRT:MSVCR90.dll
 0002:00000230       __imp_strchr               0000000140086230     MSVCRT:MSVCR90.dll
 0002:00000238       __imp_strncpy              0000000140086238     MSVCRT:MSVCR90.dll
 0002:00000240       __imp_fprintf              0000000140086240     MSVCRT:MSVCR90.dll
 0002:00000248       __imp_exit                 0000000140086248     MSVCRT:MSVCR90.dll
 0002:00000250       __imp_malloc               0000000140086250     MSVCRT:MSVCR90.dll
 0002:00000258       __imp_strerror             0000000140086258     MSVCRT:MSVCR90.dll
 0002:00000260       __imp_fputs                0000000140086260     MSVCRT:MSVCR90.dll
 0002:00000268       __imp__errno               0000000140086268     MSVCRT:MSVCR90.dll
 0002:00000270       __imp__mkdir               0000000140086270     MSVCRT:MSVCR90.dll
 0002:00000278       __imp_fread                0000000140086278     MSVCRT:MSVCR90.dll
 0002:00000280       __imp_memcmp               0000000140086280     MSVCRT:MSVCR90.dll
 0002:00000288       __imp__getcwd              0000000140086288     MSVCRT:MSVCR90.dll
 0002:00000290       __imp_vsprintf             0000000140086290     MSVCRT:MSVCR90.dll
 0002:00000298       __imp___iob_func           0000000140086298     MSVCRT:MSVCR90.dll
 0002:000002a0       __imp_fflush               00000001400862a0     MSVCRT:MSVCR90.dll
 0002:000002a8       __imp_rewind               00000001400862a8     MSVCRT:MSVCR90.dll
 0002:000002b0       __imp__access              00000001400862b0     MSVCRT:MSVCR90.dll
 0002:000002b8       __imp__strdup              00000001400862b8     MSVCRT:MSVCR90.dll
 0002:000002c0       __imp_strrchr              00000001400862c0     MSVCRT:MSVCR90.dll
 0002:000002c8       __imp_sscanf_s             00000001400862c8     MSVCRT:MSVCR90.dll
 0002:000002d0       __imp_qsort                00000001400862d0     MSVCRT:MSVCR90.dll
 0002:000002d8       __imp_fscanf               00000001400862d8     MSVCRT:MSVCR90.dll
 0002:000002e0       __imp_memset               00000001400862e0     MSVCRT:MSVCR90.dll
 0002:000002e8       __imp__setjmp              00000001400862e8     MSVCRT:MSVCR90.dll
 0002:000002f0       __imp_memcpy               00000001400862f0     MSVCRT:MSVCR90.dll
 0002:000002f8       __imp_longjmp              00000001400862f8     MSVCRT:MSVCR90.dll
 0002:00000300       __imp_getenv               0000000140086300     MSVCRT:MSVCR90.dll
 0002:00000308       __imp_isspace              0000000140086308     MSVCRT:MSVCR90.dll
 0002:00000310       __imp_sin                  0000000140086310     MSVCRT:MSVCR90.dll
 0002:00000318       __imp_cos                  0000000140086318     MSVCRT:MSVCR90.dll
 0002:00000320       __imp_acosf                0000000140086320     MSVCRT:MSVCR90.dll
 0002:00000328       \177MSVCR90_NULL_THUNK_DATA 0000000140086328     MSVCRT:MSVCR90.dll
 0002:00000330       __imp_bind                 0000000140086330     wsock32:WSOCK32.dll
 0002:00000338       __imp_socket               0000000140086338     wsock32:WSOCK32.dll
 0002:00000340       __imp_closesocket          0000000140086340     wsock32:WSOCK32.dll
 0002:00000348       __imp_gethostbyname        0000000140086348     wsock32:WSOCK32.dll
 0002:00000350       __imp_send                 0000000140086350     wsock32:WSOCK32.dll
 0002:00000358       __imp_ioctlsocket          0000000140086358     wsock32:WSOCK32.dll
 0002:00000360       __imp_gethostname          0000000140086360     wsock32:WSOCK32.dll
 0002:00000368       __imp_connect              0000000140086368     wsock32:WSOCK32.dll
 0002:00000370       __imp_WSAStartup           0000000140086370     wsock32:WSOCK32.dll
 0002:00000378       __imp_ntohl                0000000140086378     wsock32:WSOCK32.dll
 0002:00000380       __imp_inet_addr            0000000140086380     wsock32:WSOCK32.dll
 0002:00000388       __imp_htonl                0000000140086388     wsock32:WSOCK32.dll
 0002:00000390       __imp_WSAGetLastError      0000000140086390     wsock32:WSOCK32.dll
 0002:00000398       __imp_htons                0000000140086398     wsock32:WSOCK32.dll
 0002:000003a0       __imp_ntohs                00000001400863a0     wsock32:WSOCK32.dll
 0002:000003a8       __imp_getsockname          00000001400863a8     wsock32:WSOCK32.dll
 0002:000003b0       __imp_setsockopt           00000001400863b0     wsock32:WSOCK32.dll
 0002:000003b8       \177WSOCK32_NULL_THUNK_DATA 00000001400863b8     wsock32:WSOCK32.dll
 0002:000003c0       __imp_g_slist_append       00000001400863c0     glib-2.0:libglib-2.0-0.dll
 0002:000003c8       __imp_g_dir_close          00000001400863c8     glib-2.0:libglib-2.0-0.dll
 0002:000003d0       __imp_g_dir_open_utf8      00000001400863d0     glib-2.0:libglib-2.0-0.dll
 0002:000003d8       __imp_g_dir_read_name_utf8 00000001400863d8     glib-2.0:libglib-2.0-0.dll
 0002:000003e0       __imp_g_free               00000001400863e0     glib-2.0:libglib-2.0-0.dll
 0002:000003e8       __imp_g_strdown            00000001400863e8     glib-2.0:libglib-2.0-0.dll
 0002:000003f0       __imp_g_strdup             00000001400863f0     glib-2.0:libglib-2.0-0.dll
 0002:000003f8       __imp_g_locale_to_utf8     00000001400863f8     glib-2.0:libglib-2.0-0.dll
 0002:00000400       \177libglib-2.0-0_NULL_THUNK_DATA 0000000140086400     glib-2.0:libglib-2.0-0.dll
 0002:00000408       __imp_png_set_strip_16     0000000140086408     libpng:libpng14-14.dll
 0002:00000410       __imp_png_destroy_read_struct 0000000140086410     libpng:libpng14-14.dll
 0002:00000418       __imp_png_get_channels     0000000140086418     libpng:libpng14-14.dll
 0002:00000420       __imp_png_set_filler       0000000140086420     libpng:libpng14-14.dll
 0002:00000428       __imp_png_get_valid        0000000140086428     libpng:libpng14-14.dll
 0002:00000430       __imp_png_set_read_fn      0000000140086430     libpng:libpng14-14.dll
 0002:00000438       __imp_png_create_info_struct 0000000140086438     libpng:libpng14-14.dll
 0002:00000440       __imp_png_get_io_ptr       0000000140086440     libpng:libpng14-14.dll
 0002:00000448       __imp_png_get_IHDR         0000000140086448     libpng:libpng14-14.dll
 0002:00000450       __imp_png_read_image       0000000140086450     libpng:libpng14-14.dll
 0002:00000458       __imp_png_set_expand       0000000140086458     libpng:libpng14-14.dll
 0002:00000460       __imp_png_read_info        0000000140086460     libpng:libpng14-14.dll
 0002:00000468       __imp_png_create_read_struct 0000000140086468     libpng:libpng14-14.dll
 0002:00000470       __imp_png_sig_cmp          0000000140086470     libpng:libpng14-14.dll
 0002:00000478       \177libpng14-14_NULL_THUNK_DATA 0000000140086478     libpng:libpng14-14.dll
 0002:00000480       __imp_xmlNodeSetContent    0000000140086480     libxml2:libxml2-2.dll
 0002:00000488       __imp_xmlBufferFree        0000000140086488     libxml2:libxml2-2.dll
 0002:00000490       __imp_xmlNewDocRawNode     0000000140086490     libxml2:libxml2-2.dll
 0002:00000498       __imp_xmlSetProp           0000000140086498     libxml2:libxml2-2.dll
 0002:000004a0       __imp_xmlNewDoc            00000001400864a0     libxml2:libxml2-2.dll
 0002:000004a8       __imp_xmlAddChild          00000001400864a8     libxml2:libxml2-2.dll
 0002:000004b0       __imp_xmlNewNode           00000001400864b0     libxml2:libxml2-2.dll
 0002:000004b8       __imp_xmlBufferCreate      00000001400864b8     libxml2:libxml2-2.dll
 0002:000004c0       __imp_xmlNodeDump          00000001400864c0     libxml2:libxml2-2.dll
 0002:000004c8       \177libxml2-2_NULL_THUNK_DATA 00000001400864c8     libxml2:libxml2-2.dll
 0002:000004d0       __xc_a                     00000001400864d0     MSVCRT:cinitexe.obj
 0002:000004e0       __xc_z                     00000001400864e0     MSVCRT:cinitexe.obj
 0002:000004e8       __xi_a                     00000001400864e8     MSVCRT:cinitexe.obj
 0002:00000500       __xi_z                     0000000140086500     MSVCRT:cinitexe.obj
 0002:00000530       ??_C@_0CL@NJGMBHCN@Progressive?5JPEG?5encountered?5?$CIun@ 0000000140086530     jpeg6:jpgload.obj
 0002:00000560       ??_C@_0CH@INAOIABJ@Non?9RGB?5JPEG?5encountered?5?$CIunsupp@ 0000000140086560     jpeg6:jpgload.obj
 0002:00000588       ??_C@_0CL@OCGBAKPF@Application?5transferred?5too?5many@ 0000000140086588     jpeg6:jerror.obj
 0002:000005b8       ??_C@_0CL@BAKCGOKJ@Invalid?5SOS?5parameters?5for?5seque@ 00000001400865b8     jpeg6:jerror.obj
 0002:000005e8       ??_C@_0DI@NFMBADOH@Corrupt?5JPEG?5data?3?5found?5marker?5@ 00000001400865e8     jpeg6:jerror.obj
 0002:00000620       ??_C@_0BL@DPFPFMLM@Premature?5end?5of?5JPEG?5file?$AA@ 0000000140086620     jpeg6:jerror.obj
 0002:00000640       ??_C@_0CO@ODCCEDLN@Warning?3?5unknown?5JFIF?5revision?5n@ 0000000140086640     jpeg6:jerror.obj
 0002:00000670       ??_C@_0CE@PBLDOPKB@Corrupt?5JPEG?5data?3?5bad?5Huffman?5c@ 0000000140086670     jpeg6:jerror.obj
 0002:00000698       ??_C@_0DB@PGMEPGHN@Corrupt?5JPEG?5data?3?5premature?5end@ 0000000140086698     jpeg6:jerror.obj
 0002:000006d0       ??_C@_0DM@PCOGCKJB@Corrupt?5JPEG?5data?3?5?$CFu?5extraneous@ 00000001400866d0     jpeg6:jerror.obj
 0002:00000710       ??_C@_0EC@CBCJOINE@Inconsistent?5progression?5sequenc@ 0000000140086710     jpeg6:jerror.obj
 0002:00000758       ??_C@_0CG@KEGHCDOM@Unknown?5Adobe?5color?5transform?5co@ 0000000140086758     jpeg6:jerror.obj
 0002:00000780       ??_C@_0BH@LJLGPEFF@Obtained?5XMS?5handle?5?$CFu?$AA@ 0000000140086780     jpeg6:jerror.obj
 0002:00000798       ??_C@_0BE@FOGGKKAO@Freed?5XMS?5handle?5?$CFu?$AA@ 0000000140086798     jpeg6:jerror.obj
 0002:000007b0       ??_C@_0DE@EEJCDLOO@Unrecognized?5component?5IDs?5?$CFd?5?$CFd@ 00000001400867b0     jpeg6:jerror.obj
 0002:000007e8       ??_C@_0BJ@GOCABEP@Opened?5temporary?5file?5?$CFs?$AA@ 00000001400867e8     jpeg6:jerror.obj
 0002:00000808       ??_C@_0BJ@KDCGAOJB@Closed?5temporary?5file?5?$CFs?$AA@ 0000000140086808     jpeg6:jerror.obj
 0002:00000828       ??_C@_0BN@GAMIJLDC@?5?5Ss?$DN?$CFd?0?5Se?$DN?$CFd?0?5Ah?$DN?$CFd?0?5Al?$DN?$CFd?$AA@ 0000000140086828     jpeg6:jerror.obj
 0002:00000848       ??_C@_0BO@CDEKFGLC@?5?5?5?5Component?5?$CFd?3?5dc?$DN?$CFd?5ac?$DN?$CFd?$AA@ 0000000140086848     jpeg6:jerror.obj
 0002:00000868       ??_C@_0BN@BLOOHNC@Start?5Of?5Scan?3?5?$CFd?5components?$AA@ 0000000140086868     jpeg6:jerror.obj
 0002:00000888       ??_C@_0P@JLCHJELA@Start?5of?5Image?$AA@ 0000000140086888     jpeg6:jerror.obj
 0002:00000898       ??_C@_0BP@EDCAMHHE@?5?5?5?5Component?5?$CFd?3?5?$CFdhx?$CFdv?5q?$DN?$CFd?$AA@ 0000000140086898     jpeg6:jerror.obj
 0002:000008b8       ??_C@_0DK@DMINKOGN@Start?5Of?5Frame?50x?$CF02x?3?5width?$DN?$CFu?0@ 00000001400868b8     jpeg6:jerror.obj
 0002:000008f8       ??_C@_0DJ@PCBCLFML@Smoothing?5not?5supported?5with?5non@ 00000001400868f8     jpeg6:jerror.obj
 0002:00000934       ??_C@_05LLAPAOG@RST?$CFd?$AA@ 0000000140086934     jpeg6:jerror.obj
 0002:00000940       ??_C@_0CF@NIMOLBCP@At?5marker?50x?$CF02x?0?5recovery?5actio@ 0000000140086940     jpeg6:jerror.obj
 0002:00000968       ??_C@_0CE@FDPBEAOO@Selected?5?$CFd?5colors?5for?5quantizat@ 0000000140086968     jpeg6:jerror.obj
 0002:00000990       ??_C@_0BI@NEIBNACE@Quantizing?5to?5?$CFd?5colors?$AA@ 0000000140086990     jpeg6:jerror.obj
 0002:000009a8       ??_C@_0CD@CNNAOOFA@Quantizing?5to?5?$CFd?5?$DN?5?$CFd?$CK?$CFd?$CK?$CFd?5colo@ 00000001400869a8     jpeg6:jerror.obj
 0002:000009d0       ??_C@_0CI@GHPOCOCL@?5?5?5?5?5?5?5?5?$CF4u?5?$CF4u?5?$CF4u?5?$CF4u?5?$CF4u?5?$CF4u?5@ 00000001400869d0     jpeg6:jerror.obj
 0002:000009f8       ??_C@_0BJ@COPODLDN@Unexpected?5marker?50x?$CF02x?$AA@ 00000001400869f8     jpeg6:jerror.obj
 0002:00000a18       ??_C@_0CC@KHCAAFMC@Skipping?5marker?50x?$CF02x?0?5length?5?$CF@ 0000000140086a18     jpeg6:jerror.obj
 0002:00000a40       ??_C@_0CB@BADBMAAB@?5?5?5?5with?5?$CFd?5x?5?$CFd?5thumbnail?5image@ 0000000140086a40     jpeg6:jerror.obj
 0002:00000a68       ??_C@_0CL@BJMGIDLN@Unknown?5JFIF?5minor?5revision?5numb@ 0000000140086a68     jpeg6:jerror.obj
 0002:00000a98       ??_C@_0DM@JLHNPIBE@Warning?3?5thumbnail?5image?5size?5do@ 0000000140086a98     jpeg6:jerror.obj
 0002:00000ad8       ??_C@_0CE@MKDBBMLI@JFIF?5APP0?5marker?0?5density?5?$CFdx?$CFd?5@ 0000000140086ad8     jpeg6:jerror.obj
 0002:00000b00       ??_C@_0CI@FKGPAJC@?5?5?5?5?5?5?5?5?$CF3d?5?$CF3d?5?$CF3d?5?$CF3d?5?$CF3d?5?$CF3d?5@ 0000000140086b00     jpeg6:jerror.obj
 0002:00000b28       ??_C@_0N@HJHFKELG@End?5Of?5Image?$AA@ 0000000140086b28     jpeg6:jerror.obj
 0002:00000b38       ??_C@_0BH@GIPOLIGC@Obtained?5EMS?5handle?5?$CFu?$AA@ 0000000140086b38     jpeg6:jerror.obj
 0002:00000b50       ??_C@_0BE@IPCOOGDJ@Freed?5EMS?5handle?5?$CFu?$AA@ 0000000140086b50     jpeg6:jerror.obj
 0002:00000b68       ??_C@_0BL@EMFIKBEK@Define?5Restart?5Interval?5?$CFu?$AA@ 0000000140086b68     jpeg6:jerror.obj
 0002:00000b88       ??_C@_0CL@KLDOJIKN@Define?5Quantization?5Table?5?$CFd?5?5pr@ 0000000140086b88     jpeg6:jerror.obj
 0002:00000bb8       ??_C@_0BM@MDIEILCE@Define?5Huffman?5Table?50x?$CF02x?$AA@ 0000000140086bb8     jpeg6:jerror.obj
 0002:00000bd8       ??_C@_0CH@KIJGKPAA@Define?5Arithmetic?5Table?50x?$CF02x?3?5@ 0000000140086bd8     jpeg6:jerror.obj
 0002:00000c00       ??_C@_0CM@CAEPHFAA@Unknown?5APP14?5marker?5?$CInot?5Adobe?$CJ@ 0000000140086c00     jpeg6:jerror.obj
 0002:00000c30       ??_C@_0CK@HCPFFNKJ@Unknown?5APP0?5marker?5?$CInot?5JFIF?$CJ?0?5@ 0000000140086c30     jpeg6:jerror.obj
 0002:00000c60       ??_C@_0EC@EHPKAOHA@Adobe?5APP14?5marker?3?5version?5?$CFd?0?5@ 0000000140086c60     jpeg6:jerror.obj
 0002:00000ca8       ??_C@_0DO@EGLODMBB@Caution?3?5quantization?5tables?5are@ 0000000140086ca8     jpeg6:jerror.obj
 0002:00000ce8       ??_C@_0M@JNBJJLAI@6?5?52?9Aug?995?$AA@ 0000000140086ce8     jpeg6:jerror.obj
 0002:00000cf8       ??_C@_0CD@HPLBEMMI@Copyright?5?$CIC?$CJ?51995?0?5Thomas?5G?4?5La@ 0000000140086cf8     jpeg6:jerror.obj
 0002:00000d20       ??_C@_0BE@FDPDCBIN@Write?5to?5XMS?5failed?$AA@ 0000000140086d20     jpeg6:jerror.obj
 0002:00000d38       ??_C@_0BF@EKLGFGNM@Read?5from?5XMS?5failed?$AA@ 0000000140086d38     jpeg6:jerror.obj
 0002:00000d50       ??_C@_0CH@LJLHCCHC@Image?5too?5wide?5for?5this?5implemen@ 0000000140086d50     jpeg6:jerror.obj
 0002:00000d78       ??_C@_0CD@GCLFJCHC@Virtual?5array?5controller?5messed?5@ 0000000140086d78     jpeg6:jerror.obj
 0002:00000da0       ??_C@_0BP@BPKOBOIP@Unsupported?5marker?5type?50x?$CF02x?$AA@ 0000000140086da0     jpeg6:jerror.obj
 0002:00000dc0       ??_C@_0CK@EPADOAKC@Application?5transferred?5too?5few?5@ 0000000140086dc0     jpeg6:jerror.obj
 0002:00000df0       ??_C@_0DG@KALDLIJB@Write?5failed?5on?5temporary?5file?5?9@ 0000000140086df0     jpeg6:jerror.obj
 0002:00000e28       ??_C@_0BO@GOBJOAAI@Seek?5failed?5on?5temporary?5file?$AA@ 0000000140086e28     jpeg6:jerror.obj
 0002:00000e48       ??_C@_0BO@EEPJGHHI@Read?5failed?5on?5temporary?5file?$AA@ 0000000140086e48     jpeg6:jerror.obj
 0002:00000e68       ??_C@_0CD@POKNOPOF@Failed?5to?5create?5temporary?5file?5@ 0000000140086e68     jpeg6:jerror.obj
 0002:00000e90       ??_C@_0CM@HONLBDPH@Invalid?5JPEG?5file?5structure?3?5SOS@ 0000000140086e90     jpeg6:jerror.obj
 0002:00000ec0       ??_C@_0CN@HGJCMLNE@Invalid?5JPEG?5file?5structure?3?5two@ 0000000140086ec0     jpeg6:jerror.obj
 0002:00000ef0       ??_C@_0CK@HMKECJK@Unsupported?5JPEG?5process?3?5SOF?5ty@ 0000000140086ef0     jpeg6:jerror.obj
 0002:00000f20       ??_C@_0DA@GJIJGINK@Invalid?5JPEG?5file?5structure?3?5mis@ 0000000140086f20     jpeg6:jerror.obj
 0002:00000f50       ??_C@_0CN@IHJJJAFJ@Invalid?5JPEG?5file?5structure?3?5two@ 0000000140086f50     jpeg6:jerror.obj
 0002:00000f80       ??_C@_0CH@NHMNHHIB@Cannot?5quantize?5to?5more?5than?5?$CFd?5@ 0000000140086f80     jpeg6:jerror.obj
 0002:00000fa8       ??_C@_0CI@PLMPLCNO@Cannot?5quantize?5to?5fewer?5than?5?$CFd@ 0000000140086fa8     jpeg6:jerror.obj
 0002:00000fd0       ??_C@_0CO@HPDBAEEA@Cannot?5quantize?5more?5than?5?$CFd?5col@ 0000000140086fd0     jpeg6:jerror.obj
 0002:00001000       ??_C@_0BO@DJPLELIB@Insufficient?5memory?5?$CIcase?5?$CFd?$CJ?$AA@ 0000000140087000     jpeg6:jerror.obj
 0002:00001020       ??_C@_0CL@GNLFDFCL@Not?5a?5JPEG?5file?3?5starts?5with?50x?$CF@ 0000000140087020     jpeg6:jerror.obj
 0002:00001050       ??_C@_0CK@CCHKIENB@Quantization?5table?50x?$CF02x?5was?5no@ 0000000140087050     jpeg6:jerror.obj
 0002:00001080       ??_C@_0CC@BKPLBDLJ@JPEG?5datastream?5contains?5no?5imag@ 0000000140087080     jpeg6:jerror.obj
 0002:000010a8       ??_C@_0CF@BKANFCCL@Huffman?5table?50x?$CF02x?5was?5not?5def@ 00000001400870a8     jpeg6:jerror.obj
 0002:000010d0       ??_C@_0BM@HJHFKLAF@Backing?5store?5not?5supported?$AA@ 00000001400870d0     jpeg6:jerror.obj
 0002:000010f0       ??_C@_0DK@HLEMINPG@Progressive?5JPEGs?5not?5supported?0@ 00000001400870f0     jpeg6:jerror.obj
 0002:00001130       ??_C@_0CO@BEHINNOI@Requested?5feature?5was?5omitted?5at@ 0000000140087130     jpeg6:jerror.obj
 0002:00001160       ??_C@_0BE@EOAAHHJ@Not?5implemented?5yet?$AA@ 0000000140087160     jpeg6:jerror.obj
 0002:00001178       ??_C@_0CH@EFBBPPCK@Invalid?5color?5quantization?5mode?5@ 0000000140087178     jpeg6:jerror.obj
 0002:000011a0       ??_C@_0CH@NIBDNILP@Scan?5script?5does?5not?5transmit?5al@ 00000001400871a0     jpeg6:jerror.obj
 0002:000011c8       ??_C@_0DO@OPNPKGO@Cannot?5transcode?5due?5to?5multiple@ 00000001400871c8     jpeg6:jerror.obj
 0002:00001208       ??_C@_0BM@KEKMMNGA@Premature?5end?5of?5input?5file?$AA@ 0000000140087208     jpeg6:jerror.obj
 0002:00001228       ??_C@_0BB@JJAIKFBB@Empty?5input?5file?$AA@ 0000000140087228     jpeg6:jerror.obj
 0002:00001240       ??_C@_0CP@EKFPGPNP@Maximum?5supported?5image?5dimensio@ 0000000140087240     jpeg6:jerror.obj
 0002:00001270       ??_C@_0CB@LFBMFPHI@Missing?5Huffman?5code?5table?5entry@ 0000000140087270     jpeg6:jerror.obj
 0002:00001298       ??_C@_0CB@LLDOGNPJ@Huffman?5code?5size?5table?5overflow@ 0000000140087298     jpeg6:jerror.obj
 0002:000012c0       ??_C@_0CI@EKDDDHFF@Fractional?5sampling?5not?5implemen@ 00000001400872c0     jpeg6:jerror.obj
 0002:000012e8       ??_C@_0CP@IDOBLGGD@Output?5file?5write?5error?5?9?9?9?5out?5@ 00000001400872e8     jpeg6:jerror.obj
 0002:00001318       ??_C@_0BG@BALCKDNL@Input?5file?5read?5error?$AA@ 0000000140087318     jpeg6:jerror.obj
 0002:00001330       ??_C@_0CB@DMGINPNE@Didn?8t?5expect?5more?5than?5one?5scan@ 0000000140087330     jpeg6:jerror.obj
 0002:00001358       ??_C@_0BE@DGJBKIEB@Write?5to?5EMS?5failed?$AA@ 0000000140087358     jpeg6:jerror.obj
 0002:00001370       ??_C@_0BF@CPNENPBA@Read?5from?5EMS?5failed?$AA@ 0000000140087370     jpeg6:jerror.obj
 0002:00001388       ??_C@_0CF@DAGGEAPM@Empty?5JPEG?5image?5?$CIDNL?5not?5suppor@ 0000000140087388     jpeg6:jerror.obj
 0002:000013b0       ??_C@_0BD@DIMECAOP@Bogus?5DQT?5index?5?$CFd?$AA@ 00000001400873b0     jpeg6:jerror.obj
 0002:000013c8       ??_C@_0BD@KJHFPHIC@Bogus?5DHT?5index?5?$CFd?$AA@ 00000001400873c8     jpeg6:jerror.obj
 0002:000013e0       ??_C@_0BB@GDNEPMHL@Bogus?5DHT?5counts?$AA@ 00000001400873e0     jpeg6:jerror.obj
 0002:000013f8       ??_C@_0BF@CLIOOJFM@Bogus?5DAC?5value?50x?$CFx?$AA@ 00000001400873f8     jpeg6:jerror.obj
 0002:00001410       ??_C@_0BD@LDBBBMFL@Bogus?5DAC?5index?5?$CFd?$AA@ 0000000140087410     jpeg6:jerror.obj
 0002:00001428       ??_C@_0CF@JDLOPNGO@Unsupported?5color?5conversion?5req@ 0000000140087428     jpeg6:jerror.obj
 0002:00001450       ??_C@_0CG@BEBDNOCG@Too?5many?5color?5components?3?5?$CFd?0?5m@ 0000000140087450     jpeg6:jerror.obj
 0002:00001478       ??_C@_0CF@LAEFHNAH@CCIR601?5sampling?5not?5implemented@ 0000000140087478     jpeg6:jerror.obj
 0002:000014a0       ??_C@_0BM@PKHCPJDH@Suspension?5not?5allowed?5here?$AA@ 00000001400874a0     jpeg6:jerror.obj
 0002:000014c0       ??_C@_0CL@JKHIPJLJ@Buffer?5passed?5to?5JPEG?5library?5is@ 00000001400874c0     jpeg6:jerror.obj
 0002:000014f0       ??_C@_0BL@CBOEEPLK@Bogus?5virtual?5array?5access?$AA@ 00000001400874f0     jpeg6:jerror.obj
 0002:00001510       ??_C@_0CK@BAMFIBMM@Improper?5call?5to?5JPEG?5library?5in@ 0000000140087510     jpeg6:jerror.obj
 0002:00001540       ??_C@_0CA@MJDDICLK@Invalid?5scan?5script?5at?5entry?5?$CFd?$AA@ 0000000140087540     jpeg6:jerror.obj
 0002:00001560       ??_C@_0BH@HMMHPOPE@Bogus?5sampling?5factors?$AA@ 0000000140087560     jpeg6:jerror.obj
 0002:00001578       ??_C@_0DH@HIKEGPKP@Invalid?5progressive?5parameters?5a@ 0000000140087578     jpeg6:jerror.obj
 0002:000015b0       ??_C@_0DH@LNGGEGOL@Invalid?5progressive?5parameters?5S@ 00000001400875b0     jpeg6:jerror.obj
 0002:000015e8       ??_C@_0CD@LDBDNLHK@Unsupported?5JPEG?5data?5precision?5@ 00000001400875e8     jpeg6:jerror.obj
 0002:00001610       ??_C@_0BM@OEMICEFD@Invalid?5memory?5pool?5code?5?$CFd?$AA@ 0000000140087610     jpeg6:jerror.obj
 0002:00001630       ??_C@_0DA@HLEOHNPA@Sampling?5factors?5too?5large?5for?5i@ 0000000140087630     jpeg6:jerror.obj
 0002:00001660       ??_C@_0BE@OGLAEMOG@Bogus?5marker?5length?$AA@ 0000000140087660     jpeg6:jerror.obj
 0002:00001678       ??_C@_0BG@NEGIHEMC@Bogus?5JPEG?5colorspace?$AA@ 0000000140087678     jpeg6:jerror.obj
 0002:00001690       ??_C@_0BH@BGDIGLHC@Bogus?5input?5colorspace?$AA@ 0000000140087690     jpeg6:jerror.obj
 0002:000016a8       ??_C@_0CI@MBJANLAP@IDCT?5output?5block?5size?5?$CFd?5not?5su@ 00000001400876a8     jpeg6:jerror.obj
 0002:000016d0       ??_C@_0BP@ONFLCDHG@Invalid?5component?5ID?5?$CFd?5in?5SOS?$AA@ 00000001400876d0     jpeg6:jerror.obj
 0002:000016f0       ??_C@_0BK@DKALDNKG@Bogus?5buffer?5control?5mode?$AA@ 00000001400876f0     jpeg6:jerror.obj
 0002:00001710       ??_C@_0CF@DENLILGA@MAX_ALLOC_CHUNK?5is?5wrong?0?5please@ 0000000140087710     jpeg6:jerror.obj
 0002:00001738       ??_C@_0CA@FDMPGPNI@ALIGN_TYPE?5is?5wrong?0?5please?5fix?$AA@ 0000000140087738     jpeg6:jerror.obj
 0002:00001758       ??_C@_0DJ@KONAFFHE@Sorry?0?5there?5are?5legal?5restricti@ 0000000140087758     jpeg6:jerror.obj
 0002:00001798       ??_C@_0BG@MIBALFBH@Bogus?5message?5code?5?$CFd?$AA@ 0000000140087798     jpeg6:jerror.obj
 0002:00001b90       ??_C@_05IBIMIMKO@?$CFld?$CFc?$AA@ 0000000140087b90     jpeg6:jmemmgr.obj
 0002:00001b98       ??_C@_07OOOLPGAB@JPEGMEM?$AA@ 0000000140087b98     jpeg6:jmemmgr.obj
 0002:00001ba0       jpeg_zigzag_order          0000000140087ba0     jpeg6:jutils.obj
 0002:00001ca0       jpeg_natural_order         0000000140087ca0     jpeg6:jutils.obj
 0002:00001ea0       __real@40273d75            0000000140087ea0     jpeg6:jidctflt.obj
 0002:00001ea4       __real@3f8a8bd4            0000000140087ea4     jpeg6:jidctflt.obj
 0002:00001ea8       __real@3fec835e            0000000140087ea8     jpeg6:jidctflt.obj
 0002:00001eac       __real@3fb504f3            0000000140087eac     jpeg6:jidctflt.obj
 0002:00001eb0       __real@3f800000            0000000140087eb0     picomodel:picomodel.obj
 0002:00001eb4       __real@00000000            0000000140087eb4     picomodel:picomodel.obj
 0002:00001eb8       __real@3f1a36e2e0000000    0000000140087eb8     picomodel:picomodel.obj
 0002:00001ec0       __real@3f947ae140000000    0000000140087ec0     picomodel:picomodel.obj
 0002:00001ec8       ??_C@_08DPLIAGAA@specular?$AA@ 0000000140087ec8     picomodel:picomodel.obj
 0002:00001ed8       ??_C@_07KFBPAAO@diffuse?$AA@ 0000000140087ed8     picomodel:picomodel.obj
 0002:00001ee0       ??_C@_07KMNEBLH@mapname?$AA@ 0000000140087ee0     picomodel:picomodel.obj
 0002:00001ee8       ??_C@_01LBDDMOBJ@?$FN?$AA@ 0000000140087ee8     picomodel:picomodel.obj
 0002:00001ef0       ??_C@_0L@IKAPBNCE@materials?$FL?$AA@ 0000000140087ef0     picomodel:picomodel.obj
 0002:00001efc       ??_C@_01NEMOKFLO@?$DN?$AA@ 0000000140087efc     picomodel:picomodel.obj
 0002:00001f00       ??_C@_02HBOOOICD@?9?$DO?$AA@ 0000000140087f00     picomodel:picomodel.obj
 0002:00001f04       ??_C@_02GNMIELFD@?$DN?$DO?$AA@ 0000000140087f04     picomodel:picomodel.obj
 0002:00001f08       ??_C@_09JGGNEAGH@materials?$AA@ 0000000140087f08     picomodel:picomodel.obj
 0002:00001f14       ??_C@_02CBLDBPFN@?1?1?$AA@ 0000000140087f14     picomodel:picomodel.obj
 0002:00001f20       ??_C@_0GJ@KFJEJAJG@PicoLoadSkinFiles?3?5parsing?5error@ 0000000140087f20     picomodel:picomodel.obj
 0002:00001f8c       ??_C@_01IHBHIGKO@?0?$AA@   0000000140087f8c     picomodel:picomodel.obj
 0002:00001f90       ??_C@_04MGKOECLF@tag_?$AA@ 0000000140087f90     picomodel:picomodel.obj
 0002:00001fa0       ??_C@_0GH@GPAAPLPF@PicoLoadSkinFiles?3?5parsing?5error@ 0000000140087fa0     picomodel:picomodel.obj
 0002:00002008       ??_C@_07CLEHDIEJ@replace?$AA@ 0000000140088008     picomodel:picomodel.obj
 0002:00002010       ??_C@_0GE@PEDGFCON@PicoLoadSkinFiles?3?5parsing?5error@ 0000000140088010     picomodel:picomodel.obj
 0002:00002078       ??_C@_0L@KPBFIAGD@?$CFs_?$CFi?4skin?$AA@ 0000000140088078     picomodel:picomodel.obj
 0002:00002084       ??_C@_05PGGDPNJE@remap?$AA@ 0000000140088084     picomodel:picomodel.obj
 0002:00002090       ??_C@_0CH@CFBDIJHC@PicoLoadModel?3?5Failed?5loading?5mo@ 0000000140088090     picomodel:picomodel.obj
 0002:000020b8       ??_C@_0DE@IJDGCDAP@PicoLoadModel?3?5No?5filename?5given@ 00000001400880b8     picomodel:picomodel.obj
 0002:000020f0       ??_C@_0L@KIMMKGLI@Unnamed_?$CFd?$AA@ 00000001400880f0     picomodel:picomodel.obj
 0002:00002100       ??_C@_0CD@PBNPFFEH@Could?5not?5allocate?5a?5new?5surface@ 0000000140088100     picomodel:picomodel.obj
 0002:00002124       ??_C@_03GJLPFLNF@obj?$AA@  0000000140088124     picomodel:pm_obj.obj
 0002:00002128       ??_C@_0N@LEFAFPHC@2002?5seaw0lf?$AA@ 0000000140088128     picomodel:pm_obj.obj
 0002:00002138       ??_C@_07GLJHDDED@seaw0lf?$AA@ 0000000140088138     picomodel:pm_obj.obj
 0002:00002140       ??_C@_0BA@ICHNNDOL@Wavefront?5ASCII?$AA@ 0000000140088140     picomodel:pm_obj.obj
 0002:00002150       ??_C@_05IGKILDHP@0?46?9b?$AA@ 0000000140088150     picomodel:pm_obj.obj
 0002:00002160       picoModuleOBJ              0000000140088160     picomodel:pm_obj.obj
 0002:000021c0       ??_C@_01MHEDDDHA@v?$AA@    00000001400881c0     picomodel:pm_obj.obj
 0002:000021c4       ??_C@_01JEJKBAGA@g?$AA@    00000001400881c4     picomodel:pm_obj.obj
 0002:000021c8       ??_C@_06CFLOGJAO@mtllib?$AA@ 00000001400881c8     picomodel:pm_obj.obj
 0002:000021d0       ??_C@_06FDFLJDKG@usemtl?$AA@ 00000001400881d0     picomodel:pm_obj.obj
 0002:000021d8       ??_C@_03PMEPEKBK@?4wf?$AA@ 00000001400881d8     picomodel:pm_obj.obj
 0002:000021dc       ??_C@_04PACIOCLB@?4obj?$AA@ 00000001400881dc     picomodel:pm_obj.obj
 0002:000021e8       ??_C@_0BL@DEGDGNBI@No?5group?5defined?5for?5faces?$AA@ 00000001400881e8     picomodel:pm_obj.obj
 0002:00002208       ??_C@_0BB@COKDGCEB@Face?5parse?5error?$AA@ 0000000140088208     picomodel:pm_obj.obj
 0002:00002220       ??_C@_0BE@KHFDIKKE@Invalid?5face?5format?$AA@ 0000000140088220     picomodel:pm_obj.obj
 0002:00002238       ??_C@_0BK@JMKBOJCB@Vertex?5index?5out?5of?5range?$AA@ 0000000140088238     picomodel:pm_obj.obj
 0002:00002258       ??_C@_0BM@LFADPAPF@UV?5coord?5index?5out?5of?5range?$AA@ 0000000140088258     picomodel:pm_obj.obj
 0002:00002278       ??_C@_0BK@EALDIAOG@Normal?5index?5out?5of?5range?$AA@ 0000000140088278     picomodel:pm_obj.obj
 0002:00002298       ??_C@_0BJ@BLNHKHFI@Error?5allocating?5surface?$AA@ 0000000140088298     picomodel:pm_obj.obj
 0002:000022b8       ??_C@_0CC@MCIHIGAM@Realloc?5of?5vertex?5data?5failed?5?$CI3@ 00000001400882b8     picomodel:pm_obj.obj
 0002:000022e0       ??_C@_0BK@CPEONCMB@Vertex?5normal?5parse?5error?$AA@ 00000001400882e0     picomodel:pm_obj.obj
 0002:00002300       ??_C@_0CC@MDEFOMDL@Realloc?5of?5vertex?5data?5failed?5?$CI2@ 0000000140088300     picomodel:pm_obj.obj
 0002:00002328       ??_C@_0BF@OBLLJONC@UV?5coord?5parse?5error?$AA@ 0000000140088328     picomodel:pm_obj.obj
 0002:00002340       ??_C@_0CC@MBADFCGC@Realloc?5of?5vertex?5data?5failed?5?$CI1@ 0000000140088340     picomodel:pm_obj.obj
 0002:00002368       ??_C@_0BE@PDBDLBLH@?$CFs?5in?5OBJ?0?5line?5?$CFd?4?$AA@ 0000000140088368     picomodel:pm_obj.obj
 0002:00002380       ??_C@_0BD@NINFNIBA@Vertex?5parse?5error?$AA@ 0000000140088380     picomodel:pm_obj.obj
 0002:00002394       ??_C@_05LCKIIOJE@?$CFd?1?$CFd?$AA@ 0000000140088394     picomodel:pm_obj.obj
 0002:000023a0       ??_C@_08EAFBBLEB@?$CFd?1?$CFd?1?$CFd?$AA@ 00000001400883a0     picomodel:pm_obj.obj
 0002:000023ac       ??_C@_06OIKEFGOD@?$CFd?1?1?$CFd?$AA@ 00000001400883ac     picomodel:pm_obj.obj
 0002:000023b4       ??_C@_01INIBCBCB@f?$AA@    00000001400883b4     picomodel:pm_obj.obj
 0002:000023b8       ??_C@_02KLLMHECG@vn?$AA@   00000001400883b8     picomodel:pm_obj.obj
 0002:000023bc       ??_C@_02BLJBIOPN@vt?$AA@   00000001400883bc     picomodel:pm_obj.obj
 0002:000023c0       ??_C@_0M@DJHNCEHC@picoterrain?$AA@ 00000001400883c0     picomodel:pm_terrain.obj
 0002:000023d0       ??_C@_0BC@MKEHJENN@2003?5Randy?5Reddig?$AA@ 00000001400883d0     picomodel:pm_terrain.obj
 0002:000023e8       ??_C@_0N@MENMPKN@Randy?5Reddig?$AA@ 00000001400883e8     picomodel:pm_terrain.obj
 0002:000023f8       ??_C@_0M@NIDKJNNM@PicoTerrain?$AA@ 00000001400883f8     picomodel:pm_terrain.obj
 0002:00002404       ??_C@_03FAJELBPN@1?43?$AA@ 0000000140088404     picomodel:pm_terrain.obj
 0002:00002410       picoModuleTerrain          0000000140088410     picomodel:pm_terrain.obj
 0002:00002470       ??_C@_0DM@MNKGHENE@Only?532?5or?524?5bit?5TGA?5images?5sup@ 0000000140088470     picomodel:pm_terrain.obj
 0002:000024b0       ??_C@_0CI@EILFKDHO@Indexed?5color?5TGA?5images?5not?5sup@ 00000001400884b0     picomodel:pm_terrain.obj
 0002:000024e0       ??_C@_0EA@OOMKOOIK@Only?5type?52?5?$CIRGB?$CJ?0?53?5?$CIgray?$CJ?0?5and@ 00000001400884e0     picomodel:pm_terrain.obj
 0002:00002520       ??_C@_0CJ@BBHMMFHG@PicoTerrain?5model?5with?5invalid?5h@ 0000000140088520     picomodel:pm_terrain.obj
 0002:00002550       ??_C@_0CG@DJJADFJI@Unable?5to?5allocate?5a?5new?5model?5s@ 0000000140088550     picomodel:pm_terrain.obj
 0002:00002578       ??_C@_0CH@INGKJEOK@Unable?5to?5allocate?5a?5new?5model?5s@ 0000000140088578     picomodel:pm_terrain.obj
 0002:000025a0       ??_C@_0BP@COAJEIEO@Unable?5to?5allocate?5a?5new?5model?$AA@ 00000001400885a0     picomodel:pm_terrain.obj
 0002:000025c0       ??_C@_0CN@LJFKKALO@PicoTerrain?5colormap?1heightmap?5s@ 00000001400885c0     picomodel:pm_terrain.obj
 0002:000025f0       ??_C@_08OMBDDLKJ@colormap?$AA@ 00000001400885f0     picomodel:pm_terrain.obj
 0002:00002600       ??_C@_09OJHOCBK@heightmap?$AA@ 0000000140088600     picomodel:pm_terrain.obj
 0002:00002610       ??_C@_0BK@EDFGCBAA@Invalid?5PicoTerrain?5model?$AA@ 0000000140088610     picomodel:pm_terrain.obj
 0002:0000262c       ??_C@_03BMJAGBOF@lwo?$AA@  000000014008862c     picomodel:pm_lwo.obj
 0002:00002630       ??_C@_0CI@PHLCFBDN@2003?5Arnout?5van?5Meer?0?52000?5Ernie@ 0000000140088630     picomodel:pm_lwo.obj
 0002:00002658       ??_C@_0BA@FCFBBIPJ@Arnout?5van?5Meer?$AA@ 0000000140088658     picomodel:pm_lwo.obj
 0002:00002668       ??_C@_0BB@OCCJOOME@LightWave?5Object?$AA@ 0000000140088668     picomodel:pm_lwo.obj
 0002:00002680       picoModuleLWO              0000000140088680     picomodel:pm_lwo.obj
 0002:000026e0       ??_C@_03EKLFPLOI@n?1a?$AA@ 00000001400886e0     picomodel:pm_lwo.obj
 0002:000026e8       ??_C@_0CM@BJNAHJDK@Invalid?5or?5out?9of?9range?5LWO?5fram@ 00000001400886e8     picomodel:pm_lwo.obj
 0002:00002718       ??_C@_0BO@HNBKPJFO@Unable?5to?5allocate?5hash?5table?$AA@ 0000000140088718     picomodel:pm_lwo.obj
 0002:00002738       ??_C@_0CL@OHFONKAN@Unable?5to?5allocate?5hash?5bucket?5e@ 0000000140088738     picomodel:pm_lwo.obj
 0002:00002768       ??_C@_0DO@COECIKFE@LWO?5loader?5discarded?5a?5polygon?5b@ 0000000140088768     picomodel:pm_lwo.obj
 0002:000027a8       ??_C@_0DO@NKLGIAII@LWO?5loader?5discarded?5a?5polygon?5b@ 00000001400887a8     picomodel:pm_lwo.obj
 0002:000027f0       ??_C@_0EH@LCDNHOHH@LWO?5loader?5discards?5any?5geometry@ 00000001400887f0     picomodel:pm_lwo.obj
 0002:00002838       ??_C@_0DH@FDNLKAAE@Couldn?8t?5load?5LWO?5file?0?5failed?5o@ 0000000140088838     picomodel:pm_lwo.obj
 0002:00002870       ??_C@_02JMLHIEJF@fm?$AA@   0000000140088870     picomodel:pm_fm.obj
 0002:00002878       ??_C@_0M@BDHGKDPF@2003?5Nurail?$AA@ 0000000140088878     picomodel:pm_fm.obj
 0002:00002884       ??_C@_06KDIOEFBK@Nurail?$AA@ 0000000140088884     picomodel:pm_fm.obj
 0002:00002890       ??_C@_0N@KDHODKEA@Heretic?52?5FM?$AA@ 0000000140088890     picomodel:pm_fm.obj
 0002:000028a0       ??_C@_04FAFIBOPH@0?485?$AA@ 00000001400888a0     picomodel:pm_fm.obj
 0002:000028b0       picoModuleFM               00000001400888b0     picomodel:pm_fm.obj
 0002:00002910       ??_C@_06OLAPKHEJ@frames?$AA@ 0000000140088910     picomodel:pm_fm.obj
 0002:00002918       ??_C@_04LHKNPMGA@tris?$AA@ 0000000140088918     picomodel:pm_fm.obj
 0002:00002920       ??_C@_08JHNMNKBH@st?5coord?$AA@ 0000000140088920     picomodel:pm_fm.obj
 0002:0000292c       ??_C@_06MBPAJAPM@header?$AA@ 000000014008892c     picomodel:pm_fm.obj
 0002:00002938       ??_C@_0CL@MHMDGJPN@Invalid?5or?5out?9of?9range?5FM?5frame@ 0000000140088938     picomodel:pm_fm.obj
 0002:00002968       ??_C@_0BL@OJCDLBIP@?5Not?5all?5LL?5mallocs?5freed?6?$AA@ 0000000140088968     picomodel:pm_fm.obj
 0002:00002988       ??_C@_0BM@FLAOMNAH@?5Couldn?8t?5allocate?5memory?$CB?6?$AA@ 0000000140088988     picomodel:pm_fm.obj
 0002:000029a8       ??_C@_0BB@NIHEGECL@?$CFs?5has?50?5frames?$CB?$AA@ 00000001400889a8     picomodel:pm_fm.obj
 0002:000029c0       ??_C@_0BM@GBBBCCKF@FM?5Frame?5Version?5incorrect?6?$AA@ 00000001400889c0     picomodel:pm_fm.obj
 0002:000029e0       ??_C@_0BK@DNJLIGLE@FM?5Frame?5Ident?5incorrect?6?$AA@ 00000001400889e0     picomodel:pm_fm.obj
 0002:00002a00       ??_C@_0BK@HOMHFHPE@FM?5Tri?5Version?5incorrect?6?$AA@ 0000000140088a00     picomodel:pm_fm.obj
 0002:00002a20       ??_C@_0BI@HNLPGNHP@FM?5Tri?5Ident?5incorrect?6?$AA@ 0000000140088a20     picomodel:pm_fm.obj
 0002:00002a38       ??_C@_0BJ@NFGJMGCF@FM?5ST?5Version?5incorrect?6?$AA@ 0000000140088a38     picomodel:pm_fm.obj
 0002:00002a58       ??_C@_0BH@LLDKPJDD@FM?5ST?5Ident?5incorrect?6?$AA@ 0000000140088a58     picomodel:pm_fm.obj
 0002:00002a70       ??_C@_0BL@MBCINFFL@FM?5Skin?5Version?5incorrect?6?$AA@ 0000000140088a70     picomodel:pm_fm.obj
 0002:00002a90       ??_C@_0BJ@CLAAIDNJ@FM?5Skin?5Ident?5incorrect?6?$AA@ 0000000140088a90     picomodel:pm_fm.obj
 0002:00002ab0       ??_C@_0BN@GNGOOHJN@FM?5Header?5Version?5incorrect?6?$AA@ 0000000140088ab0     picomodel:pm_fm.obj
 0002:00002ad0       ??_C@_0BL@OPLLMLMH@FM?5Header?5Ident?5incorrect?6?$AA@ 0000000140088ad0     picomodel:pm_fm.obj
 0002:00002aec       ??_C@_03LFFJDILA@md2?$AA@  0000000140088aec     picomodel:pm_md2.obj
 0002:00002af0       ??_C@_0M@GAMKEOBJ@Quake?52?5MD2?$AA@ 0000000140088af0     picomodel:pm_md2.obj
 0002:00002afc       ??_C@_05ICDMCJHJ@0?4875?$AA@ 0000000140088afc     picomodel:pm_md2.obj
 0002:00002b10       picoModuleMD2              0000000140088b10     picomodel:pm_md2.obj
 0002:00002b70       ??_C@_0BH@EOOOMHIO@?$CFs?5is?5not?5an?5MD2?5File?$CB?$AA@ 0000000140088b70     picomodel:pm_md2.obj
 0002:00002b88       ??_C@_0CM@PGGAKEHM@Invalid?5or?5out?9of?9range?5MD2?5fram@ 0000000140088b88     picomodel:pm_md2.obj
 0002:00002bc0       ??_C@_0EJ@DKNAOPPO@Skins?3?5?$CFd?5?5Verts?3?5?$CFd?5?5STs?3?5?$CFd?5?5T@ 0000000140088bc0     picomodel:pm_md2.obj
 0002:00002c0c       ??_C@_03BGPJFEKF@mdc?$AA@  0000000140088c0c     picomodel:pm_mdc.obj
 0002:00002c10       ??_C@_0BF@FAGIKLAP@2002?5Arnout?5van?5Meer?$AA@ 0000000140088c10     picomodel:pm_mdc.obj
 0002:00002c28       ??_C@_08NFINMFO@RtCW?5MDC?$AA@ 0000000140088c28     picomodel:pm_mdc.obj
 0002:00002c40       picoModuleMDC              0000000140088c40     picomodel:pm_mdc.obj
 0002:00002ca0       ??_C@_0CM@NAFKIGNF@Invalid?5or?5out?9of?9range?5MDC?5fram@ 0000000140088ca0     picomodel:pm_mdc.obj
 0002:00002cd0       __real@3f9921fb54442d18    0000000140088cd0     picomodel:pm_mdc.obj
 0002:00002cd8       __real@3c800000            0000000140088cd8     picomodel:pm_mdc.obj
 0002:00002ce0       ??_C@_0BC@KKOGJDMN@MDC?5with?50?5frames?$AA@ 0000000140088ce0     picomodel:pm_mdc.obj
 0002:00002cf4       ??_C@_04GEJEBAG@ms3d?$AA@  0000000140088cf4     picomodel:pm_ms3d.obj
 0002:00002d00       ??_C@_0N@GDADGNAM@Milkshape?53D?$AA@ 0000000140088d00     picomodel:pm_ms3d.obj
 0002:00002d10       ??_C@_05HIMCIDH@0?44?9a?$AA@ 0000000140088d10     picomodel:pm_ms3d.obj
 0002:00002d20       picoModuleMS3D             0000000140088d20     picomodel:pm_ms3d.obj
 0002:00002d80       ??_C@_0DH@LLAHPAHJ@MS3D?5file?5ignored?4?5Only?5MS3D?51?43@ 0000000140088d80     picomodel:pm_ms3d.obj
 0002:00002db8       ??_C@_0L@GHNCCGAL@MS3D000000?$AA@ 0000000140088db8     picomodel:pm_ms3d.obj
 0002:00002dc8       ??_C@_0BO@FFDCEJCE@Mapped?3?5?$CFd?5?$CI?8?$CFs?8?$CJ?5to?5?$CFd?5?$CI?$CFs?$CJ?6?$AA@ 0000000140088dc8     picomodel:pm_ms3d.obj
 0002:00002de8       ??_C@_0BP@NLEFNKCA@Material?5?$CFd?3?5?8?$CFs?8?5?$CI?8?$CFs?8?0?8?$CFs?8?$CJ?6?$AA@ 0000000140088de8     picomodel:pm_ms3d.obj
 0002:00002e08       ??_C@_0BC@KKFDCEMG@NumMaterials?3?5?$CFd?6?$AA@ 0000000140088e08     picomodel:pm_ms3d.obj
 0002:00002e20       ??_C@_0BK@KLNIEEAG@Group?5?$CFd?3?5?8?$CFs?8?5?$CI?$CFd?5tris?$CJ?6?$AA@ 0000000140088e20     picomodel:pm_ms3d.obj
 0002:00002e40       ??_C@_0CN@GLOJKCGH@Vertex?5?$CFd?5index?5?$CFd?5out?5of?5range?5@ 0000000140088e40     picomodel:pm_ms3d.obj
 0002:00002e70       ??_C@_0P@GHPHBAKB@NumGroups?3?5?$CFd?6?$AA@ 0000000140088e70     picomodel:pm_ms3d.obj
 0002:00002e80       ??_C@_0BC@CGJINCEJ@NumTriangles?3?5?$CFd?6?$AA@ 0000000140088e80     picomodel:pm_ms3d.obj
 0002:00002e98       ??_C@_0BB@DAIIDELL@NumVertices?3?5?$CFd?6?$AA@ 0000000140088e98     picomodel:pm_ms3d.obj
 0002:00002eb0       ??_C@_0BP@DEGPAHBN@2003?5Jared?5Hefty?0?52002?5seaw0lf?$AA@ 0000000140088eb0     picomodel:pm_ase.obj
 0002:00002ed0       ??_C@_0BF@PODFEGPB@Jared?5Hefty?0?5seaw0lf?$AA@ 0000000140088ed0     picomodel:pm_ase.obj
 0002:00002ee8       ??_C@_0BG@KFPFFFGD@Autodesk?53DSMAX?5ASCII?$AA@ 0000000140088ee8     picomodel:pm_ase.obj
 0002:00002f00       picoModuleASE              0000000140088f00     picomodel:pm_ase.obj
 0002:00002f60       ??_C@_0CD@KIBHLBPK@No?5ASE?5material?5exists?5with?5id?5?$CF@ 0000000140088f60     picomodel:pm_ase.obj
 0002:00002f88       ??_C@_0DC@MHLGKOFE@Could?5not?5find?5material?1submater@ 0000000140088f88     picomodel:pm_ase.obj
 0002:00002fc0       ??_C@_0BE@KFNBAHIC@?$CK3dsmax_asciiexport?$AA@ 0000000140088fc0     picomodel:pm_ase.obj
 0002:00002fd8       ??_C@_0BP@ECOIBMLF@Material?5missing?5opening?5brace?$AA@ 0000000140088fd8     picomodel:pm_ase.obj
 0002:00002ff8       ??_C@_0CB@LFDDNPAB@Missing?5material?5map?5bitmap?5name@ 0000000140088ff8     picomodel:pm_ase.obj
 0002:00003020       ??_C@_0BL@IKOEMHEO@Material?5color?5parse?5error?$AA@ 0000000140089020     picomodel:pm_ase.obj
 0002:00003040       ??_C@_0BL@EEAIHHEP@Material?5shine?5parse?5error?$AA@ 0000000140089040     picomodel:pm_ase.obj
 0002:00003060       ??_C@_0CC@IMDCJGCC@Material?5transparency?5parse?5erro@ 0000000140089060     picomodel:pm_ase.obj
 0002:00003088       ??_C@_0BG@CKMDFIKG@Missing?5material?5name?$AA@ 0000000140089088     picomodel:pm_ase.obj
 0002:000030a0       ??_C@_0BJ@BBLJEILG@Color?5Vertex?5parse?5error?$AA@ 00000001400890a0     picomodel:pm_ase.obj
 0002:000030c0       ??_C@_0BJ@DHDNDOKC@Color?5vertex?5parse?5error?$AA@ 00000001400890c0     picomodel:pm_ase.obj
 0002:000030e0       ??_C@_0BJ@BBEPGBDH@Texture?5face?5parse?5error?$AA@ 00000001400890e0     picomodel:pm_ase.obj
 0002:00003100       ??_C@_0BG@PHIEECBN@UV?5vertex?5parse?5error?$AA@ 0000000140089100     picomodel:pm_ase.obj
 0002:00003118       ??_C@_0CB@OEJHJOPP@Vertex?5parse?5error?5?$CIfacenormals?$CJ@ 0000000140089118     picomodel:pm_ase.obj
 0002:00003140       ??_C@_0BO@GHIGNFPD@Missing?5material?5reference?5ID?$AA@ 0000000140089140     picomodel:pm_ase.obj
 0002:00003160       ??_C@_0BO@CGCHBMIA@Missing?5MESH_NUMCVERTEX?5value?$AA@ 0000000140089160     picomodel:pm_ase.obj
 0002:00003180       ??_C@_0BO@CFFIIKCM@Missing?5MESH_NUMTVERTEX?5value?$AA@ 0000000140089180     picomodel:pm_ase.obj
 0002:000031a0       ??_C@_0BM@HMLOECBD@Missing?5MESH_NUMFACES?5value?$AA@ 00000001400891a0     picomodel:pm_ase.obj
 0002:000031c0       ??_C@_0BN@LLEDCMKC@Missing?5MESH_NUMVERTEX?5value?$AA@ 00000001400891c0     picomodel:pm_ase.obj
 0002:000031e0       ??_C@_0BG@CNMMELLP@Node?5name?5parse?5error?$AA@ 00000001400891e0     picomodel:pm_ase.obj
 0002:000031f8       ??_C@_04KFPCKHMN@doom?$AA@ 00000001400891f8     picomodel:pm_ase.obj
 0002:00003200       ??_C@_07GCINOMGG@?$CKbitmap?$AA@ 0000000140089200     picomodel:pm_ase.obj
 0002:00003208       ??_C@_0N@JFCDGLBH@?$CKmap_diffuse?$AA@ 0000000140089208     picomodel:pm_ase.obj
 0002:00003218       ??_C@_0BD@OBKEHHKC@?$CKmaterial_specular?$AA@ 0000000140089218     picomodel:pm_ase.obj
 0002:00003230       ??_C@_0BC@KNLOJHOD@?$CKmaterial_diffuse?$AA@ 0000000140089230     picomodel:pm_ase.obj
 0002:00003248       ??_C@_0BC@BPOOCMPP@?$CKmaterial_ambient?$AA@ 0000000140089248     picomodel:pm_ase.obj
 0002:00003260       ??_C@_0BA@DPPCNOCG@?$CKmaterial_shine?$AA@ 0000000140089260     picomodel:pm_ase.obj
 0002:00003270       ??_C@_0BH@BJJMPGII@?$CKmaterial_transparency?$AA@ 0000000140089270     picomodel:pm_ase.obj
 0002:00003288       ??_C@_0P@HLIFADNP@?$CKmaterial_name?$AA@ 0000000140089288     picomodel:pm_ase.obj
 0002:00003298       ??_C@_0N@MEALMPML@?$CKsubmaterial?$AA@ 0000000140089298     picomodel:pm_ase.obj
 0002:000032a8       ??_C@_09PABICGAN@?$CKmaterial?$AA@ 00000001400892a8     picomodel:pm_ase.obj
 0002:000032b8       ??_C@_0M@IMIMEGKG@?$CKmesh_cface?$AA@ 00000001400892b8     picomodel:pm_ase.obj
 0002:000032c8       ??_C@_0O@JKHLJKFJ@?$CKmesh_vertcol?$AA@ 00000001400892c8     picomodel:pm_ase.obj
 0002:000032d8       ??_C@_0M@JCFPHEIF@?$CKmesh_tface?$AA@ 00000001400892d8     picomodel:pm_ase.obj
 0002:000032e8       ??_C@_0M@DDOAJOAH@?$CKmesh_tvert?$AA@ 00000001400892e8     picomodel:pm_ase.obj
 0002:000032f8       ??_C@_0M@DDJAAEMC@?$CKMESH_MTLID?$AA@ 00000001400892f8     picomodel:pm_ase.obj
 0002:00003308       ??_C@_0BA@IJPCGNFJ@?$CKMESH_SMOOTHING?$AA@ 0000000140089308     picomodel:pm_ase.obj
 0002:00003318       ??_C@_0L@GCALAEKI@?$CKmesh_face?$AA@ 0000000140089318     picomodel:pm_ase.obj
 0002:00003328       ??_C@_0O@JJLAGCDG@?$CKmesh_normals?$AA@ 0000000140089328     picomodel:pm_ase.obj
 0002:00003338       ??_C@_0BD@JFKOLNII@?$CKmesh_vertexnormal?$AA@ 0000000140089338     picomodel:pm_ase.obj
 0002:00003350       ??_C@_0BB@HELFDOPG@?$CKmesh_facenormal?$AA@ 0000000140089350     picomodel:pm_ase.obj
 0002:00003368       ??_C@_0N@IBCDDKNG@?$CKmesh_vertex?$AA@ 0000000140089368     picomodel:pm_ase.obj
 0002:00003378       ??_C@_0O@PHMCHNCN@?$CKmaterial_ref?$AA@ 0000000140089378     picomodel:pm_ase.obj
 0002:00003388       ??_C@_0BO@POLFOKHN@Missing?5MESH_NUMCVFACES?5value?$AA@ 0000000140089388     picomodel:pm_ase.obj
 0002:000033a8       ??_C@_0BB@JAGMJDHG@?$CKmesh_numcvfaces?$AA@ 00000001400893a8     picomodel:pm_ase.obj
 0002:000033c0       ??_C@_0BB@BPICLKGH@?$CKmesh_numcvertex?$AA@ 00000001400893c0     picomodel:pm_ase.obj
 0002:000033d8       ??_C@_0BE@CDINAEBJ@?$CFs?5in?5ASE?0?5line?5?$CFd?4?$AA@ 00000001400893d8     picomodel:pm_ase.obj
 0002:000033f0       ??_C@_0BO@PNMKHMNB@Missing?5MESH_NUMTVFACES?5value?$AA@ 00000001400893f0     picomodel:pm_ase.obj
 0002:00003410       ??_C@_0BB@OGBCKLEE@?$CKmesh_numtvfaces?$AA@ 0000000140089410     picomodel:pm_ase.obj
 0002:00003428       ??_C@_0BB@GJPMICFF@?$CKmesh_numtvertex?$AA@ 0000000140089428     picomodel:pm_ase.obj
 0002:00003440       ??_C@_0P@JNNDPBFN@?$CKmesh_numfaces?$AA@ 0000000140089440     picomodel:pm_ase.obj
 0002:00003450       ??_C@_0BA@KDGAICJE@?$CKmesh_numvertex?$AA@ 0000000140089450     picomodel:pm_ase.obj
 0002:00003460       ??_C@_05HOMDPLGH@?$CKmesh?$AA@ 0000000140089460     picomodel:pm_ase.obj
 0002:00003468       ??_C@_0L@DBFFAKAM@?$CKnode_name?$AA@ 0000000140089468     picomodel:pm_ase.obj
 0002:00003474       ??_C@_03HHOJDOGF@3ds?$AA@  0000000140089474     picomodel:pm_3ds.obj
 0002:00003478       ??_C@_0BC@HOFMLILG@Autodesk?53Dstudio?$AA@ 0000000140089478     picomodel:pm_3ds.obj
 0002:0000348c       ??_C@_06NEBJGJDJ@0?486?9b?$AA@ 000000014008948c     picomodel:pm_3ds.obj
 0002:000034a0       picoModule3DS              00000001400894a0     picomodel:pm_3ds.obj
 0002:00003500       ??_C@_0CA@CDKABFBP@3DS?5mesh?5is?5missing?5shader?5name?$AA@ 0000000140089500     picomodel:pm_3ds.obj
 0002:00003520       ??_C@_0BI@LDJBDGNA@models?1mapobjects?1?$CFs?1?$CFs?$AA@ 0000000140089520     picomodel:pm_3ds.obj
 0002:00003538       ??_C@_0DA@FEEFDPII@3DS?5version?5is?54?4?5Model?5might?5lo@ 0000000140089538     picomodel:pm_3ds.obj
 0002:00003568       ??_C@_03KMECAJPB@md3?$AA@  0000000140089568     picomodel:pm_md3.obj
 0002:00003570       ??_C@_0BC@HDLMEPDF@2002?5Randy?5Reddig?$AA@ 0000000140089570     picomodel:pm_md3.obj
 0002:00003588       ??_C@_0O@PHBIKDFB@Quake?53?5Arena?$AA@ 0000000140089588     picomodel:pm_md3.obj
 0002:000035a0       picoModuleMD3              00000001400895a0     picomodel:pm_md3.obj
 0002:00003600       ??_C@_0CM@BJDCBCJN@Invalid?5or?5out?9of?9range?5MD3?5fram@ 0000000140089600     picomodel:pm_md3.obj
 0002:00003630       ??_C@_0BC@HFIACANE@MD3?5with?50?5frames?$AA@ 0000000140089630     picomodel:pm_md3.obj
 0002:00003648       ??_C@_0L@CAPFCNHL@?$CIsequence?$CJ?$AA@ 0000000140089648     picomodel:lwob.obj
 0002:00003658       ??_C@_0L@HNFGPOPK@Position?4X?$AA@ 0000000140089658     picomodel:lwob.obj
 0002:00003664       __real@41f00000            0000000140089664     picomodel:lwob.obj
 0002:00003668       ??_C@_05HOHBLJAP@Front?$AA@ 0000000140089668     picomodel:lwob.obj
 0002:00003670       ??_C@_05GODKLOGC@Cubic?$AA@ 0000000140089670     picomodel:lwob.obj
 0002:00003678       ??_C@_09BPHDNFPM@Spherical?$AA@ 0000000140089678     picomodel:lwob.obj
 0002:00003688       ??_C@_0M@LMDNFNDP@Cylindrical?$AA@ 0000000140089688     picomodel:lwob.obj
 0002:00003694       ??_C@_06BFMHGCLJ@Planar?$AA@ 0000000140089694     picomodel:lwob.obj
 0002:000036a0       ??_C@_09BHAKOGLC@Image?5Map?$AA@ 00000001400896a0     picomodel:lwob.obj
 0002:000036ac       __real@3d44f9e3            00000001400896ac     picomodel:lwob.obj
 0002:000036b0       ??_C@_0N@KDJFPOGB@IncDrawVerts?$AA@ 00000001400896b0     bspfile_abstract.obj
 0002:000036c0       ??_C@_0CA@GKJOOLIB@realloc?$CI?$CJ?5failed?5?$CIIncDrawVerts?$CJ?$AA@ 00000001400896c0     bspfile_abstract.obj
 0002:000036e0       ??_C@_0BA@ECMAGCEJ@IncDrawSurfaces?$AA@ 00000001400896e0     bspfile_abstract.obj
 0002:000036f0       ??_C@_0DJ@LHEJEBBL@WARNING?3?5GetLumpElements?3?5odd?5lu@ 00000001400896f0     bspfile_abstract.obj
 0002:00003730       ??_C@_0CP@DAJNFHLC@GetLumpElements?3?5odd?5lump?5size?5?$CI@ 0000000140089730     bspfile_abstract.obj
 0002:00003760       ??_C@_0DC@KEFOJDGO@WARNING?3?5CopyLump?3?5odd?5lump?5size@ 0000000140089760     bspfile_abstract.obj
 0002:00003798       ??_C@_0CI@LLEAALGC@CopyLump?3?5odd?5lump?5size?5?$CI?$CFd?$CJ?5in?5@ 0000000140089798     bspfile_abstract.obj
 0002:000037c0       ??_C@_0CJ@EILJKGAG@LoadBSPFile?3?5unsupported?5BSP?5fil@ 00000001400897c0     bspfile_abstract.obj
 0002:000037f0       ??_C@_0CK@NHOIPNAA@WriteBSPFile?3?5unsupported?5BSP?5fi@ 00000001400897f0     bspfile_abstract.obj
 0002:00003820       ??_C@_07GKHNNJPF@?$CFs?4?$CF08X?$AA@ 0000000140089820     bspfile_abstract.obj
 0002:00003828       ??_C@_0DL@MJHKCGAF@Abstracted?5BSP?5file?5components?5?$CI@ 0000000140089828     bspfile_abstract.obj
 0002:00003868       ??_C@_0BH@IPLCFKDB@?$CF9d?5models?5?5?5?5?5?5?5?5?$CF9d?6?$AA@ 0000000140089868     bspfile_abstract.obj
 0002:00003880       ??_C@_0BH@OMFIKNHC@?$CF9d?5shaders?5?5?5?5?5?5?5?$CF9d?6?$AA@ 0000000140089880     bspfile_abstract.obj
 0002:00003898       ??_C@_0BH@JECIBDEO@?$CF9d?5brushes?5?5?5?5?5?5?5?$CF9d?6?$AA@ 0000000140089898     bspfile_abstract.obj
 0002:000038b0       ??_C@_0BJ@MPHHLEBG@?$CF9d?5brushsides?5?5?5?5?$CF9d?5?$CK?6?$AA@ 00000001400898b0     bspfile_abstract.obj
 0002:000038d0       ??_C@_0BH@BHANPBDM@?$CF9d?5fogs?5?5?5?5?5?5?5?5?5?5?$CF9d?6?$AA@ 00000001400898d0     bspfile_abstract.obj
 0002:000038e8       ??_C@_0BH@JJFKPMDI@?$CF9d?5planes?5?5?5?5?5?5?5?5?$CF9d?6?$AA@ 00000001400898e8     bspfile_abstract.obj
 0002:00003900       ??_C@_0BH@CJKAGJFL@?$CF9d?5entdata?5?5?5?5?5?5?5?$CF9d?6?$AA@ 0000000140089900     bspfile_abstract.obj
 0002:00003918       ??_C@_01EEMJAFIK@?6?$AA@   0000000140089918     bspfile_abstract.obj
 0002:00003920       ??_C@_0BH@GHGEGOAM@?$CF9d?5nodes?5?5?5?5?5?5?5?5?5?$CF9d?6?$AA@ 0000000140089920     bspfile_abstract.obj
 0002:00003938       ??_C@_0BH@NMDDPFAM@?$CF9d?5leafs?5?5?5?5?5?5?5?5?5?$CF9d?6?$AA@ 0000000140089938     bspfile_abstract.obj
 0002:00003950       ??_C@_0BH@OEPEAIDH@?$CF9d?5leafsurfaces?5?5?$CF9d?6?$AA@ 0000000140089950     bspfile_abstract.obj
 0002:00003968       ??_C@_0BH@OHEIPLPI@?$CF9d?5leafbrushes?5?5?5?$CF9d?6?$AA@ 0000000140089968     bspfile_abstract.obj
 0002:00003980       ??_C@_0BJ@HLOHEGCN@?$CF9d?5drawsurfaces?5?5?$CF9d?5?$CK?6?$AA@ 0000000140089980     bspfile_abstract.obj
 0002:000039a0       ??_C@_0BJ@IICIJCIJ@?$CF9d?5drawverts?5?5?5?5?5?$CF9d?5?$CK?6?$AA@ 00000001400899a0     bspfile_abstract.obj
 0002:000039c0       ??_C@_0BH@NPNKOHDJ@?$CF9d?5drawindexes?5?5?5?$CF9d?6?$AA@ 00000001400899c0     bspfile_abstract.obj
 0002:000039d8       ??_C@_0BH@JHACOMBC@?$CF9d?5lightmaps?5?5?5?5?5?$CF9d?6?$AA@ 00000001400899d8     bspfile_abstract.obj
 0002:000039f0       ??_C@_0BJ@HBMOABNA@?$CF9d?5lightgrid?5?5?5?5?5?$CF9d?5?$CK?6?$AA@ 00000001400899f0     bspfile_abstract.obj
 0002:00003a10       ??_C@_0BN@GIDDCKED@?5?5?5?5?5?5?5?5?5?5visibility?5?5?5?5?$CF9d?6?$AA@ 0000000140089a10     bspfile_abstract.obj
 0002:00003a30       ??_C@_0BF@PBACIDFI@?5?9?9?9?5BSP?5models?5?9?9?9?6?$AA@ 0000000140089a30     bspfile_abstract.obj
 0002:00003a48       ??_C@_0CL@HAFGGAGH@modelno?5?3?5brushes?5?5drawsurfs?5?5fi@ 0000000140089a48     bspfile_abstract.obj
 0002:00003a78       ??_C@_0BJ@DDGIEILN@?$CK?$CF4i?5?5?3?5?$CF4i?5?5?5?$CF4i?5?5?5?$CFs?5?6?$AA@ 0000000140089a78     bspfile_abstract.obj
 0002:00003a98       ??_C@_0BK@KNIIEFHO@?4?4?2src?2bspfile_abstract?4c?$AA@ 0000000140089a98     bspfile_abstract.obj
 0002:00003ab8       ??_C@_0BL@MPIHAIFO@ParseEPair?3?5token?5too?5long?$AA@ 0000000140089ab8     bspfile_abstract.obj
 0002:00003ad8       ??_C@_0BK@IGGDCDAB@ParseEpar?3?5token?5too?5long?$AA@ 0000000140089ad8     bspfile_abstract.obj
 0002:00003af4       ??_C@_01HCONENDN@?$HL?$AA@ 0000000140089af4     bspfile_abstract.obj
 0002:00003af8       ??_C@_0BJ@FJKNDMCD@ParseEntity?3?5?$HL?5not?5found?$AA@ 0000000140089af8     bspfile_abstract.obj
 0002:00003b18       ??_C@_0CA@PJMFIHFG@numEntities?5?$DN?$DN?5MAX_MAP_ENTITIES?$AA@ 0000000140089b18     bspfile_abstract.obj
 0002:00003b38       ??_C@_0CH@DFFBFKCE@ParseEntity?3?5EOF?5without?5closing@ 0000000140089b38     bspfile_abstract.obj
 0002:00003b60       ??_C@_01CELHOKLL@?$HN?$AA@ 0000000140089b60     bspfile_abstract.obj
 0002:00003b68       ??_C@_09CNJINBGN@classname?$AA@ 0000000140089b68     bspfile_abstract.obj
 0002:00003b78       ??_C@_0L@PMAFMKKM@misc_model?$AA@ 0000000140089b78     bspfile_abstract.obj
 0002:00003b84       ??_C@_06NMHHNBPP@_decal?$AA@ 0000000140089b84     bspfile_abstract.obj
 0002:00003b90       ??_C@_0L@LGEBDKA@misc_decal?$AA@ 0000000140089b90     bspfile_abstract.obj
 0002:00003ba0       ??_C@_07GIOIDGAG@_skybox?$AA@ 0000000140089ba0     bspfile_abstract.obj
 0002:00003ba8       ??_C@_0M@JDOLGJKB@misc_skybox?$AA@ 0000000140089ba8     bspfile_abstract.obj
 0002:00003bb4       ??_C@_02KCPFEJNG@?$HL?6?$AA@ 0000000140089bb4     bspfile_abstract.obj
 0002:00003bb8       ??_C@_01IDAFKMJL@_?$AA@    0000000140089bb8     bspfile_abstract.obj
 0002:00003bc0       ??_C@_0L@KFNFGCAJ@?$CC?$CFs?$CC?5?$CC?$CFs?$CC?6?$AA@ 0000000140089bc0     bspfile_abstract.obj
 0002:00003bcc       ??_C@_02KGHIDFGE@?$HN?6?$AA@ 0000000140089bcc     bspfile_abstract.obj
 0002:00003bd0       ??_C@_0BF@KIJEKCEJ@Entity?5text?5too?5long?$AA@ 0000000140089bd0     bspfile_abstract.obj
 0002:00003be5       ??_C@_00CNPNBAHC@?$AA@     0000000140089be5     bspfile_abstract.obj
 0002:00003be8       ??_C@_0M@HBEEPJK@?$CFlf?5?$CFlf?5?$CFlf?$AA@ 0000000140089be8     bspfile_abstract.obj
 0002:00003bf8       ??_C@_0L@FEPNPAJD@targetname?$AA@ 0000000140089bf8     bspfile_abstract.obj
 0002:00003c08       ??_C@_0N@FKNFEIBL@_castShadows?$AA@ 0000000140089c08     bspfile_abstract.obj
 0002:00003c18       ??_C@_03DFGGAFL@_cs?$AA@   0000000140089c18     bspfile_abstract.obj
 0002:00003c20       ??_C@_0BA@MMKCONOM@_receiveShadows?$AA@ 0000000140089c20     bspfile_abstract.obj
 0002:00003c30       ??_C@_03BOLCKJBM@_rs?$AA@  0000000140089c30     bspfile_abstract.obj
 0002:00003c38       ??_C@_0BG@IHBFAALG@?4?4?2src?2bspfile_ibsp?4c?$AA@ 0000000140089c38     bspfile_ibsp.obj
 0002:00003c50       ??_C@_0BE@DKNKKIGM@?$CFs?5is?5not?5a?5?$CFs?5file?$AA@ 0000000140089c50     bspfile_ibsp.obj
 0002:00003c68       ??_C@_0BJ@BCLADKK@?$CFs?5is?5version?5?$CFd?0?5not?5?$CFd?$AA@ 0000000140089c68     bspfile_ibsp.obj
 0002:00003c84       ??_C@_05DOIEBMOI@1?41?44?$AA@ 0000000140089c84     bspfile_ibsp.obj
 0002:00003c90       ??_C@_0CA@ICOJIFIF@Compiled?5with?5BloodMap?5?$CFs?5on?5?$CFs?$AA@ 0000000140089c90     bspfile_ibsp.obj
 0002:00003cb0       ??_C@_0BK@FCIDGDEO@Wrote?5?$CF?41f?5MB?5?$CI?$CFd?5bytes?$CJ?6?$AA@ 0000000140089cb0     bspfile_ibsp.obj
 0002:00003cd0       ??_C@_0BG@OCMMMIIC@?4?4?2src?2bspfile_rbsp?4c?$AA@ 0000000140089cd0     bspfile_rbsp.obj
 0002:00003ce8       ??_C@_0BO@JBLPMIFF@Storing?5lightgrid?3?5?$CFd?5points?6?$AA@ 0000000140089ce8     bspfile_rbsp.obj
 0002:00003d08       ??_C@_0BD@NAGLALDL@?4?4?2src?2diskcache?4c?$AA@ 0000000140089d08     diskcache.obj
 0002:00003d20       ??_C@_0CN@BHJEEOGE@AllocateDiskPage?3?5bogus?5diskcach@ 0000000140089d20     diskcache.obj
 0002:00003d50       ??_C@_0CK@JNFLNKKI@AllocateDiskPage?3?5diskcache?5page@ 0000000140089d50     diskcache.obj
 0002:00003d80       ??_C@_0EP@JIIJFHLK@AllocateDiskPage?3?5already?5alloca@ 0000000140089d80     diskcache.obj
 0002:00003dd0       ??_C@_0CL@FPNCKIKP@SelectDiskPage?3?5bogus?5diskcache?5@ 0000000140089dd0     diskcache.obj
 0002:00003e00       ??_C@_0CD@GLODPLHK@SelectDiskPage?3?5page?5not?5allocat@ 0000000140089e00     diskcache.obj
 0002:00003e28       ??_C@_0CN@KHBJLJLP@DeselectDiskPage?3?5bogus?5diskcach@ 0000000140089e28     diskcache.obj
 0002:00003e58       ??_C@_0CF@GDNJLCLM@DeselectDiskPage?3?5page?5not?5alloc@ 0000000140089e58     diskcache.obj
 0002:00003e80       ??_C@_0CC@GHIOLFBL@DeselectDiskPage?3?5page?5not?5loade@ 0000000140089e80     diskcache.obj
 0002:00003ea8       ??_C@_0BO@CJAJEMFI@WARNING?3?5Invalid?5DDS?5texture?6?$AA@ 0000000140089ea8     image.obj
 0002:00003ed0       ??_C@_0FF@CDIADLHP@WARNING?3?5Only?5DDS?5texture?5format@ 0000000140089ed0     image.obj
 0002:00003f28       ??_C@_0P@DOPNHJKO@?4?4?2src?2image?4c?$AA@ 0000000140089f28     image.obj
 0002:00003f38       ??_C@_0BL@BPHHEEEC@WARNING?3?5Invalid?5PNG?5file?6?$AA@ 0000000140089f38     image.obj
 0002:00003f54       ??_C@_05EGBLHKBN@1?44?43?$AA@ 0000000140089f54     image.obj
 0002:00003f60       ??_C@_0CL@EADMMNH@WARNING?3?5Unable?5to?5create?5PNG?5re@ 0000000140089f60     image.obj
 0002:00003f90       ??_C@_0CL@PHIEJPNE@WARNING?3?5Unable?5to?5create?5PNG?5in@ 0000000140089f90     image.obj
 0002:00003fc0       ??_C@_0CP@JHCANENN@WARNING?3?5Unable?5to?5create?5PNG?5en@ 0000000140089fc0     image.obj
 0002:00003ff0       ??_C@_0CO@EAHAEGMK@WARNING?3?5An?5error?5occurred?5readi@ 0000000140089ff0     image.obj
 0002:00004020       ??_C@_08KPIGECMN@?$CKdefault?$AA@ 000000014008a020     image.obj
 0002:00004030       ??_C@_0FA@NGICIKHK@MAX_IMAGES?5?$CI?$CFd?$CJ?5exceeded?0?5there?5@ 000000014008a030     image.obj
 0002:00004080       ??_C@_04JCAPCJAP@?4tga?$AA@ 000000014008a080     image.obj
 0002:00004088       ??_C@_04EEOGCCFB@?4png?$AA@ 000000014008a088     image.obj
 0002:00004090       ??_C@_04GNPKBLNA@?4jpg?$AA@ 000000014008a090     image.obj
 0002:00004098       ??_C@_0BK@MGHPJHFN@WARNING?3?5LoadJPGBuff?3?5?$CFs?6?$AA@ 000000014008a098     image.obj
 0002:000040b4       ??_C@_04LIKELABK@?4dds?$AA@ 000000014008a0b4     image.obj
 0002:000040c0       ??_C@_08GLJEFHCJ@pf?5?$DN?5?$CFd?6?$AA@ 000000014008a0c0     image.obj
 0002:000040d0       ??_C@_0P@NMEOONGG@_converted?4tga?$AA@ 000000014008a0d0     image.obj
 0002:000040e0       ??_C@_0DG@FIIMAOLK@C?3?2games?2quake3?2baseq3?2textures?2@ 000000014008a0e0     image.obj
 0002:00004118       ??_C@_0CA@FNHMDGMD@IBSP?5LUMP_LIGHTMAPS?5?$CI512?5x?5512?$CJ?$AA@ 000000014008a118     main.obj
 0002:00004138       ??_C@_0CA@BKALDBKN@IBSP?5LUMP_LIGHTMAPS?5?$CI256?5x?5256?$CJ?$AA@ 000000014008a138     main.obj
 0002:00004158       ??_C@_0BE@GNJNCLAL@IBSP?5LUMP_LIGHTMAPS?$AA@ 000000014008a158     main.obj
 0002:00004170       ??_C@_0BG@KEKJPEBL@IBSP?5LUMP_DRAWINDEXES?$AA@ 000000014008a170     main.obj
 0002:00004188       ??_C@_0BE@DPDLOIJE@IBSP?5LUMP_DRAWVERTS?$AA@ 000000014008a188     main.obj
 0002:000041a0       ??_C@_0BE@BALEJJLL@IBSP?5LUMP_DRAWSURFS?$AA@ 000000014008a1a0     main.obj
 0002:000041b8       ??_C@_0BA@MKEEBBNC@IBSP?5LUMP_LEAFS?$AA@ 000000014008a1b8     main.obj
 0002:000041c8       ??_C@_0BA@PIKEOGBD@IBSP?5LUMP_NODES?$AA@ 000000014008a1c8     main.obj
 0002:000041d8       ??_C@_0BB@DDECBFHP@IBSP?5LUMP_MODELS?$AA@ 000000014008a1d8     main.obj
 0002:000041f0       ??_C@_0BF@FDPMAEEE@RBSP?5LUMP_BRUSHSIDES?$AA@ 000000014008a1f0     main.obj
 0002:00004208       ??_C@_0BF@EGPEJNDN@IBSP?5LUMP_BRUSHSIDES?$AA@ 000000014008a208     main.obj
 0002:00004220       ??_C@_0BC@DONFDEAE@IBSP?5LUMP_BRUSHES?$AA@ 000000014008a220     main.obj
 0002:00004238       ??_C@_0BB@KDOPKJCB@IBSP?5LUMP_PLANES?$AA@ 000000014008a238     main.obj
 0002:00004250       ??_C@_09DEDNEMGE@?4prophecy?$AA@ 000000014008a250     main.obj
 0002:00004260       ??_C@_08GACKADNP@prophecy?$AA@ 000000014008a260     main.obj
 0002:0000426c       ??_C@_04DDNPNPBG@?4dq?5?$AA@ 000000014008a26c     main.obj
 0002:00004274       ??_C@_06HGGCBHNH@basedq?$AA@ 000000014008a274     main.obj
 0002:0000427c       ??_C@_02HJEEANKG@dq?$AA@   000000014008a27c     main.obj
 0002:00004280       ??_C@_0N@BNCADJJC@?4darkplaces?5?$AA@ 000000014008a280     main.obj
 0002:00004290       ??_C@_03BBBGPMCE@id1?$AA@  000000014008a290     main.obj
 0002:00004298       ??_C@_0L@ENBFKJLN@darkplaces?$AA@ 000000014008a298     main.obj
 0002:000042a4       ??_C@_04LDCPIAA@FBSP?$AA@  000000014008a2a4     main.obj
 0002:000042b0       ??_C@_07JAHLMJH@qfusion?$AA@ 000000014008a2b0     main.obj
 0002:000042b8       ??_C@_0L@OHLIOBFP@forcesight?$AA@ 000000014008a2b8     main.obj
 0002:000042c4       ??_C@_06OBELJJBF@inside?$AA@ 000000014008a2c4     main.obj
 0002:000042cc       ??_C@_03KHPAOMPO@?4ja?$AA@ 000000014008a2cc     main.obj
 0002:000042d0       ??_C@_02DJBIDCPN@ja?$AA@   000000014008a2d0     main.obj
 0002:000042d8       ??_C@_0P@FJFJLJBH@gfx?1misc?1flare?$AA@ 000000014008a2d8     main.obj
 0002:000042e8       ??_C@_08MOLGCPD@GameData?$AA@ 000000014008a2e8     main.obj
 0002:000042f4       ??_C@_04LKEFPOFA@?4jk2?$AA@ 000000014008a2f4     main.obj
 0002:000042fc       ??_C@_03CDNCEHDE@jk2?$AA@  000000014008a2fc     main.obj
 0002:00004300       ??_C@_0O@MGMHCHNB@?$CKmat_computer?$AA@ 000000014008a300     main.obj
 0002:00004310       ??_C@_0L@LFLJFCLE@?$CKmat_armor?$AA@ 000000014008a310     main.obj
 0002:00004320       ??_C@_0BC@ENMNDHPF@?$CKmat_shatterglass?$AA@ 000000014008a320     main.obj
 0002:00004338       ??_C@_0M@GGJEOBEG@?$CKmat_carpet?$AA@ 000000014008a338     main.obj
 0002:00004348       ??_C@_0L@FNKCLEPN@?$CKmat_tiles?$AA@ 000000014008a348     main.obj
 0002:00004358       ??_C@_0M@PDNAJJKB@?$CKmat_rubber?$AA@ 000000014008a358     main.obj
 0002:00004368       ??_C@_0M@KOKHPKAC@?$CKmat_canvas?$AA@ 000000014008a368     main.obj
 0002:00004378       ??_C@_0M@PCNMOMBK@?$CKmat_fabric?$AA@ 000000014008a378     main.obj
 0002:00004388       ??_C@_0BB@JGJAIBPG@?$CKmat_greenleaves?$AA@ 000000014008a388     main.obj
 0002:000043a0       ??_C@_0P@OCMPCPIJ@?$CKmat_dryleaves?$AA@ 000000014008a3a0     main.obj
 0002:000043b0       ??_C@_0N@OKOOKFOM@?$CKmat_bpglass?$AA@ 000000014008a3b0     main.obj
 0002:000043c0       ??_C@_0L@BHMJMDMP@?$CKmat_flesh?$AA@ 000000014008a3c0     main.obj
 0002:000043d0       ??_C@_0M@JALDBNJA@?$CKmat_marble?$AA@ 000000014008a3d0     main.obj
 0002:000043e0       ??_C@_0O@DAIPOMEC@?$CKmat_concrete?$AA@ 000000014008a3e0     main.obj
 0002:000043f0       ??_C@_0P@GHADFKCO@?$CKmat_longgrass?$AA@ 000000014008a3f0     main.obj
 0002:00004400       ??_C@_0BA@PMCMEDOF@?$CKmat_shortgrass?$AA@ 000000014008a400     main.obj
 0002:00004410       ??_C@_0BB@BCKIIBE@?$CKmat_hollowmetal?$AA@ 000000014008a410     main.obj
 0002:00004428       ??_C@_0BA@KHBGGDDD@?$CKmat_solidmetal?$AA@ 000000014008a428     main.obj
 0002:00004438       ??_C@_0BA@JNBEOIKB@?$CKmat_hollowwood?$AA@ 000000014008a438     main.obj
 0002:00004448       ??_C@_0P@BNKIKIAE@?$CKmat_solidwood?$AA@ 000000014008a448     main.obj
 0002:00004458       ??_C@_0L@FKJPFEEF@nomiscents?$AA@ 000000014008a458     main.obj
 0002:00004468       ??_C@_07BCPNPMFC@outside?$AA@ 000000014008a468     main.obj
 0002:00004470       ??_C@_06DGKKIAKL@abseil?$AA@ 000000014008a470     main.obj
 0002:00004478       ??_C@_07JBFDOFDL@terrain?$AA@ 000000014008a478     main.obj
 0002:00004480       ??_C@_09NOFNMCCG@nonopaque?$AA@ 000000014008a480     main.obj
 0002:0000448c       ??_C@_04JOFCMJEC@RBSP?$AA@ 000000014008a48c     main.obj
 0002:00004498       ??_C@_0BE@PFBODKAM@gfx?1misc?1lens_flare?$AA@ 000000014008a498     main.obj
 0002:000044b0       ??_C@_07PANOCICP@shaders?$AA@ 000000014008a4b0     main.obj
 0002:000044b8       ??_C@_07MDEDDOHD@soldier?$AA@ 000000014008a4b8     main.obj
 0002:000044c0       ??_C@_05PIGKELD@?4sof2?$AA@ 000000014008a4c0     main.obj
 0002:000044c8       ??_C@_04EFMAJGEL@sof2?$AA@ 000000014008a4c8     main.obj
 0002:000044d0       ??_C@_0L@FDGBAAHB@forcefield?$AA@ 000000014008a4d0     main.obj
 0002:000044e0       ??_C@_08PJMABAOL@shotclip?$AA@ 000000014008a4e0     main.obj
 0002:000044ec       ??_C@_05EHJKLNBO@elite?$AA@ 000000014008a4ec     main.obj
 0002:000044f4       ??_C@_03ODONDNAE@?4ef?$AA@ 000000014008a4f4     main.obj
 0002:000044f8       ??_C@_06HCCDPJHG@baseef?$AA@ 000000014008a4f8     main.obj
 0002:00004500       ??_C@_02HNAFODAH@ef?$AA@   000000014008a500     main.obj
 0002:00004508       ??_C@_0M@PGGHNOJ@?$CKmat_stucco?$AA@ 000000014008a508     main.obj
 0002:00004518       ??_C@_0L@GHPAMDKD@?$CKmat_water?$AA@ 000000014008a518     main.obj
 0002:00004528       ??_C@_0L@PKMBEMKH@?$CKmat_glass?$AA@ 000000014008a528     main.obj
 0002:00004538       ??_C@_0L@HCPHNGPO@?$CKmat_plank?$AA@ 000000014008a538     main.obj
 0002:00004548       ??_C@_0O@BPEGMALD@?$CKmat_softwood?$AA@ 000000014008a548     main.obj
 0002:00004558       ??_C@_0O@LEBOLEGL@?$CKmat_hardwood?$AA@ 000000014008a558     main.obj
 0002:00004568       ??_C@_0P@IIMKMIOJ@?$CKmat_cardboard?$AA@ 000000014008a568     main.obj
 0002:00004578       ??_C@_0N@HMFDBFBE@?$CKmat_plastic?$AA@ 000000014008a578     main.obj
 0002:00004588       ??_C@_0N@CGJAMPGA@?$CKmat_plaster?$AA@ 000000014008a588     main.obj
 0002:00004598       ??_C@_08PLEGDJFG@?$CKmat_rug?$AA@ 000000014008a598     main.obj
 0002:000045a8       ??_C@_0O@EIFACDLD@?$CKmat_linoleum?$AA@ 000000014008a5a8     main.obj
 0002:000045b8       ??_C@_0BB@DDBILKGG@?$CKmat_ceramictile?$AA@ 000000014008a5b8     main.obj
 0002:000045d0       ??_C@_0N@KJIMMKMN@?$CKmat_ceramic?$AA@ 000000014008a5d0     main.obj
 0002:000045e0       ??_C@_09GOKIMOKM@?$CKmat_sand?$AA@ 000000014008a5e0     main.obj
 0002:000045f0       ??_C@_08FGMDFEII@?$CKmat_ice?$AA@ 000000014008a5f0     main.obj
 0002:00004600       ??_C@_09FGOGPFFP@?$CKmat_snow?$AA@ 000000014008a600     main.obj
 0002:00004610       ??_C@_08NIBBCNFM@?$CKmat_mud?$AA@ 000000014008a610     main.obj
 0002:00004620       ??_C@_09CGCCOFJE@?$CKmat_dirt?$AA@ 000000014008a620     main.obj
 0002:00004630       ??_C@_0L@CFBBGFEE@?$CKmat_grass?$AA@ 000000014008a630     main.obj
 0002:00004640       ??_C@_09IBCKKNC@?$CKmat_clay?$AA@ 000000014008a640     main.obj
 0002:00004650       ??_C@_0L@COFFOHDB@?$CKmat_brick?$AA@ 000000014008a650     main.obj
 0002:00004660       ??_C@_0O@JCPILEJF@?$CKmat_pavement?$AA@ 000000014008a660     main.obj
 0002:00004670       ??_C@_0M@JHKJJPLH@?$CKmat_gravel?$AA@ 000000014008a670     main.obj
 0002:00004680       ??_C@_09DMFHBPLD@?$CKmat_rock?$AA@ 000000014008a680     main.obj
 0002:00004690       ??_C@_0M@HECHOLEP@?$CKmat_cement?$AA@ 000000014008a690     main.obj
 0002:000046a0       ??_C@_0M@HAAEHENA@?$CKmat_copper?$AA@ 000000014008a6a0     main.obj
 0002:000046b0       ??_C@_0L@HFNMPEPH@?$CKmat_brass?$AA@ 000000014008a6b0     main.obj
 0002:000046c0       ??_C@_0L@GIIFJGGC@?$CKmat_steel?$AA@ 000000014008a6c0     main.obj
 0002:000046d0       ??_C@_0O@JGPKINPC@?$CKmat_titanium?$AA@ 000000014008a6d0     main.obj
 0002:000046e0       ??_C@_09PNHJDLED@?$CKmat_iron?$AA@ 000000014008a6e0     main.obj
 0002:000046f0       ??_C@_0O@MGAPKLMO@?$CKmat_aluminum?$AA@ 000000014008a6f0     main.obj
 0002:00004700       ??_C@_08BKNDIHNH@?$CKmat_tin?$AA@ 000000014008a700     main.obj
 0002:00004710       ??_C@_09PBMNLON@?$CKmat_none?$AA@ 000000014008a710     main.obj
 0002:0000471c       ??_C@_04JFDLNBFN@etut?$AA@ 000000014008a71c     main.obj
 0002:00004724       ??_C@_06JAPKNKHK@splash?$AA@ 000000014008a724     main.obj
 0002:00004730       ??_C@_08IKEDDBIN@landmine?$AA@ 000000014008a730     main.obj
 0002:00004740       ??_C@_07GFMBFJII@?4etwolf?$AA@ 000000014008a740     main.obj
 0002:00004748       ??_C@_06HFOOJJAI@etmain?$AA@ 000000014008a748     main.obj
 0002:00004750       ??_C@_02FPBJDNE@et?$AA@    000000014008a750     main.obj
 0002:00004758       ??_C@_0BB@FPFPDCJM@monsterslickwest?$AA@ 000000014008a758     main.obj
 0002:00004770       ??_C@_0BC@KAIIGEJJ@monsterslicksouth?$AA@ 000000014008a770     main.obj
 0002:00004788       ??_C@_0BB@MKBNGBCJ@monsterslickeast?$AA@ 000000014008a788     main.obj
 0002:000047a0       ??_C@_0BC@ICBHENGF@monsterslicknorth?$AA@ 000000014008a7a0     main.obj
 0002:000047b8       ??_C@_0N@OJDPBEDK@monsterslick?$AA@ 000000014008a7b8     main.obj
 0002:000047c8       ??_C@_0P@NAJJNKOA@ai_nopasslarge?$AA@ 000000014008a7c8     main.obj
 0002:000047d8       ??_C@_09FEFACIPA@ai_nopass?$AA@ 000000014008a7d8     main.obj
 0002:000047e8       ??_C@_0L@IPFGKLPA@ai_nosight?$AA@ 000000014008a7e8     main.obj
 0002:000047f8       ??_C@_09FBEBDLKF@roofsteps?$AA@ 000000014008a7f8     main.obj
 0002:00004808       ??_C@_09GIFBNDKC@snowsteps?$AA@ 000000014008a808     main.obj
 0002:00004818       ??_C@_0M@BFHAHODD@carpetsteps?$AA@ 000000014008a818     main.obj
 0002:00004824       ??_C@_06GJBBMLPC@rubble?$AA@ 000000014008a824     main.obj
 0002:00004830       ??_C@_0M@MKNAHGEO@gravelsteps?$AA@ 000000014008a830     main.obj
 0002:00004840       ??_C@_0L@HGJDCNBL@grasssteps?$AA@ 000000014008a840     main.obj
 0002:00004850       ??_C@_09CAPHOBMI@woodsteps?$AA@ 000000014008a850     main.obj
 0002:00004860       ??_C@_07DPBFPBKO@ceramic?$AA@ 000000014008a860     main.obj
 0002:00004868       ??_C@_05NGDBJHKI@glass?$AA@ 000000014008a868     main.obj
 0002:00004870       ??_C@_05MPIFAIJC@metal?$AA@ 000000014008a870     main.obj
 0002:00004878       ??_C@_0BA@LKOGGOIA@nonotenterlarge?$AA@ 000000014008a878     main.obj
 0002:00004888       ??_C@_08KGGIJCCP@clipshot?$AA@ 000000014008a888     main.obj
 0002:00004898       ??_C@_0M@CFBECDPL@clipmissile?$AA@ 000000014008a898     main.obj
 0002:000048a4       ??_C@_04JFPGIGDB@slag?$AA@ 000000014008a8a4     main.obj
 0002:000048ac       ??_C@_05CJEGBPPF@?4wolf?$AA@ 000000014008a8ac     main.obj
 0002:000048b4       ??_C@_04GHJNJNPO@main?$AA@ 000000014008a8b4     main.obj
 0002:000048bc       ??_C@_04GDAACNAN@wolf?$AA@ 000000014008a8bc     main.obj
 0002:000048c8       ??_C@_09IIEOEDHC@?4tenebrae?$AA@ 000000014008a8c8     main.obj
 0002:000048d8       ??_C@_08NMFJAMMJ@tenebrae?$AA@ 000000014008a8d8     main.obj
 0002:000048e8       ??_C@_0P@HDDFKCGO@nobuildsurface?$AA@ 000000014008a8e8     main.obj
 0002:000048f8       ??_C@_0BE@CMNACEBK@nohumanbuildsurface?$AA@ 000000014008a8f8     main.obj
 0002:00004910       ??_C@_0BE@PMHJAILD@noalienbuildsurface?$AA@ 000000014008a910     main.obj
 0002:00004928       ??_C@_07FADOELJD@nobuild?$AA@ 000000014008a928     main.obj
 0002:00004930       ??_C@_0N@LMLHLBKF@nohumanbuild?$AA@ 000000014008a930     main.obj
 0002:00004940       ??_C@_0N@MFOHHKPE@noalienbuild?$AA@ 000000014008a940     main.obj
 0002:00004950       ??_C@_0L@CBEPMGGM@?4tremulous?$AA@ 000000014008a950     main.obj
 0002:0000495c       ??_C@_04BHIIPFEC@base?$AA@ 000000014008a95c     main.obj
 0002:00004968       ??_C@_09HNKILLCH@tremulous?$AA@ 000000014008a968     main.obj
 0002:00004974       ??_C@_04BEGKODDK@dust?$AA@ 000000014008a974     main.obj
 0002:00004980       ??_C@_08LLBHFIEL@nodlight?$AA@ 000000014008a980     main.obj
 0002:00004990       ??_C@_07PPLNNCCH@nosteps?$AA@ 000000014008a990     main.obj
 0002:00004998       ??_C@_05DLDJBIMA@flesh?$AA@ 000000014008a998     main.obj
 0002:000049a0       ??_C@_0L@BIBBDCEB@metalsteps?$AA@ 000000014008a9a0     main.obj
 0002:000049b0       ??_C@_08IPOHNGKE@nodamage?$AA@ 000000014008a9b0     main.obj
 0002:000049bc       ??_C@_06GGMOHJIJ@ladder?$AA@ 000000014008a9bc     main.obj
 0002:000049c8       ??_C@_07LDNMIKIJ@nomarks?$AA@ 000000014008a9c8     main.obj
 0002:000049d0       ??_C@_08FFFCKPOA@noimpact?$AA@ 000000014008a9d0     main.obj
 0002:000049dc       ??_C@_05BFPPMEOD@slick?$AA@ 000000014008a9dc     main.obj
 0002:000049e4       ??_C@_03BNEOMJOP@sky?$AA@  000000014008a9e4     main.obj
 0002:000049e8       ??_C@_03KJMBPJEB@fog?$AA@  000000014008a9e8     main.obj
 0002:000049f0       ??_C@_07CCAFDIPE@botclip?$AA@ 000000014008a9f0     main.obj
 0002:000049f8       ??_C@_0L@BIKHJKPM@donotenter?$AA@ 000000014008a9f8     main.obj
 0002:00004a08       ??_C@_0O@GEGDJGOB@clusterportal?$AA@ 000000014008aa08     main.obj
 0002:00004a18       ??_C@_06IBIIOGMH@nodrop?$AA@ 000000014008aa18     main.obj
 0002:00004a20       ??_C@_0M@IHNOGBMG@monsterclip?$AA@ 000000014008aa20     main.obj
 0002:00004a30       ??_C@_0L@BLJOELF@playerclip?$AA@ 000000014008aa30     main.obj
 0002:00004a3c       ??_C@_04MKBPEMMM@lava?$AA@ 000000014008aa3c     main.obj
 0002:00004a44       ??_C@_05IBOCMEGH@slime?$AA@ 000000014008aa44     main.obj
 0002:00004a4c       ??_C@_05ELAABIKM@water?$AA@ 000000014008aa4c     main.obj
 0002:00004a58       ??_C@_07DIDNFGDE@trigger?$AA@ 000000014008aa58     main.obj
 0002:00004a60       ??_C@_08POKGLNIM@nonsolid?$AA@ 000000014008aa60     main.obj
 0002:00004a70       ??_C@_0L@CHECABJO@pointlight?$AA@ 000000014008aa70     main.obj
 0002:00004a80       ??_C@_0L@MKEHCLJM@nolightmap?$AA@ 000000014008aa80     main.obj
 0002:00004a90       ??_C@_0M@FCGGILAO@lightfilter?$AA@ 000000014008aa90     main.obj
 0002:00004aa0       ??_C@_0M@GKGEABAN@alphashadow?$AA@ 000000014008aaa0     main.obj
 0002:00004aac       ??_C@_06MEFHFNAK@nodraw?$AA@ 000000014008aaac     main.obj
 0002:00004ab4       ??_C@_04NPKLNGDP@hint?$AA@ 000000014008aab4     main.obj
 0002:00004ac0       ??_C@_0L@GMELLABP@structural?$AA@ 000000014008aac0     main.obj
 0002:00004acc       ??_C@_06EENFNEPD@detail?$AA@ 000000014008aacc     main.obj
 0002:00004ad4       ??_C@_05JIFNPOFN@trans?$AA@ 000000014008aad4     main.obj
 0002:00004ae0       ??_C@_0L@PPDFKPM@areaportal?$AA@ 000000014008aae0     main.obj
 0002:00004aec       ??_C@_06NHCMNMEH@origin?$AA@ 000000014008aaec     main.obj
 0002:00004af4       ??_C@_04DLBGLKG@skip?$AA@  000000014008aaf4     main.obj
 0002:00004b00       ??_C@_0L@FKDPHGBN@antiportal?$AA@ 000000014008ab00     main.obj
 0002:00004b10       ??_C@_09HJBJDNDJ@lightgrid?$AA@ 000000014008ab10     main.obj
 0002:00004b20       ??_C@_07DLHCIBDH@default?$AA@ 000000014008ab20     main.obj
 0002:00004b28       ??_C@_04IJGCGPNB@IBSP?$AA@ 000000014008ab28     main.obj
 0002:00004b30       ??_C@_0M@BLNELFNC@flareshader?$AA@ 000000014008ab30     main.obj
 0002:00004b40       ??_C@_07OMEBBDEO@scripts?$AA@ 000000014008ab40     main.obj
 0002:00004b48       ??_C@_05GAODMEMC@quake?$AA@ 000000014008ab48     main.obj
 0002:00004b50       ??_C@_04MOGEFPFB@?4q3a?$AA@ 000000014008ab50     main.obj
 0002:00004b58       ??_C@_06KOMAFLML@baseq3?$AA@ 000000014008ab58     main.obj
 0002:00004b60       ??_C@_06IBGBCFGI@quake3?$AA@ 000000014008ab60     main.obj
 0002:00004b68       ??_C@_0P@KGKPCPGC@SURFACE_SHADER?$AA@ 000000014008ab68     main.obj
 0002:00004b78       ??_C@_0O@NFOHCMG@SURFACE_DECAL?$AA@ 000000014008ab78     main.obj
 0002:00004b88       ??_C@_0BA@FLCCHJGK@SURFACE_FOGHULL?$AA@ 000000014008ab88     main.obj
 0002:00004b98       ??_C@_0N@FIALCCLF@SURFACE_META?$AA@ 000000014008ab98     main.obj
 0002:00004ba8       ??_C@_0BE@FDAKJNDD@SURFACE_FORCED_META?$AA@ 000000014008aba8     main.obj
 0002:00004bc0       ??_C@_0BA@OGJDEHJ@SURFACE_FOLIAGE?$AA@ 000000014008abc0     main.obj
 0002:00004bd0       ??_C@_0O@CICNNPFH@SURFACE_FLARE?$AA@ 000000014008abd0     main.obj
 0002:00004be0       ??_C@_0BC@LBALDAHA@SURFACE_TRIANGLES?$AA@ 000000014008abe0     main.obj
 0002:00004bf8       ??_C@_0O@MKLPOKMH@SURFACE_PATCH?$AA@ 000000014008abf8     main.obj
 0002:00004c08       ??_C@_0N@NNLMPEAC@SURFACE_FACE?$AA@ 000000014008ac08     main.obj
 0002:00004c18       ??_C@_0M@HHBNHPOA@SURFACE_BAD?$AA@ 000000014008ac18     main.obj
 0002:00004c24       ??_C@_04IJLBICMD@?4aas?$AA@ 000000014008ac24     main.obj
 0002:00004c30       ??_C@_07LOOEBBLM@_b0?4aas?$AA@ 000000014008ac30     main.obj
 0002:00004c38       ??_C@_07HFLIMCBJ@_b1?4aas?$AA@ 000000014008ac38     main.obj
 0002:00004c40       ??_C@_0CF@HEAMJDCJ@Usage?3?5q3map?5?9fixaas?5?$FL?9v?$FN?5?$DMmapna@ 000000014008ac40     main.obj
 0002:00004c68       ??_C@_04KPILAJPA@?4bsp?$AA@ 000000014008ac68     main.obj
 0002:00004c70       ??_C@_0BA@DJHPHPOP@?9?9?9?5FixAAS?5?9?9?9?6?$AA@ 000000014008ac70     main.obj
 0002:00004c80       ??_C@_0M@LGGMODLI@Loading?5?$CFs?6?$AA@ 000000014008ac80     main.obj
 0002:00004c90       ??_C@_0BG@ILMFNBLD@Creating?5checksum?4?4?4?6?$AA@ 000000014008ac90     main.obj
 0002:00004ca8       ??_C@_0L@JAKDNNP@Trying?5?$CFs?6?$AA@ 000000014008aca8     main.obj
 0002:00004cb4       ??_C@_03HMFOOINA@r?$CLb?$AA@ 000000014008acb4     main.obj
 0002:00004cb8       ??_C@_0BN@JAHBLPCC@Error?5writing?5checksum?5to?5?$CFs?$AA@ 000000014008acb8     main.obj
 0002:00004cd8       ??_C@_0DC@KIENAPMC@Usage?3?5q3map?5?9analyze?5?$FL?9lumpswap@ 000000014008acd8     main.obj
 0002:00004d10       ??_C@_09DHMCAIJC@?9lumpswap?$AA@ 000000014008ad10     main.obj
 0002:00004d20       ??_C@_0BO@LKKGKKGG@Swapped?5lump?5structs?5enabled?6?$AA@ 000000014008ad20     main.obj
 0002:00004d40       ??_C@_0BE@EOAEHGMH@Unable?5to?5load?5?$CFs?4?6?$AA@ 000000014008ad40     main.obj
 0002:00004d58       ??_C@_0BD@GFCJHINA@Identity?3?5?5?5?5?5?5?$CFs?6?$AA@ 000000014008ad58     main.obj
 0002:00004d70       ??_C@_0BD@NODDNALH@Version?3?5?5?5?5?5?5?5?$CFd?6?$AA@ 000000014008ad70     main.obj
 0002:00004d88       ??_C@_0CJ@NAGLDNBO@?9?9?9?9?9?9?9?9?9?9?9?9?9?9?9?9?9?9?9?9?9?9?9?9?9?9?9?9?9?9?9?9@ 000000014008ad88     main.obj
 0002:00004db8       ??_C@_0BD@EPFBOHEB@Lump?3?5?5?5?5?5?5?5?5?5?5?$CFd?6?$AA@ 000000014008adb8     main.obj
 0002:00004dd0       ??_C@_0BJ@PJOPMHOA@Offset?3?5?5?5?5?5?5?5?5?$CFd?5bytes?6?$AA@ 000000014008add0     main.obj
 0002:00004df0       ??_C@_0BJ@IGDNEFEA@Length?3?5?5?5?5?5?5?5?5?$CFd?5bytes?6?$AA@ 000000014008adf0     main.obj
 0002:00004e10       ??_C@_0BF@KDGMGPMG@As?5hex?3?5?5?5?5?5?5?5?5?$CF08X?6?$AA@ 000000014008ae10     main.obj
 0002:00004e28       ??_C@_0BD@LGLIDIHG@As?5int?3?5?5?5?5?5?5?5?5?$CFd?6?$AA@ 000000014008ae28     main.obj
 0002:00004e40       ??_C@_0BD@CHLNEINM@As?5float?3?5?5?5?5?5?5?$CFf?6?$AA@ 000000014008ae40     main.obj
 0002:00004e58       ??_C@_0BD@MEAHICMC@As?5string?3?5?5?5?5?5?$CFs?6?$AA@ 000000014008ae58     main.obj
 0002:00004e70       ??_C@_0CD@EJFBFPHH@Type?5guess?3?5?5?5?5IBSP?5LUMP_ENTITIE@ 000000014008ae70     main.obj
 0002:00004e98       ??_C@_09CBPMOBF@textures?1?$AA@ 000000014008ae98     main.obj
 0002:00004ea8       ??_C@_0CC@OBEKBGEA@Type?5guess?3?5?5?5?5IBSP?5LUMP_SHADERS@ 000000014008aea8     main.obj
 0002:00004ed0       ??_C@_0BN@BAMEOJPK@Type?5guess?3?5?5?5?5?$CFs?5?$CI?$CFd?5x?5?$CFd?$CJ?6?$AA@ 000000014008aed0     main.obj
 0002:00004ef0       ??_C@_0BD@GCOOGCIE@Lump?5count?3?5?5?5?5?$CFd?6?$AA@ 000000014008aef0     main.obj
 0002:00004f08       ??_C@_0BJ@PNBOJGGP@File?5size?3?5?5?5?5?5?$CFd?5bytes?6?$AA@ 000000014008af08     main.obj
 0002:00004f28       ??_C@_0BM@BJOJAOJL@No?5files?5to?5dump?5info?5for?4?6?$AA@ 000000014008af28     main.obj
 0002:00004f48       ??_C@_0CD@NEAPBDPM@?9?9?9?9?9?9?9?9?9?9?9?9?9?9?9?9?9?9?9?9?9?9?9?9?9?9?9?9?9?9?9?9@ 000000014008af48     main.obj
 0002:00004f6c       ??_C@_03HBNNNHNM@map?$AA@  000000014008af6c     main.obj
 0002:00004f70       ??_C@_02JDPG@rb?$AA@       000000014008af70     main.obj
 0002:00004f74       ??_C@_03OFAPEBGM@?$CFs?6?$AA@ 000000014008af74     main.obj
 0002:00004f78       ??_C@_0BN@EEHNMFOC@?5?5?5?5?5?5?5?5?5?5total?5?5?5?5?5?5?5?5?5?$CF9d?6?$AA@ 000000014008af78     main.obj
 0002:00004f98       ??_C@_0CA@FMGLMOJE@?5?5?5?5?5?5?5?5?5?5?5?5?5?5?5?5?5?5?5?5?5?5?5?5?$CF9d?5KB?6?$AA@ 000000014008af98     main.obj
 0002:00004fb8       ??_C@_0CA@HJAAJBEI@?5?5?5?5?5?5?5?5?5?5?5?5?5?5?5?5?5?5?5?5?5?5?5?5?$CF9d?5MB?6?$AA@ 000000014008afb8     main.obj
 0002:00004fd8       ??_C@_0CM@MGAEIBKK@Usage?3?5q3map?5?9scale?5?$DMvalue?$DO?5?$FL?9v?$FN@ 000000014008afd8     main.obj
 0002:00005008       ??_C@_0CA@ELPFAHB@Non?9zero?5scale?5value?5required?4?6?$AA@ 000000014008b008     main.obj
 0002:00005028       ??_C@_0BC@EMHPAAL@?9?9?9?5ScaleBSP?5?9?9?9?6?$AA@ 000000014008b028     main.obj
 0002:00005040       ??_C@_0O@HLMNMPON@?$CF9d?5entities?6?$AA@ 000000014008b040     main.obj
 0002:00005050       ??_C@_08OEKJENGB@?$CFf?5?$CFf?5?$CFf?$AA@ 000000014008b050     main.obj
 0002:0000505c       ??_C@_03MHHCOBAB@lip?$AA@  000000014008b05c     main.obj
 0002:00005060       ??_C@_02NJPGOMH@?$CFf?$AA@ 000000014008b060     main.obj
 0002:00005068       ??_C@_08PLHKIFFJ@gridsize?$AA@ 000000014008b068     main.obj
 0002:00005074       ??_C@_06KMOOMHKC@_s?4bsp?$AA@ 000000014008b074     main.obj
 0002:00005080       ??_C@_0M@BBJDCBAD@Writing?5?$CFs?6?$AA@ 000000014008b080     main.obj
 0002:00005090       ??_C@_0P@OONNAOEL@?9custinfoparms?$AA@ 000000014008b090     main.obj
 0002:000050a0       ??_C@_0BL@EIIHOJBB@Custom?5info?5parms?5enabled?6?$AA@ 000000014008b0a0     main.obj
 0002:000050c0       ??_C@_0BD@EMBAIPIF@?9collapsebytexture?$AA@ 000000014008b0c0     main.obj
 0002:000050d8       ??_C@_0BL@BGPHPCCE@Collapsing?5by?5shader?5name?6?$AA@ 000000014008b0d8     main.obj
 0002:000050f8       ??_C@_07KBHCBCNF@?9format?$AA@ 000000014008b0f8     main.obj
 0002:00005100       ??_C@_03BDBMPJGO@ase?$AA@  000000014008b100     main.obj
 0002:00005108       ??_C@_0DE@EOLOCIIA@Unknown?5conversion?5format?5?$CC?$CFs?$CC?4?5@ 000000014008b108     main.obj
 0002:0000513c       ??_C@_06KPDIMFDJ@_c?4bsp?$AA@ 000000014008b13c     main.obj
 0002:00005144       ??_C@_06FEAAAGNM@1?41?44?6?$AA@ 000000014008b144     main.obj
 0002:00005150       ??_C@_08FABEHMEN@?9connect?$AA@ 000000014008b150     main.obj
 0002:0000515c       ??_C@_02EJEOCNCO@?9v?$AA@  000000014008b15c     main.obj
 0002:00005160       ??_C@_06JKBLPGIK@?9force?$AA@ 000000014008b160     main.obj
 0002:00005168       ??_C@_0O@IHOCAECB@?9subdivisions?$AA@ 000000014008b168     main.obj
 0002:00005178       ??_C@_08CFGFJOBF@?9threads?$AA@ 000000014008b178     main.obj
 0002:00005188       ??_C@_07DDJDGOOH@?9memlog?$AA@ 000000014008b188     main.obj
 0002:00005190       ??_C@_05DMOPOBBM@?9fake?$AA@ 000000014008b190     main.obj
 0002:00005198       ??_C@_0DB@ECMIGEBB@Q3Map?5?5?5?5?5?5?5?5?5?9?5v1?40r?5?$CIc?$CJ?51999?5I@ 000000014008b198     main.obj
 0002:000051d0       ??_C@_0BP@CJKOCLBJ@Q3Map?5?$CIydnar?$CJ?5?9?5v2?45?416?5FS20g?6?$AA@ 000000014008b1d0     main.obj
 0002:000051f0       ??_C@_0BI@HJDAPLMC@BloodMap?5?5?5?5?5?5?9?5v1?41?44?6?$AA@ 000000014008b1f0     main.obj
 0002:00005208       ??_C@_0CN@IDKNOMBO@GtkRadiant?5?5?5?5?9?5v1?45?40?5Apr?519?520@ 000000014008b208     main.obj
 0002:00005238       ??_C@_0BP@JHFHICJM@Q3Map2?5with?5blood?5transfusion?6?$AA@ 000000014008b238     main.obj
 0002:00005258       ??_C@_0CO@IJJIGLHK@Usage?3?5?$CFs?5?$FLgeneral?5options?$FN?5?$FLopt@ 000000014008b258     main.obj
 0002:00005288       ??_C@_07DIAMMABG@?9fixaas?$AA@ 000000014008b288     main.obj
 0002:00005290       ??_C@_08GFDBMCPJ@?9analyze?$AA@ 000000014008b290     main.obj
 0002:0000529c       ??_C@_05BEOLBNEC@?9info?$AA@ 000000014008b29c     main.obj
 0002:000052a4       ??_C@_04NMMMGIN@?9vis?$AA@ 000000014008b2a4     main.obj
 0002:000052ac       ??_C@_06IMILELBA@?9light?$AA@ 000000014008b2ac     main.obj
 0002:000052b8       ??_C@_07DHGEIBMN@?9vlight?$AA@ 000000014008b2b8     main.obj
 0002:000052c0       ??_C@_0EN@MMMHOHHJ@WARNING?3?5VLight?5is?5no?5longer?5sup@ 000000014008b2c0     main.obj
 0002:00005310       ??_C@_05HNADDAME@?9fast?$AA@ 000000014008b310     main.obj
 0002:00005318       ??_C@_07EAOALMKJ@?9export?$AA@ 000000014008b318     main.obj
 0002:00005320       ??_C@_07NEFLEFPF@?9import?$AA@ 000000014008b320     main.obj
 0002:00005328       ??_C@_06EFAADHOP@?9scale?$AA@ 000000014008b328     main.obj
 0002:00005330       ??_C@_08BNGAGJEJ@?9convert?$AA@ 000000014008b330     main.obj
 0002:00005340       ??_C@_09NIOABDLH@?9optimize?$AA@ 000000014008b340     main.obj
 0002:0000534c       ??_C@_06GAGBIIPM@?9patch?$AA@ 000000014008b34c     main.obj
 0002:00005358       ??_C@_0BH@DELFLHDA@?$CF9?40f?5seconds?5elapsed?6?$AA@ 000000014008b358     main.obj
 0002:00005370       ??_C@_0O@CEPCGEKG@?4?4?2src?2mesh?4c?$AA@ 000000014008b370     mesh.obj
 0002:00005380       ??_C@_0N@BPALGEAJ@WARNING?3?5?$CFs?6?$AA@ 000000014008b380     model.obj
 0002:00005390       ??_C@_0L@MJEBIGKE@ERROR?3?5?$CFs?6?$AA@ 000000014008b390     model.obj
 0002:000053a0       ??_C@_0FA@OKBBEGJM@MAX_MODELS?5?$CI?$CFd?$CJ?5exceeded?0?5there?5@ 000000014008b3a0     model.obj
 0002:000053f0       ??_C@_0EH@IBNCPLPA@WARNING?3?5Can?8t?5invert?5model?5tran@ 000000014008b3f0     model.obj
 0002:00005438       ??_C@_0BE@NNBACDB@Remapping?5?$CFs?5to?5?$CFs?6?$AA@ 000000014008b438     model.obj
 0002:00005450       ??_C@_0BD@LGNJCGNN@Globbing?5?$CFs?5to?5?$CFs?6?$AA@ 000000014008b450     model.obj
 0002:00005468       ??_C@_08MLIALKDB@_RMG_BSP?$AA@ 000000014008b468     model.obj
 0002:00005474       ??_C@_04GGMCANPD@_BSP?$AA@ 000000014008b474     model.obj
 0002:00005480       ??_C@_0P@HKCNOLCE@?4?4?2src?2model?4c?$AA@ 000000014008b480     model.obj
 0002:00005490       ??_C@_0EI@NCOMMBHM@WARNING?3?5MAX_MAP_PLANES?5?$CI?$CFd?$CJ?5hit@ 000000014008b490     model.obj
 0002:000054d8       ??_C@_0BM@LPINEHC@?9?9?9?5LoadTriangleModels?5?9?9?9?6?$AA@ 000000014008b4d8     model.obj
 0002:000054f4       ??_C@_05MNHKBJP@?$CFd?4?4?4?$AA@ 000000014008b4f4     model.obj
 0002:000054fc       ??_C@_06CLBGAIPD@_model?$AA@ 000000014008b4fc     model.obj
 0002:00005504       ??_C@_05NCCFOPHA@model?$AA@ 000000014008b504     model.obj
 0002:0000550c       ??_C@_06DBKOLBMA@_frame?$AA@ 000000014008b50c     model.obj
 0002:00005514       ??_C@_06DGMHMLID@?5?$CI?$CFd?$CJ?6?$AA@ 000000014008b514     model.obj
 0002:00005520       ??_C@_0CF@HAFILHPF@?$CF9i?5unique?5model?1frame?5combinati@ 000000014008b520     model.obj
 0002:00005548       ??_C@_0BL@BIKDJGGB@?9?9?9?5AddTriangleModels?5?9?9?9?6?$AA@ 000000014008b548     model.obj
 0002:00005568       ??_C@_0P@EAPAJLNC@_lightmapscale?$AA@ 000000014008b568     model.obj
 0002:00005578       ??_C@_03IAKCHGG@_ls?$AA@   000000014008b578     model.obj
 0002:00005580       ??_C@_0P@PFINHJHE@_smoothnormals?$AA@ 000000014008b580     model.obj
 0002:00005590       ??_C@_03CAKDKAML@_np?$AA@  000000014008b590     model.obj
 0002:00005598       ??_C@_08KMBIPDMF@_vtcproj?$AA@ 000000014008b598     model.obj
 0002:000055a4       ??_C@_03DCJGFCAD@_vp?$AA@  000000014008b5a4     model.obj
 0002:000055a8       ??_C@_06JJLAMBGK@target?$AA@ 000000014008b5a8     model.obj
 0002:000055b0       ??_C@_0DF@GAHJDLLC@WARNING?3?5misc_model?5at?5?$CFi?5?$CFi?5?$CFi?5@ 000000014008b5b0     model.obj
 0002:000055e8       ??_C@_05MIJNFGED@frame?$AA@ 000000014008b5e8     model.obj
 0002:000055f0       ??_C@_04NHPAFEHJ@skin?$AA@ 000000014008b5f0     model.obj
 0002:000055f8       ??_C@_05FNMILIOF@_skin?$AA@ 000000014008b5f8     model.obj
 0002:00005600       ??_C@_0L@HLIKNEFC@spawnflags?$AA@ 000000014008b600     model.obj
 0002:00005610       ??_C@_0L@HDLPNNAF@modelscale?$AA@ 000000014008b610     model.obj
 0002:00005620       ??_C@_0P@OMAFFCFF@modelscale_vec?$AA@ 000000014008b620     model.obj
 0002:00005630       ??_C@_07HICMBFEB@uvscale?$AA@ 000000014008b630     model.obj
 0002:00005638       ??_C@_04ILBBDOIB@_uvs?$AA@ 000000014008b638     model.obj
 0002:00005640       ??_C@_0M@HGFIFCEE@uvautoscale?$AA@ 000000014008b640     model.obj
 0002:0000564c       ??_C@_05IBIEPPKD@_uvas?$AA@ 000000014008b64c     model.obj
 0002:00005654       ??_C@_05FECBCJJD@angle?$AA@ 000000014008b654     model.obj
 0002:0000565c       ??_C@_06GNEAMJOC@angles?$AA@ 000000014008b65c     model.obj
 0002:00005664       ??_C@_06PFABKBH@_remap?$AA@ 000000014008b664     model.obj
 0002:00005670       ??_C@_0EG@OMGIOPPD@WARNING?3?5Shader?5_remap?5key?5found@ 000000014008b670     model.obj
 0002:000056b8       ??_C@_0L@KOHKMCAK@_celshader?$AA@ 000000014008b6b8     model.obj
 0002:000056c8       ??_C@_0M@HBPNKFIC@textures?1?$CFs?$AA@ 000000014008b6c8     model.obj
 0002:000056d8       ??_C@_0M@DGOHJGFC@_noalphafix?$AA@ 000000014008b6d8     model.obj
 0002:000056e8       ??_C@_0O@LJJHMKKA@_pushvertexes?$AA@ 000000014008b6e8     model.obj
 0002:000056f8       ??_C@_03GAEBIJDH@_pv?$AA@  000000014008b6f8     model.obj
 0002:000056fc       ??_C@_04FFKNLAPH@_pv2?$AA@ 000000014008b6fc     model.obj
 0002:00005708       ??_C@_0BF@GAGODNIK@?9?9?9?5TidyShaders?5?9?9?9?6?$AA@ 000000014008b708     optimize.obj
 0002:00005720       ??_C@_0BL@POLAONIB@?9?9?9?5CreateMetaShaders?5?9?9?9?6?$AA@ 000000014008b720     optimize.obj
 0002:00005740       ??_C@_0BC@BLJGDMKC@?4?4?2src?2optimize?4c?$AA@ 000000014008b740     optimize.obj
 0002:00005758       ??_C@_0BB@CMLHFBBD@?$CF9d?5BSP?5shaders?6?$AA@ 000000014008b758     optimize.obj
 0002:00005770       ??_C@_0BG@DCJCDMBF@?$CF9d?5remapped?5shaders?6?$AA@ 000000014008b770     optimize.obj
 0002:00005788       ??_C@_0BN@JCKHNJGD@?9?9?9?5FindMergableShaders?5?9?9?9?6?$AA@ 000000014008b788     optimize.obj
 0002:000057a8       ??_C@_0BK@GIGIEPME@?$CF9d?5shaders?5to?5be?5merged?6?$AA@ 000000014008b7a8     optimize.obj
 0002:000057c8       ??_C@_0BG@IPMPCPLJ@?9?9?9?5MergeShaders?5?9?9?9?6?$AA@ 000000014008b7c8     optimize.obj
 0002:000057e0       ??_C@_0BL@GPBJGINO@?$CF9d?5shaders?5after?5merging?6?$AA@ 000000014008b7e0     optimize.obj
 0002:00005800       ??_C@_0BM@OGOAGCLP@?9?9?9?5UpdateDrawsurfaces?5?9?9?9?6?$AA@ 000000014008b800     optimize.obj
 0002:00005820       ??_C@_0BL@PHOLPBPK@?$CF9d?5drawsurfaces?5remapped?6?$AA@ 000000014008b820     optimize.obj
 0002:00005840       ??_C@_0BH@HCOKIDGA@?9?9?9?5UpdateBrushes?5?9?9?9?6?$AA@ 000000014008b840     optimize.obj
 0002:00005858       ??_C@_0BG@OFGOPOJA@?$CF9d?5brushes?5remapped?6?$AA@ 000000014008b858     optimize.obj
 0002:00005870       ??_C@_0BJ@IPLGEAFO@?$CF9d?5brushsides?5remapped?6?$AA@ 000000014008b870     optimize.obj
 0002:00005890       ??_C@_0BG@FJNECNCC@?9?9?9?5TidyEntities?5?9?9?9?6?$AA@ 000000014008b890     optimize.obj
 0002:000058a8       ??_C@_0BG@GEKPILBJ@?$CF9d?5entity?5data?5size?6?$AA@ 000000014008b8a8     optimize.obj
 0002:000058c0       ??_C@_0CN@PCGNLGDF@?$CF9d?5new?5entity?5data?5size?5?$CIreduce@ 000000014008b8c0     optimize.obj
 0002:000058f0       ??_C@_0BL@EADPCEEB@?9?9?9?5MergeDrawSurfaces?5?9?9?9?6?$AA@ 000000014008b8f0     optimize.obj
 0002:00005910       ??_C@_0BM@CLEKNFMN@?9?9?9?5CreateMetaSurfaces?5?9?9?9?6?$AA@ 000000014008b910     optimize.obj
 0002:00005930       ??_C@_0BH@DACNKKHE@?$CF9d?5BSP?5draw?5surfaces?6?$AA@ 000000014008b930     optimize.obj
 0002:00005948       ??_C@_0BE@IIELBKON@?$CF9d?5BSP?5draw?5verts?6?$AA@ 000000014008b948     optimize.obj
 0002:00005960       ??_C@_0BG@EMOIPNGL@?$CF9d?5BSP?5draw?5indexes?6?$AA@ 000000014008b960     optimize.obj
 0002:00005978       ??_C@_0BO@GFCCEBKN@?9?9?9?5FindMergableSurfaces?5?9?9?9?6?$AA@ 000000014008b978     optimize.obj
 0002:00005998       ??_C@_0BF@DOLEBMGK@?$CF9d?5unique?5surfaces?6?$AA@ 000000014008b998     optimize.obj
 0002:000059b0       ??_C@_0BC@OPFDMALD@?$CF9d?5unique?5verts?6?$AA@ 000000014008b9b0     optimize.obj
 0002:000059c8       ??_C@_0BE@ONGNBGD@?$CF9d?5unique?5indexes?6?$AA@ 000000014008b9c8     optimize.obj
 0002:000059e0       ??_C@_0BL@JOHGAHC@?$CF9d?5surfaces?5to?5be?5merged?6?$AA@ 000000014008b9e0     optimize.obj
 0002:00005a00       ??_C@_0BL@JNDECLNM@?9?9?9?5MergeLeafSurfaces?5?9?9?9?6?$AA@ 000000014008ba00     optimize.obj
 0002:00005a20       ??_C@_0BM@ENHKPBEI@?$CF9d?5surfaces?5after?5merging?6?$AA@ 000000014008ba20     optimize.obj
 0002:00005a40       ??_C@_0BI@ELAJLLA@?9?9?9?5MergeDrawVerts?5?9?9?9?6?$AA@ 000000014008ba40     optimize.obj
 0002:00005a58       ??_C@_0BJ@FPBLHHBB@?9?9?9?5CreateMetaVerts?5?9?9?9?6?$AA@ 000000014008ba58     optimize.obj
 0002:00005a78       ??_C@_0BL@PPBPHPMK@?9?9?9?5FindMergableVerts?5?9?9?9?6?$AA@ 000000014008ba78     optimize.obj
 0002:00005a98       ??_C@_0BI@NJAFDNBF@?$CF9d?5verts?5to?5be?5merged?6?$AA@ 000000014008ba98     optimize.obj
 0002:00005ab0       ??_C@_0CK@BAHDHHNI@WARNING?3?5drawvert?5?$CFi?5out?5of?5rang@ 000000014008bab0     optimize.obj
 0002:00005ae0       ??_C@_0CG@DOEBPNNH@WARNING?3?5Degraded?5new?5index?5?$CFi?5?$CF@ 000000014008bae0     optimize.obj
 0002:00005b08       ??_C@_0BH@BOFHNDOB@?$CF9d?5verts?5after?5merge?6?$AA@ 000000014008bb08     optimize.obj
 0002:00005b20       ??_C@_0BJ@LJNEGGDH@?$CF9d?5indexes?5after?5merge?6?$AA@ 000000014008bb20     optimize.obj
 0002:00005b40       ??_C@_0BH@PIGENNIL@?$CF9d?5triangles?5removed?6?$AA@ 000000014008bb40     optimize.obj
 0002:00005b58       ??_C@_0DO@GAKOHGIF@?$CD?5Wavefront?5Objectfile?5containin@ 000000014008bb58     optimize.obj
 0002:00005b98       ??_C@_0BF@CHONJKHI@?$CD?5Resource?5listing?3?6?$AA@ 000000014008bb98     optimize.obj
 0002:00005bb0       ??_C@_0BB@EKPMOEMD@?$CD?5material?5?$CC?$CFs?$CC?6?$AA@ 000000014008bbb0     optimize.obj
 0002:00005bc8       ??_C@_0P@EGFJCKFB@?$CFs?1lm_?$CF04d?4tga?$AA@ 000000014008bbc8     optimize.obj
 0002:00005bd8       ??_C@_0BO@LEMECHLI@?$CD?5lightmap?5?$CCmaps?1?$CFs?1lm_?$CF04d?$CC?6?$AA@ 000000014008bbd8     optimize.obj
 0002:00005bf8       ??_C@_0P@HBHINBCE@misc_gamemodel?$AA@ 000000014008bbf8     optimize.obj
 0002:00005c08       ??_C@_01NBENCBCI@?$CK?$AA@ 000000014008bc08     optimize.obj
 0002:00005c10       ??_C@_0BD@GJNOICME@?$CD?5model?5?$CC?$CFs?$CC?5?$CC?$CFi?$CC?6?$AA@ 000000014008bc10     optimize.obj
 0002:00005c28       ??_C@_0CM@HBNHLBNN@?$CD?5Loadable?5geometry?5?$CImaterial?5re@ 000000014008bc28     optimize.obj
 0002:00005c58       ??_C@_07KDFJKODH@g?5base?6?$AA@ 000000014008bc58     optimize.obj
 0002:00005c60       ??_C@_0BP@JBIDMPFF@v?5?90?4000000?50?4000000?57?4000000?6?$AA@ 000000014008bc60     optimize.obj
 0002:00005c80       ??_C@_0CA@CCDCLDEI@v?5?97?4000000?50?4000000?5?94?4000000?6?$AA@ 000000014008bc80     optimize.obj
 0002:00005ca0       ??_C@_0BP@HLFDODOI@v?57?4000000?50?4000000?5?94?4000000?6?$AA@ 000000014008bca0     optimize.obj
 0002:00005cc0       ??_C@_09PLGPIKMH@vn?50?50?51?6?$AA@ 000000014008bcc0     optimize.obj
 0002:00005cd0       ??_C@_0BI@DFHNFCPA@vt?5?90?4000000?5?90?4218750?6?$AA@ 000000014008bcd0     optimize.obj
 0002:00005ce8       ??_C@_0BH@ODINKKPE@vt?5?90?4218750?50?4125000?6?$AA@ 000000014008bce8     optimize.obj
 0002:00005d00       ??_C@_0BG@OHGOEKEF@vt?50?4218750?50?4125000?6?$AA@ 000000014008bd00     optimize.obj
 0002:00005d18       ??_C@_0L@MGANIKCK@usemtl?5?$CFs?6?$AA@ 000000014008bd18     optimize.obj
 0002:00005d28       ??_C@_0P@INIJOOE@f?53?13?52?12?51?11?6?$AA@ 000000014008bd28     optimize.obj
 0002:00005d38       ??_C@_0BI@EFHOFBIA@usemtl?5maps?1?$CFs?1lm_?$CF04d?6?$AA@ 000000014008bd38     optimize.obj
 0002:00005d50       ??_C@_0CC@MANCPHBE@Usage?3?5q3map?5?9optimize?5?$DMmapname?$DO@ 000000014008bd50     optimize.obj
 0002:00005d78       ??_C@_0BC@KLLAAOPC@?9?9?9?5Optimize?5?9?9?9?6?$AA@ 000000014008bd78     optimize.obj
 0002:00005d90       ??_C@_0M@MFOMMCGD@?9mergeblock?$AA@ 000000014008bd90     optimize.obj
 0002:00005da0       ??_C@_0CF@BMOPGNPO@Merge?5block?5set?5to?5?$HL?$CF?41f?5?$CF?41f?5?$CF?4@ 000000014008bda0     optimize.obj
 0002:00005dc8       ??_C@_0N@KBGFEFHI@?9onlyshaders?$AA@ 000000014008bdc8     optimize.obj
 0002:00005dd8       ??_C@_0CF@BEJLFOJG@Only?5optimizing?5material?5referen@ 000000014008bdd8     optimize.obj
 0002:00005e00       ??_C@_0N@OGADFJPN@?9tidyshaders?$AA@ 000000014008be00     optimize.obj
 0002:00005e10       ??_C@_0CN@HNAACDBI@Enabled?5optimisation?5of?5material@ 000000014008be10     optimize.obj
 0002:00005e40       ??_C@_0P@NAPIKOED@?9notidyshaders?$AA@ 000000014008be40     optimize.obj
 0002:00005e50       ??_C@_0CO@PPFBHCNJ@Disabled?5optimisation?5of?5materia@ 000000014008be50     optimize.obj
 0002:00005e80       ??_C@_0P@LNEHBNBO@?9mergesurfaces?$AA@ 000000014008be80     optimize.obj
 0002:00005e90       ??_C@_0CO@NCAHMFOL@Enabled?5merging?5of?5same?9shader?5d@ 000000014008be90     optimize.obj
 0002:00005ec0       ??_C@_0BB@OENIMPGM@?9nomergesurfaces?$AA@ 000000014008bec0     optimize.obj
 0002:00005ed8       ??_C@_0CP@DOOGGGJM@Disabled?5merging?5of?5same?9shader?5@ 000000014008bed8     optimize.obj
 0002:00005f08       ??_C@_0M@GJLKECHB@?9mergeverts?$AA@ 000000014008bf08     optimize.obj
 0002:00005f18       ??_C@_0CN@ELECMBKC@Enabled?5merging?5of?5coincident?5dr@ 000000014008bf18     optimize.obj
 0002:00005f48       ??_C@_0O@JBAHAKNL@?9nomergeverts?$AA@ 000000014008bf48     optimize.obj
 0002:00005f58       ??_C@_0CO@MJBDJAGD@Disabled?5merging?5of?5coincident?5d@ 000000014008bf58     optimize.obj
 0002:00005f88       ??_C@_09EKCIJAOL@?9tidyents?$AA@ 000000014008bf88     optimize.obj
 0002:00005f98       ??_C@_0CK@KKFBAPME@Enabled?5optimisation?5of?5entity?5d@ 000000014008bf98     optimize.obj
 0002:00005fc8       ??_C@_0M@MMAEIOEH@?9notidyents?$AA@ 000000014008bfc8     optimize.obj
 0002:00005fd8       ??_C@_0CL@PLNPDGBL@Disabled?5optimisation?5of?5entity?5@ 000000014008bfd8     optimize.obj
 0002:00006008       ??_C@_07MKHEGFNK@?9resmap?$AA@ 000000014008c008     optimize.obj
 0002:00006010       ??_C@_0BJ@EMKIMLGE@Generating?5resource?5map?6?$AA@ 000000014008c010     optimize.obj
 0002:00006030       ??_C@_0BO@LHDIECLL@WARNING?3?5Unknown?5option?5?$CC?$CFs?$CC?6?$AA@ 000000014008c030     optimize.obj
 0002:00006050       ??_C@_08CAHNNCPD@?4res?4obj?$AA@ 000000014008c050     optimize.obj
 0002:00006060       ??_C@_0BH@EGCBBIJG@?9?9?9?5PatchEntities?5?9?9?9?6?$AA@ 000000014008c060     patchbsp.obj
 0002:00006078       ??_C@_08BMKPIIHI@trigger_?$AA@ 000000014008c078     patchbsp.obj
 0002:00006088       ??_C@_0CD@JBDNEHGP@?$CF9d?5?4bsp?5submodel?5entities?5copie@ 000000014008c088     patchbsp.obj
 0002:000060b0       ??_C@_0CE@PAAFIHAJ@?$CF9d?5?4bsp?5submodel?5entities?5patch@ 000000014008c0b0     patchbsp.obj
 0002:000060d8       ??_C@_0CB@CEKGGAGM@?$CF9d?5?4bsp?5point?5entities?5skipped?6@ 000000014008c0d8     patchbsp.obj
 0002:000060fc       ??_C@_04FIAKMPII@mins?$AA@ 000000014008c0fc     patchbsp.obj
 0002:00006104       ??_C@_04IFBFDIKF@maxs?$AA@ 000000014008c104     patchbsp.obj
 0002:00006110       ??_C@_0CA@BPPJLNN@?$CF9d?5?4map?5point?5entities?5copied?6?$AA@ 000000014008c110     patchbsp.obj
 0002:00006130       ??_C@_0BK@EKOEHAAL@?$CF9d?5?4map?5triggers?5copied?6?$AA@ 000000014008c130     patchbsp.obj
 0002:00006150       ??_C@_0CE@NMDGNANB@?$CF9d?5?4map?5submodel?5entities?5skipp@ 000000014008c150     patchbsp.obj
 0002:00006178       ??_C@_0CC@PGALLGL@Usage?3?5q3map?5?9entities?5?$DMmapname?$DO@ 000000014008c178     patchbsp.obj
 0002:000061a0       ??_C@_0BC@OKEHIFAB@?9?9?9?5PatchBSP?5?9?9?9?6?$AA@ 000000014008c1a0     patchbsp.obj
 0002:000061b4       ??_C@_06OEPGEIMH@?$CFs?4bsp?$AA@ 000000014008c1b4     patchbsp.obj
 0002:000061bc       ??_C@_04OCLKAFDL@?4reg?$AA@ 000000014008c1bc     patchbsp.obj
 0002:000061c4       ??_C@_06KJMHEEAM@?$CFs?4reg?$AA@ 000000014008c1c4     patchbsp.obj
 0002:000061cc       ??_C@_04OIEKGOLI@?4map?$AA@ 000000014008c1cc     patchbsp.obj
 0002:000061d8       ??_C@_07HOJDMNBL@?9source?$AA@ 000000014008c1d8     patchbsp.obj
 0002:000061e0       ??_C@_04HKKABCEL@?9out?$AA@ 000000014008c1e0     patchbsp.obj
 0002:000061e8       ??_C@_09BOGNDEDE@?9entityid?$AA@ 000000014008c1e8     patchbsp.obj
 0002:000061f8       ??_C@_0DD@HIGEDAPM@Using?5entity?5key?5?$CC?$CFs?$CC?5as?5unique?5@ 000000014008c1f8     patchbsp.obj
 0002:00006230       ??_C@_09JKLOBHGO@?9triggers?$AA@ 000000014008c230     patchbsp.obj
 0002:00006240       ??_C@_0CN@FCDKGCNM@Enable?5patching?5BSP?5by?5map?5trigg@ 000000014008c240     patchbsp.obj
 0002:00006270       ??_C@_0CH@EOPKLDGO@Patching?5BSP?5entities?5by?5MAP?5ent@ 000000014008c270     patchbsp.obj
 0002:00006298       ??_C@_0BB@OAFLJEBI@?9?9?9?5LoadMap?5?9?9?9?6?$AA@ 000000014008c298     patchbsp.obj
 0002:000062b0       ??_C@_0BJ@GEPJHBJA@?9?9?9?5CompileEntities?5?9?9?9?6?$AA@ 000000014008c2b0     patchbsp.obj
 0002:000062d0       ??_C@_0BC@CNBMOAAJ@?4?4?2src?2patchbsp?4c?$AA@ 000000014008c2d0     patchbsp.obj
 0002:000062e8       ??_C@_0BB@DHLHDGFF@?9?9?9?5LoadBSP?5?9?9?9?6?$AA@ 000000014008c2e8     patchbsp.obj
 0002:00006300       ??_C@_0BB@COMHBAKB@?$CF9d?5entDataSize?6?$AA@ 000000014008c300     patchbsp.obj
 0002:00006314       ??_C@_06LDFHEHOK@quake1?$AA@ 000000014008c314     path_init.obj
 0002:0000631c       ??_C@_06JIHKBECJ@quake2?$AA@ 000000014008c31c     path_init.obj
 0002:00006324       ??_C@_06OBIKIAAF@unreal?$AA@ 000000014008c324     path_init.obj
 0002:0000632c       ??_C@_05PDELPFPK@ut2k3?$AA@ 000000014008c32c     path_init.obj
 0002:00006334       ??_C@_04KJCKKMDF@dn3d?$AA@ 000000014008c334     path_init.obj
 0002:0000633c       ??_C@_03BLBBGKLM@dnf?$AA@  000000014008c33c     path_init.obj
 0002:00006340       ??_C@_02IPDCJINO@hl?$AA@   000000014008c340     path_init.obj
 0002:00006348       ??_C@_0BM@GCDEACGB@April?5fools?0?5silly?5rabbit?$CB?6?$AA@ 000000014008c348     path_init.obj
 0002:00006368       ??_C@_0BD@DGDBBJIA@?4?4?2src?2path_init?4c?$AA@ 000000014008c368     path_init.obj
 0002:00006380       ??_C@_0BD@HHPHGECB@?9?9?9?5InitPaths?5?9?9?9?6?$AA@ 000000014008c380     path_init.obj
 0002:00006394       ??_C@_05FACLEBO@?9game?$AA@ 000000014008c394     path_init.obj
 0002:000063a0       ??_C@_0CN@HOLBDHEP@Out?5of?5arguments?3?5No?5game?5specif@ 000000014008c3a0     path_init.obj
 0002:000063d0       ??_C@_0N@IDJALOPL@?9fs_basepath?$AA@ 000000014008c3d0     path_init.obj
 0002:000063e0       ??_C@_0CO@BDCPMBKC@Out?5of?5arguments?3?5No?5path?5specif@ 000000014008c3e0     path_init.obj
 0002:00006410       ??_C@_08KMJJKLKH@?9fs_game?$AA@ 000000014008c410     path_init.obj
 0002:00006420       ??_C@_0CE@EDELAEGI@Searching?5for?5?$CC?$CFs?$CC?5in?5?$CC?$CFs?$CC?5?$CI?$CFd?$CJ?4@ 000000014008c420     path_init.obj
 0002:00006448       ??_C@_0CC@DJKPBCHN@Failed?5to?5find?5a?5valid?5base?5path@ 000000014008c448     path_init.obj
 0002:0000646c       ??_C@_06OCHGEAGI@?$CFs?1?$CFs?1?$AA@ 000000014008c46c     path_init.obj
 0002:00006478       ??_C@_0BK@JEMGMOCH@?$CFs?1?4?4?1?$CFs?1q3map2_?$CFs?4shader?$AA@ 000000014008c478     shaders.obj
 0002:00006498       ??_C@_0BK@KPDDIBGF@Map?5has?5shader?5script?5?$CFs?6?$AA@ 000000014008c498     shaders.obj
 0002:000064b8       ??_C@_0BM@OMBKKDKM@?9?9?9?5WriteMapShaderFile?5?9?9?9?6?$AA@ 000000014008c4b8     shaders.obj
 0002:000064d8       ??_C@_0L@HCPPLGMF@Writing?5?$CFs?$AA@ 000000014008c4d8     shaders.obj
 0002:000064e4       ??_C@_01NOFIACDB@w?$AA@    000000014008c4e4     shaders.obj
 0002:000064e8       ??_C@_0DI@NDKFCONB@WARNING?3?5Unable?5to?5open?5map?5shad@ 000000014008c4e8     shaders.obj
 0002:00006520       ??_C@_0HK@COAKFNBM@?1?1?5Custom?5shader?5file?5for?5?$CFs?4bsp@ 000000014008c520     shaders.obj
 0002:0000659c       ??_C@_05JMJKDBEJ@?$CFs?$CFs?6?$AA@ 000000014008c59c     shaders.obj
 0002:000065a4       ??_C@_01LFCBOECM@?4?$AA@   000000014008c5a4     shaders.obj
 0002:000065a8       ??_C@_0BM@PAOGNHGB@?$CF9d?5custom?5shaders?5emitted?6?$AA@ 000000014008c5a8     shaders.obj
 0002:000065d0       ??_C@_0KF@LIGLBDKM@?6?$HL?5?1?1?5Q3Map2?5defaulted?5?$CIimplicit@ 000000014008c5d0     shaders.obj
 0002:00006680       ??_C@_0BAD@FKKDIMPI@?6?$HL?5?1?1?5Q3Map2?5defaulted?5?$CIimplicit@ 000000014008c680     shaders.obj
 0002:00006790       ??_C@_0NA@NHNGOKAK@?6?$HL?5?1?1?5Q3Map2?5defaulted?5?$CIimplicit@ 000000014008c790     shaders.obj
 0002:00006860       ??_C@_0JL@HDLINLPJ@?6?$HL?5?1?1?5Q3Map2?5defaulted?6?7?$HL?6?7?7map?5@ 000000014008c860     shaders.obj
 0002:00006900       ??_C@_0EB@OCMILGNH@Custom?5shader?5name?5length?5?$CI?$CFd?$CJ?5e@ 000000014008c900     shaders.obj
 0002:00006950       ??_C@_0EE@MDJHMAAC@?$CFs?1?$CF02X?$CF02X?$CF02X?$CF02X?$CF02X?$CF02X?$CF02X?$CF@ 000000014008c950     shaders.obj
 0002:00006998       ??_C@_0BB@IDFHAOCK@?4?4?2src?2shaders?4c?$AA@ 000000014008c998     shaders.obj
 0002:000069b0       ??_C@_0GF@ICKENDIH@MAX_SHADER_INFO?5exceeded?4?5Remove@ 000000014008c9b0     shaders.obj
 0002:00006a18       ??_C@_08POLIGIOH@noshader?$AA@ 000000014008ca18     shaders.obj
 0002:00006a28       ??_C@_0CM@GNPJPFFH@WARNING?3?5Couldn?8t?5find?5image?5for@ 000000014008ca28     shaders.obj
 0002:00006a58       ??_C@_0BJ@ICEOLHLD@Shader?5?$CFs?5has?6?5?5?5?5NM?5?$CFs?6?$AA@ 000000014008ca58     shaders.obj
 0002:00006a78       ??_C@_0CE@HBNJHHLF@WARNING?3?5Null?5or?5empty?5shader?5na@ 000000014008ca78     shaders.obj
 0002:00006aa0       ??_C@_07NCACNKHJ@missing?$AA@ 000000014008caa0     shaders.obj
 0002:00006ab0       ??_C@_0EA@KBJJIFPP@WARNING?3?5Max?5deprecation?5depth?5o@ 000000014008cab0     shaders.obj
 0002:00006af0       ??_C@_01GPOEFGEJ@?7?$AA@   000000014008caf0     shaders.obj
 0002:00006af4       ??_C@_01CLKCMJKC@?5?$AA@   000000014008caf4     shaders.obj
 0002:00006af8       ??_C@_01ODHLEDKK@?$CI?$AA@ 000000014008caf8     shaders.obj
 0002:00006b00       ??_C@_0CN@ECLGCCNL@Parse1DMatrixAppend?$CI?$CJ?3?5line?5?$CFd?3?5@ 000000014008cb00     shaders.obj
 0002:00006b30       ??_C@_0DC@MMAMMDH@Parse1DMatrixAppend?$CI?$CJ?3?5line?5?$CFd?3?5@ 000000014008cb30     shaders.obj
 0002:00006b64       ??_C@_01PKGAHCOL@?$CJ?$AA@ 000000014008cb64     shaders.obj
 0002:00006b68       ??_C@_0CN@JPCAPLFO@Parse1DMatrixAppend?$CI?$CJ?3?5line?5?$CFd?3?5@ 000000014008cb68     shaders.obj
 0002:00006b98       ??_C@_06OHBJDBJA@?3q3map?$AA@ 000000014008cb98     shaders.obj
 0002:00006ba0       ??_C@_0FF@DGLLACIG@ParseShaderFile?$CI?$CJ?3?5?$CFs?0?5line?5?$CFd?3?5@ 000000014008cba0     shaders.obj
 0002:00006bf8       ??_C@_0DP@NOOMHOJL@ParseShaderFile?$CI?$CJ?3?5?$CFs?0?5line?5?$CFd?3?5@ 000000014008cbf8     shaders.obj
 0002:00006c38       ??_C@_08JEHBAANP@clampMap?$AA@ 000000014008cc38     shaders.obj
 0002:00006c48       ??_C@_07BMBIACGE@animMap?$AA@ 000000014008cc48     shaders.obj
 0002:00006c50       ??_C@_0N@FELJGLCN@clampAnimMap?$AA@ 000000014008cc50     shaders.obj
 0002:00006c60       ??_C@_07OEPGDLCF@mapComp?$AA@ 000000014008cc60     shaders.obj
 0002:00006c68       ??_C@_09CBJEELNM@mapNoComp?$AA@ 000000014008cc68     shaders.obj
 0002:00006c78       ??_C@_0M@IGAGIIGH@surfaceparm?$AA@ 000000014008cc78     shaders.obj
 0002:00006c88       ??_C@_0CE@IKJFBCKC@WARNING?3?5Unknown?5surfaceparm?3?5?$CC?$CF@ 000000014008cc88     shaders.obj
 0002:00006cb0       ??_C@_08FLAOJKGO@fogparms?$AA@ 000000014008ccb0     shaders.obj
 0002:00006cc0       ??_C@_0O@PJPLHMPB@polygonoffset?$AA@ 000000014008ccc0     shaders.obj
 0002:00006cd0       ??_C@_08EPFBNHI@tessSize?$AA@ 000000014008ccd0     shaders.obj
 0002:00006ce0       ??_C@_0P@BBCKHPGL@q3map_tessSize?$AA@ 000000014008cce0     shaders.obj
 0002:00006cf0       ??_C@_04DDCLEDDO@cull?$AA@ 000000014008ccf0     shaders.obj
 0002:00006cf8       ??_C@_04CGFJFPFD@none?$AA@ 000000014008ccf8     shaders.obj
 0002:00006d00       ??_C@_07DBNODEFN@disable?$AA@ 000000014008cd00     shaders.obj
 0002:00006d08       ??_C@_08INIPHAGC@twosided?$AA@ 000000014008cd08     shaders.obj
 0002:00006d18       ??_C@_0P@FJMHOEJC@deformVertexes?$AA@ 000000014008cd18     shaders.obj
 0002:00006d28       ??_C@_0L@OJCKPKMG@autosprite?$AA@ 000000014008cd28     shaders.obj
 0002:00006d34       ??_C@_04HDMMNHEL@move?$AA@ 000000014008cd34     shaders.obj
 0002:00006d3c       ??_C@_05OEPGNJB@light?$AA@ 000000014008cd3c     shaders.obj
 0002:00006d48       ??_C@_0N@DNMDINBK@damageShader?$AA@ 000000014008cd48     shaders.obj
 0002:00006d58       ??_C@_0M@LPIIOOGK@implicitMap?$AA@ 000000014008cd58     shaders.obj
 0002:00006d64       ??_C@_06NJHCGIDI@?$CFs?4tga?$AA@ 000000014008cd64     shaders.obj
 0002:00006d70       ??_C@_0N@CJJHAMJN@implicitMask?$AA@ 000000014008cd70     shaders.obj
 0002:00006d80       ??_C@_0O@PFHJGKJK@implicitBlend?$AA@ 000000014008cd80     shaders.obj
 0002:00006d90       ??_C@_0BA@LAIPCEL@qer_editorImage?$AA@ 000000014008cd90     shaders.obj
 0002:00006da0       ??_C@_0BD@PBEELBGL@q3map_textureImage?$AA@ 000000014008cda0     shaders.obj
 0002:00006db8       ??_C@_0BC@EJBILALP@q3map_normalImage?$AA@ 000000014008cdb8     shaders.obj
 0002:00006dd0       ??_C@_0BB@JNEBKIEN@q3map_lightImage?$AA@ 000000014008cdd0     shaders.obj
 0002:00006de8       ??_C@_08JFOHBAP@skyParms?$AA@ 000000014008cde8     shaders.obj
 0002:00006df4       ??_C@_01JOAMLHOP@?9?$AA@   000000014008cdf4     shaders.obj
 0002:00006df8       ??_C@_04PLMLMMEO@full?$AA@ 000000014008cdf8     shaders.obj
 0002:00006e00       ??_C@_09OOIJJCMH@?$CFs_up?4tga?$AA@ 000000014008ce00     shaders.obj
 0002:00006e0c       ??_C@_03OHFMDAD@sun?$AA@   000000014008ce0c     shaders.obj
 0002:00006e10       ??_C@_09BFMCMBDI@q3map_sun?$AA@ 000000014008ce10     shaders.obj
 0002:00006e20       ??_C@_0N@DAIINMLL@q3map_sunExt?$AA@ 000000014008ce20     shaders.obj
 0002:00006e30       ??_C@_0N@JALKHDIF@q3map_sunext?$AA@ 000000014008ce30     shaders.obj
 0002:00006e40       ??_C@_06CBIIIEEM@q3map_?$AA@ 000000014008ce40     shaders.obj
 0002:00006e48       ??_C@_0BB@IEAKFJFJ@q3map_baseShader?$AA@ 000000014008ce48     shaders.obj
 0002:00006e60       ??_C@_0BD@DIDPKAD@q3map_surfacemodel?$AA@ 000000014008ce60     shaders.obj
 0002:00006e78       ??_C@_0O@MJHEOHMH@q3map_foliage?$AA@ 000000014008ce78     shaders.obj
 0002:00006e88       ??_C@_0N@HAMFILBB@q3map_bounce?$AA@ 000000014008ce88     shaders.obj
 0002:00006e98       ??_C@_0BC@FBNGOIFB@q3map_bounceScale?$AA@ 000000014008ce98     shaders.obj
 0002:00006eb0       ??_C@_0P@HGKIGJLM@q3map_skyLight?$AA@ 000000014008ceb0     shaders.obj
 0002:00006ec0       ??_C@_0BD@NPOJHIOC@q3map_surfacelight?$AA@ 000000014008cec0     shaders.obj
 0002:00006ed8       ??_C@_0BB@MLAEOMNC@q3map_lightStyle?$AA@ 000000014008ced8     shaders.obj
 0002:00006ef0       ??_C@_0P@JKAIINK@q3map_lightRGB?$AA@ 000000014008cef0     shaders.obj
 0002:00006f00       ??_C@_0BF@FBBAGADA@q3map_lightSubdivide?$AA@ 000000014008cf00     shaders.obj
 0002:00006f18       ??_C@_0BB@HKLAKBOK@q3map_backsplash?$AA@ 000000014008cf18     shaders.obj
 0002:00006f30       ??_C@_0BB@JHKHAAMA@q3map_floodLight?$AA@ 000000014008cf30     shaders.obj
 0002:00006f48       ??_C@_0BJ@OPLDHPP@q3map_lightmapSampleSize?$AA@ 000000014008cf48     shaders.obj
 0002:00006f68       ??_C@_0BL@KPJMNFBA@q3map_lightmapSampleOffset?$AA@ 000000014008cf68     shaders.obj
 0002:00006f88       ??_C@_0BL@BPAPFLGO@q3map_lightmapFilterRadius?$AA@ 000000014008cf88     shaders.obj
 0002:00006fa8       ??_C@_0BD@EACKNPEJ@q3map_lightmapAxis?$AA@ 000000014008cfa8     shaders.obj
 0002:00006fbc       ??_C@_01FJMABOPO@x?$AA@    000000014008cfbc     shaders.obj
 0002:00006fc0       ??_C@_01EANLCPLP@y?$AA@    000000014008cfc0     shaders.obj
 0002:00006fc4       ??_C@_01GLPGHMHM@z?$AA@    000000014008cfc4     shaders.obj
 0002:00006fc8       ??_C@_0CO@HIHLFEMO@WARNING?3?5Unknown?5value?5for?5light@ 000000014008cfc8     shaders.obj
 0002:00006ff8       ??_C@_0BD@LAFHIDKP@q3map_lightmapSize?$AA@ 000000014008cff8     shaders.obj
 0002:00007010       ??_C@_0DM@FMEMMJCI@WARNING?3?5Non?5power?9of?9two?5lightm@ 000000014008d010     shaders.obj
 0002:00007050       ??_C@_0BJ@LKGDMHNL@q3map_lightmapBrightness?$AA@ 000000014008d050     shaders.obj
 0002:00007070       ??_C@_0BE@FBNFIGMO@q3map_lightmapGamma?$AA@ 000000014008d070     shaders.obj
 0002:00007088       ??_C@_0BC@KHDDEBEJ@q3map_vertexScale?$AA@ 000000014008d088     shaders.obj
 0002:000070a0       ??_C@_0BI@BJGLOBE@q3map_vertexPointSample?$AA@ 000000014008d0a0     shaders.obj
 0002:000070b8       ??_C@_0O@HAHIKMOG@q3map_aoScale?$AA@ 000000014008d0b8     shaders.obj
 0002:000070c8       ??_C@_0BC@GDAOPEH@q3map_aoGainScale?$AA@ 000000014008d0c8     shaders.obj
 0002:000070e0       ??_C@_0BE@OKOKBBLL@q3map_noVertexLight?$AA@ 000000014008d0e0     shaders.obj
 0002:000070f8       ??_C@_0M@NCILAOEO@q3map_flare?$AA@ 000000014008d0f8     shaders.obj
 0002:00007108       ??_C@_0BC@ILKOFHBC@q3map_flareShader?$AA@ 000000014008d108     shaders.obj
 0002:00007120       ??_C@_0BB@DNEAAJBK@q3map_backShader?$AA@ 000000014008d120     shaders.obj
 0002:00007138       ??_C@_0BC@EHDAKBNE@q3map_cloneShader?$AA@ 000000014008d138     shaders.obj
 0002:00007150       ??_C@_0BC@EENHBOGB@q3map_remapShader?$AA@ 000000014008d150     shaders.obj
 0002:00007168       ??_C@_0BG@HBNHJAN@q3map_deprecateShader?$AA@ 000000014008d168     shaders.obj
 0002:00007180       ??_C@_0BD@KNJILPMB@q3map_engineShader?$AA@ 000000014008d180     shaders.obj
 0002:00007198       ??_C@_0N@OEHKIGKL@q3map_offset?$AA@ 000000014008d198     shaders.obj
 0002:000071a8       ??_C@_09JEHCDLMI@q3map_fur?$AA@ 000000014008d1a8     shaders.obj
 0002:000071b8       ??_C@_0O@JEBMLPGG@q3map_terrain?$AA@ 000000014008d1b8     shaders.obj
 0002:000071c8       ??_C@_0BA@EIGKGMKI@q3map_forceMeta?$AA@ 000000014008d1c8     shaders.obj
 0002:000071d8       ??_C@_0N@IMDAOFNC@q3map_noMeta?$AA@ 000000014008d1d8     shaders.obj
 0002:000071e8       ??_C@_0BB@CIFMEAEB@q3map_shadeAngle?$AA@ 000000014008d1e8     shaders.obj
 0002:00007200       ??_C@_0BC@CKPMIKGB@q3map_textureSize?$AA@ 000000014008d200     shaders.obj
 0002:00007218       ??_C@_0M@GBABKGND@q3map_tcGen?$AA@ 000000014008d218     shaders.obj
 0002:00007224       ??_C@_06NBFPPGEG@vector?$AA@ 000000014008d224     shaders.obj
 0002:00007230       ??_C@_07OGLFENMB@ivector?$AA@ 000000014008d230     shaders.obj
 0002:00007238       ??_C@_0CJ@EEOLKJLJ@WARNING?3?5Unknown?5q3map_tcGen?5met@ 000000014008d238     shaders.obj
 0002:00007268       ??_C@_0BC@NEDJBACD@q3map_alphaLayers?$AA@ 000000014008d268     shaders.obj
 0002:00007280       ??_C@_0P@OFALIBOD@q3map_colorGen?$AA@ 000000014008d280     shaders.obj
 0002:00007290       ??_C@_0P@HNMOAMNL@q3map_colorMod?$AA@ 000000014008d290     shaders.obj
 0002:000072a0       ??_C@_0N@BDMLJLON@q3map_rgbGen?$AA@ 000000014008d2a0     shaders.obj
 0002:000072b0       ??_C@_0N@ILAOBGNF@q3map_rgbMod?$AA@ 000000014008d2b0     shaders.obj
 0002:000072c0       ??_C@_0P@NPEJIFNG@q3map_alphaGen?$AA@ 000000014008d2c0     shaders.obj
 0002:000072d0       ??_C@_0P@EHIMAIOO@q3map_alphaMod?$AA@ 000000014008d2d0     shaders.obj
 0002:000072e0       ??_C@_03KCHOJKKI@set?$AA@  000000014008d2e0     shaders.obj
 0002:000072e4       ??_C@_05BNCCCJPP@const?$AA@ 000000014008d2e4     shaders.obj
 0002:000072ec       ??_C@_05MHMEBBGO@scale?$AA@ 000000014008d2ec     shaders.obj
 0002:000072f4       ??_C@_06NLFCANPD@random?$AA@ 000000014008d2f4     shaders.obj
 0002:00007300       ??_C@_0N@DAGJJMLM@randomjitter?$AA@ 000000014008d300     shaders.obj
 0002:00007310       ??_C@_0M@HJPDFLGI@randomscale?$AA@ 000000014008d310     shaders.obj
 0002:00007320       ??_C@_0L@BPDEKBGO@dotProduct?$AA@ 000000014008d320     shaders.obj
 0002:00007330       ??_C@_0M@EHGFCMIP@dotProduct2?$AA@ 000000014008d330     shaders.obj
 0002:0000733c       ??_C@_06CIAPFFAP@invert?$AA@ 000000014008d33c     shaders.obj
 0002:00007344       ??_C@_06EMCPHFGM@volume?$AA@ 000000014008d344     shaders.obj
 0002:00007350       ??_C@_0L@PNIALNHI@wateralpha?$AA@ 000000014008d350     shaders.obj
 0002:00007360       ??_C@_0M@DJOKLIOM@waterspring?$AA@ 000000014008d360     shaders.obj
 0002:00007370       ??_C@_09LOJHBDME@watermove?$AA@ 000000014008d370     shaders.obj
 0002:00007380       ??_C@_09EEKEKFBM@waterwarp?$AA@ 000000014008d380     shaders.obj
 0002:00007390       ??_C@_0CG@JAPDOFEK@WARNING?3?5Unknown?5colorMod?5method@ 000000014008d390     shaders.obj
 0002:000073b8       ??_C@_0M@PJMECLOL@q3map_tcMod?$AA@ 000000014008d3b8     shaders.obj
 0002:000073c8       ??_C@_09ODNGOEIO@translate?$AA@ 000000014008d3c8     shaders.obj
 0002:000073d4       ??_C@_05CLOOKOFG@shift?$AA@ 000000014008d3d4     shaders.obj
 0002:000073dc       ??_C@_06KLHHMIGM@offset?$AA@ 000000014008d3dc     shaders.obj
 0002:000073e4       ??_C@_06CEHMNFAL@rotate?$AA@ 000000014008d3e4     shaders.obj
 0002:000073f0       ??_C@_0CJ@FGALEBI@WARNING?3?5Unknown?5q3map_tcMod?5met@ 000000014008d3f0     shaders.obj
 0002:00007420       ??_C@_0N@FJDBCFPK@q3map_fogDir?$AA@ 000000014008d420     shaders.obj
 0002:00007430       ??_C@_0BE@ILLHABDA@q3map_globaltexture?$AA@ 000000014008d430     shaders.obj
 0002:00007448       ??_C@_0BA@KJKCLKKO@q3map_nonplanar?$AA@ 000000014008d448     shaders.obj
 0002:00007458       ??_C@_0N@MIOOCIAO@q3map_noclip?$AA@ 000000014008d458     shaders.obj
 0002:00007468       ??_C@_0M@FNLKNFDO@q3map_nobsp?$AA@ 000000014008d468     shaders.obj
 0002:00007478       ??_C@_0O@DEEEFKJF@q3map_notjunc?$AA@ 000000014008d478     shaders.obj
 0002:00007488       ??_C@_0M@MCGHJMOL@q3map_nofog?$AA@ 000000014008d488     shaders.obj
 0002:00007498       ??_C@_0O@KIAOGMIJ@q3map_indexed?$AA@ 000000014008d498     shaders.obj
 0002:000074a8       ??_C@_0N@GHACBLMI@q3map_invert?$AA@ 000000014008d4a8     shaders.obj
 0002:000074b8       ??_C@_0BH@OJFAHLIG@q3map_lightmapMergable?$AA@ 000000014008d4b8     shaders.obj
 0002:000074d0       ??_C@_0N@EGHILDAF@q3map_noFast?$AA@ 000000014008d4d0     shaders.obj
 0002:000074e0       ??_C@_0BD@PCJJMKEE@q3map_patchShadows?$AA@ 000000014008d4e0     shaders.obj
 0002:000074f8       ??_C@_0BE@CIAGIJMG@q3map_vertexShadows?$AA@ 000000014008d4f8     shaders.obj
 0002:00007510       ??_C@_0BH@BGIMOHA@q3map_vertexShadowBias?$AA@ 000000014008d510     shaders.obj
 0002:00007528       ??_C@_0BG@KPHABPDK@q3map_noVertexShadows?$AA@ 000000014008d528     shaders.obj
 0002:00007540       ??_C@_0BB@PFJGHFCJ@q3map_splotchfix?$AA@ 000000014008d540     shaders.obj
 0002:00007558       ??_C@_0BE@HGMKMNFL@q3map_forceSunlight?$AA@ 000000014008d558     shaders.obj
 0002:00007570       ??_C@_0BJ@KBOMCKPG@q3map_onlyVertexLighting?$AA@ 000000014008d570     shaders.obj
 0002:00007590       ??_C@_0P@LIDLKLNP@q3map_material?$AA@ 000000014008d590     shaders.obj
 0002:000075a0       ??_C@_07HOAKFIBH@?$CKmat_?$CFs?$AA@ 000000014008d5a0     shaders.obj
 0002:000075a8       ??_C@_0CA@ELEJCJCE@WARNING?3?5Unknown?5material?5?$CC?$CFs?$CC?6?$AA@ 000000014008d5a8     shaders.obj
 0002:000075c8       ??_C@_0BA@KHINBOGB@q3map_clipmodel?$AA@ 000000014008d5c8     shaders.obj
 0002:000075d8       ??_C@_0BC@DEJGPLNA@q3map_styleMarker?$AA@ 000000014008d5d8     shaders.obj
 0002:000075f0       ??_C@_0BD@GLJHBAFO@q3map_styleMarker2?$AA@ 000000014008d5f0     shaders.obj
 0002:00007608       ??_C@_0BK@MBMAEOAJ@scripts?1custinfoparms?4txt?$AA@ 000000014008d608     shaders.obj
 0002:00007624       ??_C@_02NJNOFBBI@?$CFx?$AA@ 000000014008d624     shaders.obj
 0002:00007628       ??_C@_0DK@BNDHBHNI@WARNING?3?5Couldn?8t?5find?5valid?5cus@ 000000014008d628     shaders.obj
 0002:00007668       ??_C@_0BI@LECLGNEE@?9?9?9?5LoadShaderInfo?5?9?9?9?6?$AA@ 000000014008d668     shaders.obj
 0002:00007680       ??_C@_0BC@LPNFBFJJ@?$CFs?1shaderlist?4txt?$AA@ 000000014008d680     shaders.obj
 0002:00007698       ??_C@_0DJ@LPKGLLPK@MAX_SHADER_FILES?5?$CI?$CFd?$CJ?5reached?0?5t@ 000000014008d698     shaders.obj
 0002:000076d8       ??_C@_0N@OOOIEFPJ@?$CFs?1?$CFs?4shader?$AA@ 000000014008d6d8     shaders.obj
 0002:000076e8       ??_C@_0BA@COBBEFDK@?$CF9d?5shaderInfo?6?$AA@ 000000014008d6e8     shaders.obj
 0002:000076f8       ??_C@_0BH@DKILOFFK@?4?4?2src?2surface_extra?4c?$AA@ 000000014008d6f8     surface_extra.obj
 0002:00007710       ??_C@_0BP@EILLNLNL@?9?9?9?5WriteSurfaceExtraFile?5?9?9?9?6?$AA@ 000000014008d710     surface_extra.obj
 0002:00007730       ??_C@_04FKHEOGOK@?4srf?$AA@ 000000014008d730     surface_extra.obj
 0002:00007738       ??_C@_0BN@OEFCJEFF@Error?5opening?5?$CFs?5for?5writing?$AA@ 000000014008d738     surface_extra.obj
 0002:00007758       ??_C@_02DPKJAMEF@?$CFd?$AA@ 000000014008d758     surface_extra.obj
 0002:0000775c       ??_C@_06NKHKFLCF@planar?$AA@ 000000014008d75c     surface_extra.obj
 0002:00007768       ??_C@_0BH@CFBDBDHG@?5?1?1?5?$CFs?5V?3?5?$CFd?5I?3?5?$CFd?5?$CFs?6?$AA@ 000000014008d768     surface_extra.obj
 0002:00007780       ??_C@_0M@MGNLMJNC@?7shader?5?$CFs?6?$AA@ 000000014008d780     surface_extra.obj
 0002:00007790       ??_C@_0M@DHPMPICB@?7parent?5?$CFd?6?$AA@ 000000014008d790     surface_extra.obj
 0002:000077a0       ??_C@_0M@ECNDHHLO@?7entity?5?$CFd?6?$AA@ 000000014008d7a0     surface_extra.obj
 0002:000077b0       ??_C@_0BB@IAFPDFKJ@?7castShadows?5?$CFd?6?$AA@ 000000014008d7b0     surface_extra.obj
 0002:000077c8       ??_C@_0BE@IBHBIABL@?7receiveShadows?5?$CFd?6?$AA@ 000000014008d7c8     surface_extra.obj
 0002:000077e0       ??_C@_0BA@LPBPLIDA@?7sampleSize?5?$CFd?6?$AA@ 000000014008d7e0     surface_extra.obj
 0002:000077f0       ??_C@_0BC@GPMKGGMG@?7longestCurve?5?$CFf?6?$AA@ 000000014008d7f0     surface_extra.obj
 0002:00007808       ??_C@_0BM@FCFDGLNP@?7lightmapAxis?5?$CI?5?$CFf?5?$CFf?5?$CFf?5?$CJ?6?$AA@ 000000014008d808     surface_extra.obj
 0002:00007828       ??_C@_0BA@HEGIPNAK@?7shadeAngle?5?$CFf?6?$AA@ 000000014008d828     surface_extra.obj
 0002:00007838       ??_C@_03LAJGDFPO@?$HN?6?6?$AA@ 000000014008d838     surface_extra.obj
 0002:00007840       ??_C@_0DK@HGEOJEJM@WARNING?3?5Unable?5to?5find?5surface?5@ 000000014008d840     surface_extra.obj
 0002:00007880       ??_C@_0DK@OBEKAHMA@ReadSurfaceExtraFile?$CI?$CJ?3?5?$CFs?0?5line@ 000000014008d880     surface_extra.obj
 0002:000078c0       ??_C@_0DB@BLCHPAHK@ReadSurfaceExtraFile?$CI?$CJ?3?5?$CFs?0?5line@ 000000014008d8c0     surface_extra.obj
 0002:000078f4       ??_C@_06BILHELBG@shader?$AA@ 000000014008d8f4     surface_extra.obj
 0002:000078fc       ??_C@_06MLKDMCBD@parent?$AA@ 000000014008d8fc     surface_extra.obj
 0002:00007904       ??_C@_06GOJKNBFM@entity?$AA@ 000000014008d904     surface_extra.obj
 0002:00007910       ??_C@_0M@IOCKLC@castShadows?$AA@ 000000014008d910     surface_extra.obj
 0002:00007920       ??_C@_0P@LBHJAKAA@receiveShadows?$AA@ 000000014008d920     surface_extra.obj
 0002:00007930       ??_C@_0L@KALPCFEC@sampleSize?$AA@ 000000014008d930     surface_extra.obj
 0002:00007940       ??_C@_0N@BCKPNJFM@longestCurve?$AA@ 000000014008d940     surface_extra.obj
 0002:00007950       ??_C@_0N@CCKIAFEN@lightmapAxis?$AA@ 000000014008d950     surface_extra.obj
 0002:00007960       ??_C@_0L@OKAPBEHI@shadeAngle?$AA@ 000000014008d960     surface_extra.obj
 0002:00007970       ??_C@_0CP@OAFHHPBH@safe_malloc?5failed?5on?5allocation@ 000000014008d970     cmdlib.obj
 0002:000079a0       ??_C@_0L@PBIMKJEF@memlog?4txt?$AA@ 000000014008d9a0     cmdlib.obj
 0002:000079b0       ??_C@_0N@PAMJONDM@LOG?5STARTED?6?$AA@ 000000014008d9b0     cmdlib.obj
 0002:000079c0       ??_C@_0CK@LIEMKPCM@?$CK?$CK?$CK?$CK?$CK?$CK?$CK?$CK?$CK?$CK?$CK?$CK?$CK?$CK?$CK?$CK?$CK?$CK?$CK?$CK?$CK?$CK?$CK?$CK?$CK?$CK?$CK?$CK?$CK?$CK?$CK?$CK@ 000000014008d9c0     cmdlib.obj
 0002:000079ec       ??_C@_05LCABBMOG@?$CFs?3?$CFi?$AA@ 000000014008d9ec     cmdlib.obj
 0002:000079f8       ??_C@_0BG@EDNJHPAK@MEM_MAXLOGS?5exceeded?6?$AA@ 000000014008d9f8     cmdlib.obj
 0002:00007a10       ??_C@_0DE@OEIPIEKO@safe_malloc?$CI?$CFs?3?$CFi?$CJ?5failed?5on?5all@ 000000014008da10     cmdlib.obj
 0002:00007a44       ??_C@_01MCMALHOG@a?$AA@    000000014008da44     cmdlib.obj
 0002:00007a48       ??_C@_08GPNCPPAM@?$CFs?5?$DN?5?$CFi?6?$AA@ 000000014008da48     cmdlib.obj
 0002:00007a58       ??_C@_0DE@DCAGMICG@?$CFs?3?5safe_malloc?5failed?5on?5alloca@ 000000014008da58     cmdlib.obj
 0002:00007a90       ??_C@_0DE@FBNGPNBM@?$CFs?3?5safe_malloc?5failed?5on?5alloca@ 000000014008da90     cmdlib.obj
 0002:00007ac8       ??_C@_0DD@CNIFFKB@?$CFs?3?5safe_malloc?5failed?5on?5alloca@ 000000014008dac8     cmdlib.obj
 0002:00007afc       ??_C@_04HDOCAJNK@?$CFs?$CFs?$AA@ 000000014008dafc     cmdlib.obj
 0002:00007b04       ??_C@_05GFOLEBJA@?$CFs?1?$CFs?$AA@ 000000014008db04     cmdlib.obj
 0002:00007b10       ??_C@_0BH@MPPDGOAN@?4?4?2src?2common?2cmdlib?4c?$AA@ 000000014008db10     cmdlib.obj
 0002:00007b28       ??_C@_01KICIPPFI@?2?$AA@   000000014008db28     cmdlib.obj
 0002:00007b30       ??_C@_0N@GLEMEACN@mkdir?5?$CFs?3?5?$CFs?$AA@ 000000014008db30     cmdlib.obj
 0002:00007b40       ??_C@_02GMLFBBN@wb?$AA@    000000014008db40     cmdlib.obj
 0002:00007b48       ??_C@_0BF@BCONAKHE@Error?5opening?5?$CFs?3?5?$CFs?$AA@ 000000014008db48     cmdlib.obj
 0002:00007b60       ??_C@_0BC@OGGEBGDM@File?5read?5failure?$AA@ 000000014008db60     cmdlib.obj
 0002:00007b78       ??_C@_0BD@IHJMODLC@File?5write?5failure?$AA@ 000000014008db78     cmdlib.obj
 0002:00007b8c       ??_C@_01KDCPPGHE@r?$AA@    000000014008db8c     cmdlib.obj
 0002:00007b90       ??_C@_0BG@IGMOJEHG@Unexpected?5buffer?5end?$AA@ 000000014008db90     imagelib.obj
 0002:00007ba8       ??_C@_0BP@KDPHDDGI@Decompression?5exceeded?5width?$CB?6?$AA@ 000000014008dba8     imagelib.obj
 0002:00007bc8       ??_C@_0BO@NMBHMAMN@No?5FORM?5ID?5at?5start?5of?5file?$CB?6?$AA@ 000000014008dbc8     imagelib.obj
 0002:00007be8       ??_C@_0CC@DLOOEHBO@Unrecognized?5form?5type?3?5?$CFc?$CFc?$CFc?$CFc@ 000000014008dbe8     imagelib.obj
 0002:00007c10       ??_C@_0BJ@DJDAEHMK@?4?4?2src?2common?2imagelib?4c?$AA@ 000000014008dc10     imagelib.obj
 0002:00007c30       ??_C@_0CE@GCPONPDK@?$CFs?5is?5an?5interlaced?5LBM?0?5not?5pac@ 000000014008dc30     imagelib.obj
 0002:00007c58       ??_C@_0BK@BIFIACNC@LoadPCX?3?5Couldn?8t?5read?5?$CFs?$AA@ 000000014008dc58     imagelib.obj
 0002:00007c78       ??_C@_0BA@FBKLBCOL@Bad?5pcx?5file?5?$CFs?$AA@ 000000014008dc78     imagelib.obj
 0002:00007c88       ??_C@_0BL@KCHBMDMC@LoadPCX?3?5couldn?8t?5allocate?$AA@ 000000014008dc88     imagelib.obj
 0002:00007ca8       ??_C@_0BK@PFOMPPID@PCX?5file?5?$CFs?5was?5malformed?$AA@ 000000014008dca8     imagelib.obj
 0002:00007cc8       ??_C@_0BB@MDAOGLLK@Couldn?8t?5read?5?$CFs?$AA@ 000000014008dcc8     imagelib.obj
 0002:00007ce0       ??_C@_0BF@MPPNHJEE@?$CFs?5is?5not?5a?5bmp?5file?$AA@ 000000014008dce0     imagelib.obj
 0002:00007cf8       ??_C@_0BL@PFFAIBNH@?$CFs?5had?5strange?5struct?5size?$AA@ 000000014008dcf8     imagelib.obj
 0002:00007d18       ??_C@_0CA@DACALJDO@?$CFs?5was?5not?5a?5single?5plane?5image?$AA@ 000000014008dd18     imagelib.obj
 0002:00007d38       ??_C@_0BK@MJHEMFNG@?$CFs?5was?5not?5an?58?5bit?5image?$AA@ 000000014008dd38     imagelib.obj
 0002:00007d54       ??_C@_03DEELGCPM@lbm?$AA@  000000014008dd54     imagelib.obj
 0002:00007d58       ??_C@_03BIPDAGPI@pcx?$AA@  000000014008dd58     imagelib.obj
 0002:00007d5c       ??_C@_03CAKEDOOO@bmp?$AA@  000000014008dd5c     imagelib.obj
 0002:00007d60       ??_C@_0CI@NOFBLPIA@?$CFs?5doesn?8t?5have?5a?5known?5image?5ex@ 000000014008dd60     imagelib.obj
 0002:00007d90       ??_C@_0BCN@IFBELLCB@?$CFs?6?3TargaHeader?3?6uint8?5id_length@ 000000014008dd90     imagelib.obj
 0002:00007ec0       ??_C@_0DD@GDIMONBE@LoadTGA?3?5only?5up?5to?5256?5colormap@ 000000014008dec0     imagelib.obj
 0002:00007ef8       ??_C@_0CH@ILNMLEOO@LoadTGA?3?5colormap_index?5not?5supp@ 000000014008def8     imagelib.obj
 0002:00007f20       ??_C@_0DF@EKOMHLCN@LoadTGA?3?5Only?532?5and?524?5bit?5colo@ 000000014008df20     imagelib.obj
 0002:00007f60       ??_C@_0FD@DGPICPKO@LoadTGA?3?5only?524bit?5and?532bit?5pi@ 000000014008df60     imagelib.obj
 0002:00007fc0       ??_C@_0EJ@KOBMPHKL@LoadTGA?3?5only?58bit?5pixel?5size?5fo@ 000000014008dfc0     imagelib.obj
 0002:00008010       ??_C@_0EF@MOLBBHEK@LoadTGA?3?5Only?5type?51?0?52?0?53?0?59?0?51@ 000000014008e010     imagelib.obj
 0002:00008060       ??_C@_0GC@LPMPAFDF@LoadTGA?3?5origin?5must?5be?5in?5top?5l@ 000000014008e060     imagelib.obj
 0002:000080c8       ??_C@_0DH@CBFMEAP@LoadTGA?3?5only?50?5or?58?5attribute?5?$CI@ 000000014008e0c8     imagelib.obj
 0002:00008100       ??_C@_0CP@PKEKLNLA@LoadTGA?3?5not?5enough?5memory?5for?5?$CF@ 000000014008e100     imagelib.obj
 0002:00008130       ??_C@_03LJIJAGL@tga?$AA@   000000014008e130     imagelib.obj
 0002:00008134       ??_C@_05BBEJFBFA@point?$AA@ 000000014008e134     inout.obj
 0002:00008140       ??_C@_0BJ@JGIKIPA@Got?5to?5split?5the?5buffer?6?$AA@ 000000014008e140     inout.obj
 0002:00008160       ??_C@_0BI@ILDEPJA@Entity?5?$CFi?0?5Brush?5?$CFi?3?5?$CFs?$AA@ 000000014008e160     inout.obj
 0002:00008178       ??_C@_06LGNCCACI@select?$AA@ 000000014008e178     inout.obj
 0002:00008180       ??_C@_05KJNJLLGA@level?$AA@ 000000014008e180     inout.obj
 0002:00008188       ??_C@_05KHPFCEDO@?$CFi?5?$CFi?$AA@ 000000014008e188     inout.obj
 0002:00008190       ??_C@_05CPGBCEKK@brush?$AA@ 000000014008e190     inout.obj
 0002:00008198       ??_C@_0L@BMBGBKFI@windingmsg?$AA@ 000000014008e198     inout.obj
 0002:000081a4       ??_C@_03JLNFKLOC@?$CFi?5?$AA@ 000000014008e1a4     inout.obj
 0002:000081a8       ??_C@_0L@BHKAHNLB@?$CI?$CFg?5?$CFg?5?$CFg?$CJ?$AA@ 000000014008e1a8     inout.obj
 0002:000081b8       ??_C@_07FCPBKNEN@winding?$AA@ 000000014008e1b8     inout.obj
 0002:000081c0       ??_C@_0DC@KKGLIHDH@?$DM?$DPxml?5version?$DN?$CC1?40?$CC?$DP?$DO?$DMq3map_feed@ 000000014008e1c0     inout.obj
 0002:000081f8       ??_C@_0P@MADLCHIF@Disconnecting?6?$AA@ 000000014008e1f8     inout.obj
 0002:00008208       ??_C@_03HLLJOCDO@1?40?$AA@ 000000014008e208     inout.obj
 0002:00008210       ??_C@_0P@FNEAICOD@q3map_feedback?$AA@ 000000014008e210     inout.obj
 0002:00008220       ??_C@_07ONPBMBOP@message?$AA@ 000000014008e220     inout.obj
 0002:00008228       ??_C@_0CE@IAIGJDHE@?$CK?$CK?$CK?$CK?$CK?$CK?$CK?$CK?$CK?$CK?$CK?$CK?5ERROR?5?$CK?$CK?$CK?$CK?$CK?$CK?$CK?$CK?$CK?$CK?$CK?$CK?6@ 000000014008e228     inout.obj
 0002:00008250       ??_C@_0DE@OGDIKFJE@AllocWinding?5failed?3?5MAX_POINTS_@ 000000014008e250     polylib.obj
 0002:00008288       ??_C@_0BI@LKFPFELC@?4?4?2src?2common?2polylib?4c?$AA@ 000000014008e288     polylib.obj
 0002:000082a0       ??_C@_0CD@BOFJFDD@FreeWinding?3?5freed?5a?5freed?5windi@ 000000014008e2a0     polylib.obj
 0002:000082c8       ??_C@_0CD@BHBKGNIF@BaseWindingForPlane?3?5no?5axis?5fou@ 000000014008e2c8     polylib.obj
 0002:000082f0       ??_C@_0CG@OLJCNKCC@ClipWinding?3?5points?5exceeded?5est@ 000000014008e2f0     polylib.obj
 0002:00008318       ??_C@_0CD@PEDPMDOJ@ClipWinding?3?5MAX_POINTS_ON_WINDI@ 000000014008e318     polylib.obj
 0002:00008340       ??_C@_0CC@KGOJGFKG@script?5file?5exceeded?5MAX_INCLUDE@ 000000014008e340     scriplib.obj
 0002:00008368       ??_C@_0BO@NCKPAALA@Script?5file?5?$CFs?5was?5not?5found?6?$AA@ 000000014008e368     scriplib.obj
 0002:00008388       ??_C@_0BC@BIKBBANF@entering?5?$CFs?5?$CI?$CFd?$CJ?6?$AA@ 000000014008e388     scriplib.obj
 0002:000083a0       ??_C@_0N@HOPNJHHB@entering?5?$CFs?6?$AA@ 000000014008e3a0     scriplib.obj
 0002:000083b0       ??_C@_0O@DIEIKEFB@memory?5buffer?$AA@ 000000014008e3b0     scriplib.obj
 0002:000083c0       ??_C@_0BH@IMFFIBJN@Line?5?$CFi?5is?5incomplete?6?$AA@ 000000014008e3c0     scriplib.obj
 0002:000083d8       ??_C@_0DG@FKDHBDLK@WARNING?3?5Attempt?5to?5free?5already@ 000000014008e3d8     scriplib.obj
 0002:00008410       ??_C@_0BB@CJEABCA@returning?5to?5?$CFs?6?$AA@ 000000014008e410     scriplib.obj
 0002:00008428       ??_C@_0BM@NCGMJOHK@Token?5too?5large?5on?5line?5?$CFi?6?$AA@ 000000014008e428     scriplib.obj
 0002:00008448       ??_C@_08LNBPPNO@$include?$AA@ 000000014008e448     scriplib.obj
 0002:00008458       ??_C@_0DA@FLHDPIHP@MatchToken?$CI?5?$CC?$CFs?$CC?5?$CJ?5failed?5at?5lin@ 000000014008e458     scriplib.obj
 0002:00008488       ??_C@_03JAIJOMNP@?$CFf?5?$AA@ 000000014008e488     scriplib.obj
 0002:0000848c       ??_C@_05PEEHGFCO@?$CFi?4?4?4?$AA@ 000000014008e48c     threads.obj
 0002:00008498       ??_C@_0M@FBLNEIAD@?$CFi?5threads?6?$AA@ 000000014008e498     threads.obj
 0002:000084a8       ??_C@_0BG@BEEOCMHK@Recursive?5ThreadLock?6?$AA@ 000000014008e4a8     threads.obj
 0002:000084c0       ??_C@_0BL@HADBLPO@ThreadUnlock?5without?5lock?6?$AA@ 000000014008e4c0     threads.obj
 0002:000084dc       ??_C@_06MEKNBDFO@?5?$CI?$CFi?$CJ?6?$AA@ 000000014008e4dc     threads.obj
 0002:000084e8       ??_C@_0BG@PGAGDHIH@?4?4?2src?2common?2unzip?4c?$AA@ 000000014008e4e8     unzip.obj
 0002:00008500       ??_C@_05HBMFIKCP@1?41?43?$AA@ 000000014008e500     unzip.obj
 0002:00008510       g_m4x4_identity            000000014008e510     mathlib:m4x4.obj
 0002:00008550       vec3_origin                000000014008e550     mathlib:mathlib.obj
 0002:00008560       g_vec3_axis_x              000000014008e560     mathlib:mathlib.obj
 0002:00008570       g_vec3_axis_y              000000014008e570     mathlib:mathlib.obj
 0002:00008580       g_vec3_axis_z              000000014008e580     mathlib:mathlib.obj
 0002:00008bd8       ??_C@_0BD@PJCBIDD@invalid?5block?5type?$AA@ 000000014008ebd8     unzip.obj
 0002:00008bf0       ??_C@_0BN@LGAADGOK@invalid?5stored?5block?5lengths?$AA@ 000000014008ebf0     unzip.obj
 0002:00008c10       ??_C@_0CE@GMIGFPBB@too?5many?5length?5or?5distance?5symb@ 000000014008ec10     unzip.obj
 0002:00008c38       ??_C@_0BK@BMMPFBBH@invalid?5bit?5length?5repeat?$AA@ 000000014008ec38     unzip.obj
 0002:00008c58       ??_C@_0CI@CGMOPDPD@oversubscribed?5dynamic?5bit?5lengt@ 000000014008ec58     unzip.obj
 0002:00008c80       ??_C@_0CE@LOHAHEGK@incomplete?5dynamic?5bit?5lengths?5t@ 000000014008ec80     unzip.obj
 0002:00008ca8       ??_C@_0CD@GJIDGCKE@oversubscribed?5literal?1length?5tr@ 000000014008eca8     unzip.obj
 0002:00008cd0       ??_C@_0BP@NEEEJJNA@incomplete?5literal?1length?5tree?$AA@ 000000014008ecd0     unzip.obj
 0002:00008cf0       ??_C@_0BN@KBLCDIAI@oversubscribed?5distance?5tree?$AA@ 000000014008ecf0     unzip.obj
 0002:00008d10       ??_C@_0BJ@CBCPDPJF@incomplete?5distance?5tree?$AA@ 000000014008ed10     unzip.obj
 0002:00008d30       ??_C@_0CB@KPKKKLFO@empty?5distance?5tree?5with?5lengths@ 000000014008ed30     unzip.obj
 0002:00008d58       ??_C@_0BG@LBKINIKP@invalid?5distance?5code?$AA@ 000000014008ed58     unzip.obj
 0002:00008d70       ??_C@_0BM@FFFLPBBC@invalid?5literal?1length?5code?$AA@ 000000014008ed70     unzip.obj
 0002:00008d90       ??_C@_0BL@IHKGDAEE@unknown?5compression?5method?$AA@ 000000014008ed90     unzip.obj
 0002:00008db0       ??_C@_0BE@EMOGCLGO@invalid?5window?5size?$AA@ 000000014008edb0     unzip.obj
 0002:00008dc8       ??_C@_0BH@LIBMMIGA@incorrect?5header?5check?$AA@ 000000014008edc8     unzip.obj
 0002:00008de0       ??_C@_0BA@MOKMMFOD@need?5dictionary?$AA@ 000000014008ede0     unzip.obj
 0002:00008df0       ??_C@_0BF@MEIGEHBE@incorrect?5data?5check?$AA@ 000000014008edf0     unzip.obj
 0002:00008e08       ??_C@_01KMDKNFGN@?1?$AA@   000000014008ee08     vfs.obj
 0002:00008e10       ??_C@_0BE@MCLNGCKN@?4?4?2src?2common?2vfs?4c?$AA@ 000000014008ee10     vfs.obj
 0002:00008e28       ??_C@_0O@FPIFBMPK@VFS?5Init?3?5?$CFs?6?$AA@ 000000014008ee28     vfs.obj
 0002:00008e38       ??_C@_04JMPKHIOK@?4pk3?$AA@ 000000014008ee38     vfs.obj
 0002:00008e40       ??_C@_0P@NEMCAMN@?4?4?2src?2brush?4c?$AA@ 000000014008ee40     brush.obj
 0002:00008e50       ??_C@_0CF@IHPJDCEP@AllocBrush?5called?5with?5numsides?5@ 000000014008ee50     brush.obj
 0002:00008e78       ??_C@_0DC@BDKCMOLK@WARNING?3?5Attempt?5to?5free?5an?5alre@ 000000014008ee78     brush.obj
 0002:00008eb0       ??_C@_0BA@EKJFECAL@Can?8t?5write?5?$CFs?$AI?$AA@ 000000014008eeb0     brush.obj
 0002:00008ec0       ??_C@_0BM@HFNKBGGH@?$HL?6?$CCclassname?$CC?5?$CCworldspawn?$CC?6?$AA@ 000000014008eec0     brush.obj
 0002:00008ee0       ??_C@_0O@IOEHJOAM@?$CI?5?$CFi?5?$CFi?5?$CFi?5?$CJ?5?$AA@ 000000014008eee0     brush.obj
 0002:00008ef0       ??_C@_0BF@IPFPBHLC@notexture?50?50?50?51?51?6?$AA@ 000000014008eef0     brush.obj
 0002:00008f08       ??_C@_0CF@CJJOPCJG@?9?9?9?5FilterDetailBrushesIntoTree?5@ 000000014008ef08     brush.obj
 0002:00008f30       ??_C@_0BE@FCPKPHEA@?$CF9d?5detail?5brushes?6?$AA@ 000000014008ef30     brush.obj
 0002:00008f48       ??_C@_0BI@NACDEBHP@?$CF9d?5cluster?5references?6?$AA@ 000000014008ef48     brush.obj
 0002:00008f60       ??_C@_0CJ@CACGCNGG@?9?9?9?5FilterStructuralBrushesIntoT@ 000000014008ef60     brush.obj
 0002:00008f90       ??_C@_0BI@NOAIHMDC@?$CF9d?5structural?5brushes?6?$AA@ 000000014008ef90     brush.obj
 0002:00008fa8       ??_C@_0BH@FEMFMIHD@WARNING?3?5huge?5winding?6?$AA@ 000000014008efa8     brush.obj
 0002:00008fc0       ??_C@_0BI@PNMADFKF@bogus?5brush?5after?5clip?6?$AA@ 000000014008efc0     brush.obj
 0002:00008fd8       ??_C@_0BF@HEKJJEMO@split?5removed?5brush?6?$AA@ 000000014008efd8     brush.obj
 0002:00008ff0       ??_C@_0BJ@MIBLAJDN@split?5not?5on?5both?5sides?6?$AA@ 000000014008eff0     brush.obj
 0002:0000900c       ??_C@_06FMCKMAPK@_clone?$AA@ 000000014008f00c     bsp.obj
 0002:00009014       ??_C@_03COCDEFBB@?$CK?$CFd?$AA@ 000000014008f014     bsp.obj
 0002:00009018       ??_C@_04IDOLCEGO@_ins?$AA@ 000000014008f018     bsp.obj
 0002:00009020       ??_C@_09BEIHOAN@_instance?$AA@ 000000014008f020     bsp.obj
 0002:00009030       ??_C@_0L@IINPCPKP@_clonename?$AA@ 000000014008f030     bsp.obj
 0002:00009040       ??_C@_0DL@LEBKOMEK@WARNING?3?5Cloned?5entity?5?$CFs?5refere@ 000000014008f040     bsp.obj
 0002:00009080       ??_C@_0BG@PFDHJGJG@?9?9?9?5ProcessWorld?5?9?9?9?6?$AA@ 000000014008f080     bsp.obj
 0002:00009098       ??_C@_0L@HIGNIKAI@_blocksize?$AA@ 000000014008f098     bsp.obj
 0002:000090a8       ??_C@_09BLCGHKHA@blocksize?$AA@ 000000014008f0a8     bsp.obj
 0002:000090b8       ??_C@_08LAHKIMAB@chopsize?$AA@ 000000014008f0b8     bsp.obj
 0002:000090c8       ??_C@_08OOHKHLPO@?$CFd?5?$CFd?5?$CFd?$AA@ 000000014008f0c8     bsp.obj
 0002:000090d8       ??_C@_0BL@JMGDNJJ@block?5size?5?$DN?5?$HL?5?$CFd?5?$CFd?5?$CFd?5?$HN?6?$AA@ 000000014008f0d8     bsp.obj
 0002:000090f8       ??_C@_0N@IEIEKIIM@_ignoreleaks?$AA@ 000000014008f0f8     bsp.obj
 0002:00009108       ??_C@_0M@NONPMKCF@ignoreleaks?$AA@ 000000014008f108     bsp.obj
 0002:00009118       ??_C@_0BI@CHHEOFGC@?$CK?$CK?$CK?$CK?$CK?$CK?$CK?$CK?$CK?$CK?$CK?$CK?$CK?$CK?$CK?$CK?$CK?$CK?$CK?$CK?$CK?$CK?6?$AA@ 000000014008f118     bsp.obj
 0002:00009130       ??_C@_0BI@EJLFBDFG@?$CK?$CK?$CK?$CK?$CK?$CK?$CK?5leaked?5?$CK?$CK?$CK?$CK?$CK?$CK?$CK?6?$AA@ 000000014008f130     bsp.obj
 0002:00009148       ??_C@_0M@KEFFBFDO@MAP?5LEAKED?6?$AA@ 000000014008f148     bsp.obj
 0002:00009158       ??_C@_0CH@DGKEJIEF@?9?9?9?5MAP?5LEAKED?0?5ABORTING?5LEAKTES@ 000000014008f158     bsp.obj
 0002:00009180       ??_C@_08LHLALFOJ@_foghull?$AA@ 000000014008f180     bsp.obj
 0002:00009190       ??_C@_0N@EBIPNHHL@_flareshader?$AA@ 000000014008f190     bsp.obj
 0002:000091a0       ??_C@_06PJAEHMGO@_flare?$AA@ 000000014008f1a0     bsp.obj
 0002:000091a8       ??_C@_06NHOPLGF@_color?$AA@ 000000014008f1a8     bsp.obj
 0002:000091b0       ??_C@_06HJJKMCAP@_style?$AA@ 000000014008f1b0     bsp.obj
 0002:000091b8       ??_C@_05IAKJCFIM@style?$AA@ 000000014008f1b8     bsp.obj
 0002:000091c0       ??_C@_0BH@MDAOAACA@?9?9?9?5ProcessModels?5?9?9?9?6?$AA@ 000000014008f1c0     bsp.obj
 0002:000091d8       ??_C@_0P@CLIDFFJE@?$CF9i?5submodels?6?$AA@ 000000014008f1d8     bsp.obj
 0002:000091e8       ??_C@_0N@CONFBLKK@?9?9?9?5BSP?5?9?9?9?6?$AA@ 000000014008f1e8     bsp.obj
 0002:000091f8       ??_C@_0N@KPPPIPDC@?4?4?2src?2bsp?4c?$AA@ 000000014008f1f8     bsp.obj
 0002:00009208       ??_C@_0BG@DPBGLDBM@?9?9?9?5GameSpecific?5?9?9?9?6?$AA@ 000000014008f208     bsp.obj
 0002:00009220       ??_C@_0BI@BGPLGHMO@?5Max?5surface?5verts?3?5?$CFi?6?$AA@ 000000014008f220     bsp.obj
 0002:00009238       ??_C@_0CE@GAOGNLBH@?5Max?5lightmapped?5surface?5verts?3?5@ 000000014008f238     bsp.obj
 0002:00009260       ??_C@_0BK@BENAIKNJ@?5Max?5surface?5indexes?3?5?$CFi?6?$AA@ 000000014008f260     bsp.obj
 0002:00009280       ??_C@_0BH@PPFIBIJB@?5Emit?5flares?3?5enabled?6?$AA@ 000000014008f280     bsp.obj
 0002:00009298       ??_C@_0BI@DECCLLDC@?5Emit?5flares?3?5disabled?6?$AA@ 000000014008f298     bsp.obj
 0002:000092b0       ??_C@_0BF@GBLLHJCG@?9?9?9?5CommandLine?5?9?9?9?6?$AA@ 000000014008f2b0     bsp.obj
 0002:000092c8       ??_C@_09IPMMJNNA@?9tempname?$AA@ 000000014008f2c8     bsp.obj
 0002:000092d8       ??_C@_07NHBNKOHO@?9tmpout?$AA@ 000000014008f2d8     bsp.obj
 0002:000092e0       ??_C@_04PBCBKGHJ@?1tmp?$AA@ 000000014008f2e0     bsp.obj
 0002:000092e8       ??_C@_08NHOKEGNA@?9nowater?$AA@ 000000014008f2e8     bsp.obj
 0002:000092f8       ??_C@_0BB@NLPEGKKD@Disabling?5water?6?$AA@ 000000014008f2f8     bsp.obj
 0002:00009310       ??_C@_09BNPKADLK@?9nodetail?$AA@ 000000014008f310     bsp.obj
 0002:00009320       ??_C@_0BJ@MPHNCDEE@Ignoring?5detail?5brushes?6?$AA@ 000000014008f320     bsp.obj
 0002:00009340       ??_C@_0M@LBOAMCBH@?9fulldetail?$AA@ 000000014008f340     bsp.obj
 0002:00009350       ??_C@_0DA@IHMLFNNF@Turning?5detail?5brushes?5into?5stru@ 000000014008f350     bsp.obj
 0002:00009380       ??_C@_0BD@DBIJONGB@?9nodetailcollision?$AA@ 000000014008f380     bsp.obj
 0002:00009398       ??_C@_0CI@MCJGGILH@Disabling?5collision?5for?5detail?5b@ 000000014008f398     bsp.obj
 0002:000093c0       ??_C@_0L@MDGCGLHJ@?9nofoliage?$AA@ 000000014008f3c0     bsp.obj
 0002:000093d0       ??_C@_0BD@PPHAMJIH@Disabling?5foliage?6?$AA@ 000000014008f3d0     bsp.obj
 0002:000093e4       ??_C@_06JCBPCPMJ@?9nofog?$AA@ 000000014008f3e4     bsp.obj
 0002:000093f0       ??_C@_0BG@ILAMDGNK@Fog?5volumes?5disabled?6?$AA@ 000000014008f3f0     bsp.obj
 0002:00009408       ??_C@_0N@EPIDHEF@?9nosubdivide?$AA@ 000000014008f408     bsp.obj
 0002:00009418       ??_C@_0CC@BJKJPBAG@Disabling?5brush?5face?5subdivision@ 000000014008f418     bsp.obj
 0002:00009440       ??_C@_0N@DJMFFIEK@?9noclipmodel?$AA@ 000000014008f440     bsp.obj
 0002:00009450       ??_C@_0CH@NNOCMHM@Disabling?5misc_model?5autoclip?5fe@ 000000014008f450     bsp.obj
 0002:00009478       ??_C@_09NGDGFAIL@?9leaktest?$AA@ 000000014008f478     bsp.obj
 0002:00009488       ??_C@_0BC@FODGNAIO@Leaktest?5enabled?6?$AA@ 000000014008f488     bsp.obj
 0002:000094a0       ??_C@_09FNEFFCND@?9nocurves?$AA@ 000000014008f4a0     bsp.obj
 0002:000094b0       ??_C@_0CE@BPDBGCLN@Ignoring?5curved?5surfaces?5?$CIpatche@ 000000014008f4b0     bsp.obj
 0002:000094d8       ??_C@_08MBJOKOPL@?9notjunc?$AA@ 000000014008f4d8     bsp.obj
 0002:000094e8       ??_C@_0BM@FONJNIJB@T?9junction?5fixing?5disabled?6?$AA@ 000000014008f4e8     bsp.obj
 0002:00009508       ??_C@_08MNIKJAFD@?9fakemap?$AA@ 000000014008f508     bsp.obj
 0002:00009518       ??_C@_0BI@KBKFEAGN@Generating?5fakemap?4map?6?$AA@ 000000014008f518     bsp.obj
 0002:00009530       ??_C@_0M@PHLCKHND@?9samplesize?$AA@ 000000014008f530     bsp.obj
 0002:00009540       ??_C@_0CJ@NPPKJDED@Lightmap?5sample?5size?5set?5to?5?$CFdx?$CF@ 000000014008f540     bsp.obj
 0002:00009570       ??_C@_07CGHNJGCB@?9rename?$AA@ 000000014008f570     bsp.obj
 0002:00009578       ??_C@_0DE@IHAFKKDE@Appending?5_bsp?5suffix?5to?5misc_mo@ 000000014008f578     bsp.obj
 0002:000095ac       ??_C@_03NGCACOMI@?9ne?$AA@ 000000014008f5ac     bsp.obj
 0002:000095b0       ??_C@_0BK@JFFEAEIG@Normal?5epsilon?5set?5to?5?$CFf?6?$AA@ 000000014008f5b0     bsp.obj
 0002:000095cc       ??_C@_03NLLHKLBO@?9de?$AA@ 000000014008f5cc     bsp.obj
 0002:000095d0       ??_C@_0BM@FKBKBGOL@Distance?5epsilon?5set?5to?5?$CFf?6?$AA@ 000000014008f5d0     bsp.obj
 0002:000095ec       ??_C@_03LFIJNBAD@?9mv?$AA@ 000000014008f5ec     bsp.obj
 0002:000095f0       ??_C@_0DE@EMKPEDHE@Maximum?5lightmapped?5surface?5vert@ 000000014008f5f0     bsp.obj
 0002:00009624       ??_C@_03HINDNPJN@?9mi?$AA@ 000000014008f624     bsp.obj
 0002:00009628       ??_C@_0CL@EMAMJPEK@Maximum?5per?9surface?5index?5count?5@ 000000014008f628     bsp.obj
 0002:00009654       ??_C@_03OBJFMINM@?9np?$AA@ 000000014008f654     bsp.obj
 0002:00009660       ??_C@_0EA@DFILBLE@Forcing?5nonplanar?5surfaces?5with?5@ 000000014008f660     bsp.obj
 0002:000096a0       ??_C@_05PGKOIKHK@?9snap?$AA@ 000000014008f6a0     bsp.obj
 0002:000096a8       ??_C@_0CJ@OFCGENLE@Snapping?5brush?5bevel?5planes?5to?5?$CF@ 000000014008f6a8     bsp.obj
 0002:000096d8       ??_C@_09CAEGINOD@?9texrange?$AA@ 000000014008f6d8     bsp.obj
 0002:000096e8       ??_C@_0DB@PFHHNED@Limiting?5per?9surface?5texture?5ran@ 000000014008f6e8     bsp.obj
 0002:00009720       ??_C@_07DMPDADPL@?9nohint?$AA@ 000000014008f720     bsp.obj
 0002:00009728       ??_C@_0BH@GNKHCNDE@Hint?5brushes?5disabled?6?$AA@ 000000014008f728     bsp.obj
 0002:00009740       ??_C@_05JAMLJPAH@?9flat?$AA@ 000000014008f740     bsp.obj
 0002:00009748       ??_C@_0BF@NKHJJDL@Flatshading?5enabled?6?$AA@ 000000014008f748     bsp.obj
 0002:00009760       ??_C@_05LHELGGBD@?9meta?$AA@ 000000014008f760     bsp.obj
 0002:00009768       ??_C@_0CJ@ECGBNGOD@Creating?5meta?5surfaces?5from?5brus@ 000000014008f768     bsp.obj
 0002:00009798       ??_C@_0M@GJEONBJF@?9broadmerge?$AA@ 000000014008f798     bsp.obj
 0002:000097a8       ??_C@_0DC@BDAJDHMB@Reducing?5drawsurfaces?5count?5by?5e@ 000000014008f7a8     bsp.obj
 0002:000097e0       ??_C@_0L@FAIGPGDO@?9patchmeta?$AA@ 000000014008f7e0     bsp.obj
 0002:000097f0       ??_C@_0CF@HPEJHMID@Creating?5meta?5surfaces?5from?5patc@ 000000014008f7f0     bsp.obj
 0002:00009818       ??_C@_07EAJEPEPL@?9flares?$AA@ 000000014008f818     bsp.obj
 0002:00009820       ??_C@_0BI@JJPNIDGP@Flare?5surfaces?5enabled?6?$AA@ 000000014008f820     bsp.obj
 0002:00009838       ??_C@_09IDIGFECC@?9noflares?$AA@ 000000014008f838     bsp.obj
 0002:00009848       ??_C@_0BJ@GOEBMBLC@Flare?5surfaces?5disabled?6?$AA@ 000000014008f848     bsp.obj
 0002:00009868       ??_C@_07NHCELAO@?9skyfix?$AA@ 000000014008f868     bsp.obj
 0002:00009870       ??_C@_0CK@CDHHAJOD@GL_CLAMP?5sky?5fix?1hack?1workaround@ 000000014008f870     bsp.obj
 0002:000098a0       ??_C@_0P@ONGGKCJF@?9debugsurfaces?$AA@ 000000014008f8a0     bsp.obj
 0002:000098b0       ??_C@_0BJ@CAEMPNIN@emitting?5debug?5surfaces?6?$AA@ 000000014008f8b0     bsp.obj
 0002:000098d0       ??_C@_0M@HIHPKAEA@?9debuginset?$AA@ 000000014008f8d0     bsp.obj
 0002:000098e0       ??_C@_0CK@CKFINKAL@Debug?5surface?5triangle?5insetting@ 000000014008f8e0     bsp.obj
 0002:00009910       ??_C@_0O@FHOIGHGN@?9debugportals?$AA@ 000000014008f910     bsp.obj
 0002:00009920       ??_C@_0BP@JHCBKNL@Debug?5portal?5surfaces?5enabled?6?$AA@ 000000014008f920     bsp.obj
 0002:00009940       ??_C@_04OICLHDCA@?9bsp?$AA@ 000000014008f940     bsp.obj
 0002:00009948       ??_C@_0BL@OJOPAPMI@?9bsp?5argument?5unnecessary?6?$AA@ 000000014008f948     bsp.obj
 0002:00009968       ??_C@_0BP@KOAEKLLF@usage?3?5q3map?5?$FLoptions?$FN?5mapfile?$AA@ 000000014008f968     bsp.obj
 0002:00009988       ??_C@_06HLEIHIOA@?$CFs?4prt?$AA@ 000000014008f988     bsp.obj
 0002:00009990       ??_C@_06MBNJCGIN@?$CFs?4lin?$AA@ 000000014008f990     bsp.obj
 0002:00009998       ??_C@_0P@MFMMDBLO@?$CFs_foliage?4reg?$AA@ 000000014008f998     bsp.obj
 0002:000099a8       ??_C@_0BB@GMMKNKDM@?$CFs_foliage?$CFi?4reg?$AA@ 000000014008f9a8     bsp.obj
 0002:000099c0       ??_C@_0CO@JJOPAGHN@Bad?5texture?5matrix?$CB?5?$CIA?$CJ?5?$CI?$CFf?0?5?$CFf?$CJ@ 000000014008f9c0     decals.obj
 0002:000099f0       ??_C@_0CO@KMACLACO@Bad?5texture?5matrix?$CB?5?$CIB?$CJ?5?$CI?$CFf?0?5?$CFf?$CJ@ 000000014008f9f0     decals.obj
 0002:00009a20       ??_C@_0CO@JIJCACA@Bad?5texture?5matrix?$CB?5?$CIC?$CJ?5?$CI?$CFf?0?5?$CFf?$CJ@ 000000014008fa20     decals.obj
 0002:00009a50       ??_C@_0EM@DPKGKBGK@WARNING?3?5MAX_PROJECTORS?5?$CI?$CFd?$CJ?5exc@ 000000014008fa50     decals.obj
 0002:00009aa0       ??_C@_0BH@DDICIEA@?9?9?9?5ProcessDecals?5?9?9?9?6?$AA@ 000000014008faa0     decals.obj
 0002:00009ab8       ??_C@_0DL@CONCEPJE@WARNING?3?5Decal?5entity?5without?5an@ 000000014008fab8     decals.obj
 0002:00009af8       ??_C@_0DJ@EOMPKICE@WARNING?3?5Decal?5entity?5without?5a?5@ 000000014008faf8     decals.obj
 0002:00009b38       ??_C@_0O@JMIJMGFN@lightmapscale?$AA@ 000000014008fb38     decals.obj
 0002:00009b48       ??_C@_0BG@IPNEJCLC@?$CF9d?5decal?5projectors?6?$AA@ 000000014008fb48     decals.obj
 0002:00009b60       ??_C@_0BA@FANJOOLJ@?4?4?2src?2decals?4c?$AA@ 000000014008fb60     decals.obj
 0002:00009b70       ??_C@_0BK@MNFFKFCF@?9?9?9?5MakeEntityDecals?5?9?9?9?6?$AA@ 000000014008fb70     decals.obj
 0002:00009b90       ??_C@_0BE@OAAOJLPF@?$CF9d?5decal?5surfaces?6?$AA@ 000000014008fb90     decals.obj
 0002:00009ba8       ??_C@_0BF@EAAMGHDA@?4?4?2src?2decorations?4c?$AA@ 000000014008fba8     decorations.obj
 0002:00009bc0       ??_C@_0DF@LHOCBBHF@NewDecoreGroup?3?5numDecoreGroups?5@ 000000014008fbc0     decorations.obj
 0002:00009bf8       ??_C@_0BO@FGGNIEDI@NewDecoreGroup?3?5?$CFs?5redefined?6?$AA@ 000000014008fbf8     decorations.obj
 0002:00009c18       ??_C@_0CG@PPHBMEJN@?$CFs?3?5unexpected?5end?5of?5line?5on?5li@ 000000014008fc18     decorations.obj
 0002:00009c40       ??_C@_0BL@MFPKIPNG@?$CFs?3?5bad?5parm?5?$CFi?5on?5line?5?$CFi?$AA@ 000000014008fc40     decorations.obj
 0002:00009c60       ??_C@_0DH@CPMLBDFC@DecoreParseActions?3?5unexpected?5e@ 000000014008fc60     decorations.obj
 0002:00009c98       ??_C@_0CN@CHPIAHMM@DecoreParseActions?3?5unexpected?5?$HL@ 000000014008fc98     decorations.obj
 0002:00009cd0       ??_C@_0EA@FIPCPLKM@DecoreParseActions?3?5numActions?5?$DN@ 000000014008fcd0     decorations.obj
 0002:00009d10       ??_C@_07FEDAGCNC@flagset?$AA@ 000000014008fd10     decorations.obj
 0002:00009d18       ??_C@_09CJKDKMFF@flagunset?$AA@ 000000014008fd18     decorations.obj
 0002:00009d28       ??_C@_0L@EDNFEKCF@flagtoggle?$AA@ 000000014008fd28     decorations.obj
 0002:00009d34       ??_C@_03ICICOMAL@yes?$AA@  000000014008fd34     decorations.obj
 0002:00009d38       ??_C@_04LOAJBDKD@true?$AA@ 000000014008fd38     decorations.obj
 0002:00009d40       ??_C@_02LIELOMNJ@on?$AA@   000000014008fd40     decorations.obj
 0002:00009d44       ??_C@_01HIHLOKLC@1?$AA@    000000014008fd44     decorations.obj
 0002:00009d48       ??_C@_07MDDDPOPH@_decore?$AA@ 000000014008fd48     decorations.obj
 0002:00009d50       ??_C@_0BI@JMABKGHG@scripts?1decorations?4txt?$AA@ 000000014008fd50     decorations.obj
 0002:00009d68       ??_C@_0BJ@BCKFOPMF@?9?9?9?5LoadDecorations?5?9?9?9?6?$AA@ 000000014008fd68     decorations.obj
 0002:00009d88       ??_C@_0DB@JBMMIAAK@LoadDecorationScript?$CI?$CJ?3?5unexpect@ 000000014008fd88     decorations.obj
 0002:00009dbc       ??_C@_05MGJOOGAJ@group?$AA@ 000000014008fdbc     decorations.obj
 0002:00009dc4       ??_C@_05ENKANFLO@class?$AA@ 000000014008fdc4     decorations.obj
 0002:00009dd0       ??_C@_0P@IJFBICPJ@importrtlights?$AA@ 000000014008fdd0     decorations.obj
 0002:00009de0       ??_C@_06MDLIGPKC@active?$AA@ 000000014008fde0     decorations.obj
 0002:00009de8       ??_C@_0L@DLJMKKHG@colorScale?$AA@ 000000014008fde8     decorations.obj
 0002:00009df8       ??_C@_08MEKLKAIJ@saturate?$AA@ 000000014008fdf8     decorations.obj
 0002:00009e08       ??_C@_09CBKHFEIP@radiusMod?$AA@ 000000014008fe08     decorations.obj
 0002:00009e18       ??_C@_0BB@CKBEIPIB@noShadowDeviance?$AA@ 000000014008fe18     decorations.obj
 0002:00009e30       ??_C@_0BA@HEFBLOML@noShadowSamples?$AA@ 000000014008fe30     decorations.obj
 0002:00009e40       ??_C@_0BA@JMIOAGGK@noShadowMinDist?$AA@ 000000014008fe40     decorations.obj
 0002:00009e50       ??_C@_0P@DJIHAGGA@shadowDeviance?$AA@ 000000014008fe50     decorations.obj
 0002:00009e60       ??_C@_0O@ILEAAJND@shadowSamples?$AA@ 000000014008fe60     decorations.obj
 0002:00009e70       ??_C@_0O@GDJPLBHC@shadowMinDist?$AA@ 000000014008fe70     decorations.obj
 0002:00009e80       ??_C@_0P@BADJIJGF@skipCubemapped?$AA@ 000000014008fe80     decorations.obj
 0002:00009e90       ??_C@_09DFMJKDDG@skipStyle?$AA@ 000000014008fe90     decorations.obj
 0002:00009ea0       ??_C@_0DP@DGKPMOFI@DecoreParseActions?3?5SkipStylesNu@ 000000014008fea0     decorations.obj
 0002:00009ee0       ??_C@_0M@LIAKBOOA@mergeModels?$AA@ 000000014008fee0     decorations.obj
 0002:00009ef0       ??_C@_0M@EKLHLEPA@mergeRadius?$AA@ 000000014008fef0     decorations.obj
 0002:00009f00       ??_C@_09FOMJIFNN@mergeAxis?$AA@ 000000014008ff00     decorations.obj
 0002:00009f0c       ??_C@_03POMAGKDD@xyz?$AA@  000000014008ff0c     decorations.obj
 0002:00009f10       ??_C@_02KEKBNNLK@xy?$AA@   000000014008ff10     decorations.obj
 0002:00009f18       ??_C@_0N@IKHNEIKC@mergeMaxSize?$AA@ 000000014008ff18     decorations.obj
 0002:00009f28       ??_C@_0DM@ODJLHDBM@LoadDecorationScript?3?5double?5?8en@ 000000014008ff28     decorations.obj
 0002:00009f68       ??_C@_0BH@BOAJNJEK@?$CF9i?5decoration?5groups?6?$AA@ 000000014008ff68     decorations.obj
 0002:00009f80       ??_C@_0BG@LICJAIFP@?$CF9i?5entities?5in?5?8?$CFs?8?6?$AA@ 000000014008ff80     decorations.obj
 0002:00009f98       ??_C@_02IKAHHCAI@?$CFi?$AA@ 000000014008ff98     decorations.obj
 0002:00009fa0       ??_C@_0M@BKGAKIEJ@_keepLights?$AA@ 000000014008ffa0     decorations.obj
 0002:00009fb0       ??_C@_0BI@OIAOKNKA@?9?9?9?5ImportRtlights?5?9?9?9?6?$AA@ 000000014008ffb0     decorations.obj
 0002:00009fc8       ??_C@_09FKCJDGNI@?4rtlights?$AA@ 000000014008ffc8     decorations.obj
 0002:00009fd8       ??_C@_0BM@HPCLLBLN@?5map?5has?5no?5?4rtlights?5file?6?$AA@ 000000014008ffd8     decorations.obj
 0002:00009ff8       ??_C@_0DJ@ICCHNBKM@?$CFf?5?$CFf?5?$CFf?5?$CFf?5?$CFf?5?$CFf?5?$CFf?5?$CFd?5?$CF127s?5?$CFf@ 000000014008fff8     decorations.obj
 0002:0000a034       ??_C@_02JMMFPCED@?$CC?$CC?$AA@ 0000000140090034     decorations.obj
 0002:0000a038       ??_C@_09EABNLLOO@_deviance?$AA@ 0000000140090038     decorations.obj
 0002:0000a048       ??_C@_08MNEFCDNK@_samples?$AA@ 0000000140090048     decorations.obj
 0002:0000a058       ??_C@_08OEFLLEHP@_mindist?$AA@ 0000000140090058     decorations.obj
 0002:0000a068       ??_C@_0BI@KIHHJHKO@?5invalid?5rtlights?5file?6?$AA@ 0000000140090068     decorations.obj
 0002:0000a080       ??_C@_0BG@DKEKIIHN@?5?$CF6i?5lights?5imported?6?$AA@ 0000000140090080     decorations.obj
 0002:0000a098       ??_C@_04ECJHHKO@?90?41?$AA@ 0000000140090098     decorations.obj
 0002:0000a0a0       ??_C@_0P@FAEIEGCK@__decgrp_?$CFs_?$CFi?$AA@ 00000001400900a0     decorations.obj
 0002:0000a0b0       ??_C@_0M@FELPJLHE@_mergetests?$AA@ 00000001400900b0     decorations.obj
 0002:0000a0c0       ??_C@_0BM@IOBGGCKI@?9?9?9?5ProcessDecorations?5?9?9?9?6?$AA@ 00000001400900c0     decorations.obj
 0002:0000a0e0       ??_C@_0BF@DBELPED@?$CF9i?5tests?5performed?6?$AA@ 00000001400900e0     decorations.obj
 0002:0000a0f8       ??_C@_0CB@CNDDCACE@?$CF9i?5models?5merged?5to?5?$CFi?5in?5?8?$CFs?8?6@ 00000001400900f8     decorations.obj
 0002:0000a120       ??_C@_0CH@CAKIKGE@?$CF9i?5large?5models?5pushed?5to?5world@ 0000000140090120     decorations.obj
 0002:0000a148       ??_C@_0BB@DIPBEIPC@?4?4?2src?2facebsp?4c?$AA@ 0000000140090148     facebsp.obj
 0002:0000a160       ??_C@_0BB@FDHHFBJC@?9?9?9?5FaceBSP?5?9?9?9?6?$AA@ 0000000140090160     facebsp.obj
 0002:0000a178       ??_C@_0L@FKFAOHIF@?$CF9d?5faces?6?$AA@ 0000000140090178     facebsp.obj
 0002:0000a188       ??_C@_0L@NMEAGFD@?$CF9d?5leafs?6?$AA@ 0000000140090188     facebsp.obj
 0002:0000a198       ??_C@_0N@FMLANIIB@?4?4?2src?2fog?4c?$AA@ 0000000140090198     fog.obj
 0002:0000a1a8       ??_C@_0BN@NKONEEEK@No?5crossing?5points?5in?5patch?6?$AA@ 00000001400901a8     fog.obj
 0002:0000a1c8       ??_C@_0DC@HJOCLDJP@multiple?5crossing?5points?5for?5pat@ 00000001400901c8     fog.obj
 0002:0000a200       ??_C@_0DD@DIEBKKM@differing?5crossing?5points?5for?5pa@ 0000000140090200     fog.obj
 0002:0000a238       ??_C@_0BL@KLAFGKPI@MAX_PATCH_SIZE?5after?5split?$AA@ 0000000140090238     fog.obj
 0002:0000a258       ??_C@_0BA@JGBNGEPH@MAX_BRUSH_SIDES?$AA@ 0000000140090258     fog.obj
 0002:0000a268       ??_C@_0DL@OOAEEKGN@WindingFromDrawSurf?5failed?3?5MAX_@ 0000000140090268     fog.obj
 0002:0000a2a8       ??_C@_0BI@KAKEBGDC@?9?9?9?9?5FogDrawSurfs?5?9?9?9?9?6?$AA@ 00000001400902a8     fog.obj
 0002:0000a2c0       ??_C@_0BL@MOJKIPNN@?$CF9d?5fog?5polygon?5fragments?6?$AA@ 00000001400902c0     fog.obj
 0002:0000a2e0       ??_C@_0BJ@NLFOIMEL@?$CF9d?5fog?5patch?5fragments?6?$AA@ 00000001400902e0     fog.obj
 0002:0000a300       ??_C@_0BG@GCKPJAKH@?$CF9d?5fogged?5drawsurfs?6?$AA@ 0000000140090300     fog.obj
 0002:0000a318       ??_C@_0BH@PLDJHGAK@?9?9?9?5CreateMapFogs?5?9?9?9?6?$AA@ 0000000140090318     fog.obj
 0002:0000a330       ??_C@_0BL@KDDECJKI@Exceeded?5MAX_MAP_FOGS?5?$CI?$CFd?$CJ?$AA@ 0000000140090330     fog.obj
 0002:0000a34c       ??_C@_04PEOEIJFK@_fog?$AA@ 000000014009034c     fog.obj
 0002:0000a358       ??_C@_0DE@IOCCHFNM@Exceeded?5MAX_MAP_FOGS?5?$CI?$CFd?$CJ?5tryin@ 0000000140090358     fog.obj
 0002:0000a390       ??_C@_0BO@KIANBEGO@Map?5has?5global?5fog?5shader?5?$CFs?6?$AA@ 0000000140090390     fog.obj
 0002:0000a3b0       ??_C@_0DI@IDAHGBNA@Invalid?5shader?5?$CC?$CFs?$CC?5referenced?5t@ 00000001400903b0     fog.obj
 0002:0000a3e8       ??_C@_09GDOJEDKL@?$CF9d?5fogs?6?$AA@ 00000001400903e8     fog.obj
 0002:0000a3f8       ??_C@_0BC@LPEHNNEG@?9?9?9?5LeakFile?5?9?9?9?6?$AA@ 00000001400903f8     leakfile.obj
 0002:0000a410       ??_C@_0BC@ONJICBGP@Couldn?8t?5open?5?$CFs?6?$AA@ 0000000140090410     leakfile.obj
 0002:0000a428       ??_C@_08MAIKLLAG@polyline?$AA@ 0000000140090428     leakfile.obj
 0002:0000a438       ??_C@_09MALOBAAJ@?$CFf?5?$CFf?5?$CFf?6?$AA@ 0000000140090438     leakfile.obj
 0002:0000a448       ??_C@_0BE@POPPONPO@?$CF9d?5point?5linefile?6?$AA@ 0000000140090448     leakfile.obj
 0002:0000a460       ??_C@_0BI@HFPNHBMD@FloatPlane?3?5bad?5normal?6?$AA@ 0000000140090460     map.obj
 0002:0000a478       ??_C@_0P@OPCJGGAO@MAX_MAP_PLANES?$AA@ 0000000140090478     map.obj
 0002:0000a488       ??_C@_0DH@HOAAKMAF@Mixed?5detail?5and?5structural?5?$CIdef@ 0000000140090488     map.obj
 0002:0000a4c0       ??_C@_0BA@KGGCIIPN@MAX_BUILD_SIDES?$AA@ 00000001400904c0     map.obj
 0002:0000a4d0       ??_C@_0DK@OCAMFMAB@Entity?5?$CFi?0?5Brush?5?$CFi?3?5origin?5brus@ 00000001400904d0     map.obj
 0002:0000a510       ??_C@_08DIEBNEND@?$CFi?5?$CFi?5?$CFi?$AA@ 0000000140090510     map.obj
 0002:0000a520       ??_C@_0DI@JKHOMMAE@Entity?5?$CFi?0?5Brush?5?$CFi?3?5areaportals@ 0000000140090520     map.obj
 0002:0000a558       ??_C@_0BB@MGLLHJM@degenerate?5plane?$AA@ 0000000140090558     map.obj
 0002:0000a570       ??_C@_0BA@IDGBHDDK@duplicate?5plane?$AA@ 0000000140090570     map.obj
 0002:0000a580       ??_C@_0P@JEIPHHHE@mirrored?5plane?$AA@ 0000000140090580     map.obj
 0002:0000a590       ??_C@_03KLIPLJLL@min?$AA@  0000000140090590     map.obj
 0002:0000a594       ??_C@_03LJAEFNNE@max?$AA@  0000000140090594     map.obj
 0002:0000a598       ??_C@_09CAMPGFBE@_indexmap?$AA@ 0000000140090598     map.obj
 0002:0000a5a8       ??_C@_08NGFBDPJM@alphamap?$AA@ 00000001400905a8     map.obj
 0002:0000a5b8       ??_C@_07DCDICIBG@_layers?$AA@ 00000001400905b8     map.obj
 0002:0000a5c0       ??_C@_06EGHAMJGL@layers?$AA@ 00000001400905c0     map.obj
 0002:0000a5d0       ??_C@_0FB@MJMBBHDO@WARNING?3?5Entity?5with?5index?1alpha@ 00000001400905d0     map.obj
 0002:0000a628       ??_C@_0DP@PKCDMHIG@Entity?5will?5not?5be?5textured?5prop@ 0000000140090628     map.obj
 0002:0000a668       ??_C@_0DO@IFALEKIP@WARNING?3?5Entity?5with?5index?1alpha@ 0000000140090668     map.obj
 0002:0000a6a8       ??_C@_07GMPPKKGL@_shader?$AA@ 00000001400906a8     map.obj
 0002:0000a6b0       ??_C@_0FB@IAAACAGG@WARNING?3?5Entity?5with?5index?1alpha@ 00000001400906b0     map.obj
 0002:0000a708       ??_C@_0CK@NBFEBNJA@Entity?5?$CFd?5?$CI?$CFs?$CJ?5has?5shader?5index?5@ 0000000140090708     map.obj
 0002:0000a738       ??_C@_0N@EEIJPJAF@?4?4?2src?2map?4c?$AA@ 0000000140090738     map.obj
 0002:0000a750       ??_C@_0EG@JOKGBLBL@WARNING?3?5Entity?5with?5index?1alpha@ 0000000140090750     map.obj
 0002:0000a798       ??_C@_08GOHNDFOO@_offsets?$AA@ 0000000140090798     map.obj
 0002:0000a7a8       ??_C@_07EALNHAIO@offsets?$AA@ 00000001400907a8     map.obj
 0002:0000a7b0       ??_C@_0KE@KJGJECHL@WARNING?3?5ParseEntity?3?5?$HL?5not?5foun@ 00000001400907b0     map.obj
 0002:0000a860       ??_C@_0GO@NKNCECLD@WARNING?3?5ParseEntity?3?5EOF?5withou@ 0000000140090860     map.obj
 0002:0000a8d0       ??_C@_09NHGGNJII@patchDef2?$AA@ 00000001400908d0     map.obj
 0002:0000a8e0       ??_C@_0L@JAJIAHIH@terrainDef?$AA@ 00000001400908e0     map.obj
 0002:0000a8f0       ??_C@_0DO@COBODIBH@WARNING?3?5Terrain?5entity?5parsing?5@ 00000001400908f0     map.obj
 0002:0000a930       ??_C@_08HGHPGCHB@brushDef?$AA@ 0000000140090930     map.obj
 0002:0000a940       ??_C@_0DF@MOJLPFMA@Old?5brush?5format?5not?5allowed?5in?5@ 0000000140090940     map.obj
 0002:0000a978       ??_C@_0DF@GGLOJFKA@New?5brush?5format?5not?5allowed?5in?5@ 0000000140090978     map.obj
 0002:0000a9b0       ??_C@_0L@KLICIANB@func_group?$AA@ 00000001400909b0     map.obj
 0002:0000a9c0       ??_C@_09LDDKBMJB@_nonsolid?$AA@ 00000001400909c0     map.obj
 0002:0000a9cc       ??_C@_03LIOPDAI@_ns?$AA@   00000001400909cc     map.obj
 0002:0000a9d0       ??_C@_0L@IIBFHGHD@group_info?$AA@ 00000001400909d0     map.obj
 0002:0000a9e0       ??_C@_0BF@FMOCFBNF@?9?9?9?5LoadMapFile?5?9?9?9?6?$AA@ 00000001400909e0     map.obj
 0002:0000a9f8       ??_C@_0BE@ONBJBBMC@?$CF9d?5foliage?5models?6?$AA@ 00000001400909f8     map.obj
 0002:0000aa10       ??_C@_0BE@GPGMGMEL@?$CF9d?5light?5entities?6?$AA@ 0000000140090a10     map.obj
 0002:0000aa30       ??_C@_0FL@ICLLALNG@WARNING?3?5Over?590?5percent?5structu@ 0000000140090a30     map.obj
 0002:0000aa90       ??_C@_0BJ@BNFDKJCN@?$CF9d?5total?5world?5brushes?6?$AA@ 0000000140090a90     map.obj
 0002:0000aab0       ??_C@_0N@LENEEGG@?$CF9d?5patches?6?$AA@ 0000000140090ab0     map.obj
 0002:0000aac0       ??_C@_0P@DJPLBJFN@?$CF9d?5boxbevels?6?$AA@ 0000000140090ac0     map.obj
 0002:0000aad0       ??_C@_0BA@INIKGOKF@?$CF9d?5edgebevels?6?$AA@ 0000000140090ad0     map.obj
 0002:0000aae0       ??_C@_0M@KICOFNCI@?$CF9d?5planes?6?$AA@ 0000000140090ae0     map.obj
 0002:0000aaf0       ??_C@_0BB@KKDMFNAH@?$CF9d?5areaportals?6?$AA@ 0000000140090af0     map.obj
 0002:0000ab08       ??_C@_0CN@ODAENFDH@Size?3?5?$HL?5?$CF?40f?5?$CF?40f?5?$CF?40f?5?$HN?5?$HL?5?$CF?40f?5@ 0000000140090b08     map.obj
 0002:0000ab38       ??_C@_0M@FBHGBLEM@fakemap?4map?$AA@ 0000000140090b38     map.obj
 0002:0000ab48       ??_C@_0P@MOFINEOP@?4?4?2src?2patch?4c?$AA@ 0000000140090b48     patch.obj
 0002:0000ab58       ??_C@_0BF@JENDBJHH@ParsePatch?3?5bad?5size?$AA@ 0000000140090b58     patch.obj
 0002:0000ab70       ??_C@_0BB@COEKDJJO@degenerate?5patch?$AA@ 0000000140090b70     patch.obj
 0002:0000ab88       ??_C@_0BL@NOOGEMJA@?9?9?9?5PatchMapDrawSurfs?5?9?9?9?6?$AA@ 0000000140090b88     patch.obj
 0002:0000aba8       ??_C@_0BG@BHDLOPNF@?$CF9d?5patch?5LOD?5groups?6?$AA@ 0000000140090ba8     patch.obj
 0002:0000abc0       ??_C@_0BB@NNKKBJBD@?4?4?2src?2portals?4c?$AA@ 0000000140090bc0     portals.obj
 0002:0000abd8       ??_C@_0BP@LIHEBGBH@Portal_EntityFlood?3?5not?5a?5leaf?$AA@ 0000000140090bd8     portals.obj
 0002:0000abf8       ??_C@_0CD@JFIEIEKB@AddPortalToNode?3?5allready?5includ@ 0000000140090bf8     portals.obj
 0002:0000ac20       ??_C@_0CJ@IIKHMOPG@RemovePortalFromNode?3?5portal?5not@ 0000000140090c20     portals.obj
 0002:0000ac50       ??_C@_0CP@CAKEOEAK@RemovePortalFromNode?3?5portal?5not@ 0000000140090c50     portals.obj
 0002:0000ac80       ??_C@_0BG@BAOOPHAF@Backwards?5tree?5volume?$AA@ 0000000140090c80     portals.obj
 0002:0000ac98       ??_C@_0CD@BKLIBDI@CutNodePortals_r?3?5mislinked?5port@ 0000000140090c98     portals.obj
 0002:0000acc0       ??_C@_0CD@IJDJNC@SplitNodePortals?3?5mislinked?5port@ 0000000140090cc0     portals.obj
 0002:0000ace8       ??_C@_0CA@LKBBLMDG@WARNING?3?5node?5without?5a?5volume?6?$AA@ 0000000140090ce8     portals.obj
 0002:0000ad08       ??_C@_0BK@BCNMHFBN@node?5has?5?$CFd?5tiny?5portals?6?$AA@ 0000000140090d08     portals.obj
 0002:0000ad28       ??_C@_0CI@HCKMHFLP@node?5reference?5point?5?$CF1?42f?5?$CF1?42f@ 0000000140090d28     portals.obj
 0002:0000ad50       ??_C@_0CE@NNIOPOHL@WARNING?3?5Node?5With?5Unbounded?5Vol@ 0000000140090d50     portals.obj
 0002:0000ad78       ??_C@_0BJ@HAJDOKAC@?9?9?9?5MakeTreePortals?5?9?9?9?6?$AA@ 0000000140090d78     portals.obj
 0002:0000ad98       ??_C@_0BC@GILNCCL@?$CF9d?5tiny?5portals?6?$AA@ 0000000140090d98     portals.obj
 0002:0000adb0       ??_C@_0BB@NMIGLNJL@?$CF9d?5bad?5portals?6?$AA@ 0000000140090db0     portals.obj
 0002:0000adc8       ??_C@_0BH@HLBIBACP@?9?9?9?5FloodEntities?5?9?9?9?6?$AA@ 0000000140090dc8     portals.obj
 0002:0000ade0       ??_C@_06DOPHPGON@_scale?$AA@ 0000000140090de0     portals.obj
 0002:0000ade8       ??_C@_09MBOCECHK@info_null?$AA@ 0000000140090de8     portals.obj
 0002:0000adf8       ??_C@_0O@FKJNNIKJ@Entity?5leaked?$AA@ 0000000140090df8     portals.obj
 0002:0000ae08       ??_C@_0BD@DJDGKBOJ@?$CF9d?5flooded?5leafs?6?$AA@ 0000000140090e08     portals.obj
 0002:0000ae20       ??_C@_0CD@DNPJGLB@no?5entities?5in?5open?5?9?9?5no?5fillin@ 0000000140090e20     portals.obj
 0002:0000ae48       ??_C@_0CL@GHKIMALJ@entity?5reached?5from?5outside?5?9?9?5n@ 0000000140090e48     portals.obj
 0002:0000ae78       ??_C@_0DA@LKNECMBA@WARNING?3?5areaportal?5brush?5?$CFi?5tou@ 0000000140090e78     portals.obj
 0002:0000aea8       ??_C@_0BE@PLEMBIKP@?9?9?9?5FloodAreas?5?9?9?9?6?$AA@ 0000000140090ea8     portals.obj
 0002:0000aec0       ??_C@_0L@BKJHMLMJ@?$CF9d?5areas?6?$AA@ 0000000140090ec0     portals.obj
 0002:0000aed0       ??_C@_0BF@HAKMMJNB@?9?9?9?5FillOutside?5?9?9?9?6?$AA@ 0000000140090ed0     portals.obj
 0002:0000aee8       ??_C@_0BB@BFANMJAA@?$CF9d?5solid?5leafs?6?$AA@ 0000000140090ee8     portals.obj
 0002:0000af00       ??_C@_0BC@KPNDPHOM@?$CF9d?5leafs?5filled?6?$AA@ 0000000140090f00     portals.obj
 0002:0000af18       ??_C@_0BC@IHJMBGPB@?$CF9d?5inside?5leafs?6?$AA@ 0000000140090f18     portals.obj
 0002:0000af30       ??_C@_09IKGGOGBI@?$CFi?5?$CFi?5?$CFi?5?$AA@ 0000000140090f30     prtfile.obj
 0002:0000af3c       ??_C@_02LAJDINOI@1?5?$AA@  0000000140090f3c     prtfile.obj
 0002:0000af40       ??_C@_02LBFBOHNP@0?5?$AA@  0000000140090f40     prtfile.obj
 0002:0000af44       ??_C@_02KCKGHPCA@?$CJ?5?$AA@ 0000000140090f44     prtfile.obj
 0002:0000af48       ??_C@_06FEECMMCN@?$CFi?5?$CFi?5?$AA@ 0000000140090f48     prtfile.obj
 0002:0000af50       ??_C@_0BI@NGNDDIPA@?9?9?9?5NumberClusters?5?9?9?9?6?$AA@ 0000000140090f50     prtfile.obj
 0002:0000af68       ??_C@_0BB@BIMKHLJM@?$CF9d?5visclusters?6?$AA@ 0000000140090f68     prtfile.obj
 0002:0000af80       ??_C@_0BA@HELOIKFI@?$CF9d?5visportals?6?$AA@ 0000000140090f80     prtfile.obj
 0002:0000af90       ??_C@_0BA@EIEGDCAN@?$CF9d?5solidfaces?6?$AA@ 0000000140090f90     prtfile.obj
 0002:0000afa0       ??_C@_0BJ@PPHGGLDL@?9?9?9?5WritePortalFile?5?9?9?9?6?$AA@ 0000000140090fa0     prtfile.obj
 0002:0000afc0       ??_C@_0M@JKCPKPL@writing?5?$CFs?6?$AA@ 0000000140090fc0     prtfile.obj
 0002:0000afd0       ??_C@_0BB@KKAAPNA@Error?5opening?5?$CFs?$AA@ 0000000140090fd0     prtfile.obj
 0002:0000afe4       ??_C@_04MNCCIBNO@PRT1?$AA@ 0000000140090fe4     prtfile.obj
 0002:0000afec       ??_C@_03PELOGHMK@?$CFi?6?$AA@ 0000000140090fec     prtfile.obj
 0002:0000aff0       ??_C@_0DE@FDCBJMJO@AllocDrawSurface?3?5Invalid?5surfac@ 0000000140090ff0     surface.obj
 0002:0000b028       ??_C@_0CB@OGKDNAPN@MAX_MAP_DRAW_SURFS?5?$CI?$CFd?$CJ?5exceeded@ 0000000140091028     surface.obj
 0002:0000b050       ??_C@_0BB@IBAHIIK@?4?4?2src?2surface?4c?$AA@ 0000000140091050     surface.obj
 0002:0000b068       ??_C@_0BM@MLJGICJC@?9?9?9?5TidyEntitySurfaces?5?9?9?9?6?$AA@ 0000000140091068     surface.obj
 0002:0000b088       ??_C@_0CJ@KEDHJMCE@?$CF9d?5empty?5or?5malformed?5surfaces?5@ 0000000140091088     surface.obj
 0002:0000b0b8       ??_C@_0P@FOLEDMMO@textures?1?$CFs_?$CFd?$AA@ 00000001400910b8     surface.obj
 0002:0000b0c8       ??_C@_0BD@OHJJBJHM@textures?1?$CFs_?$CFdto?$CFd?$AA@ 00000001400910c8     surface.obj
 0002:0000b0e0       ??_C@_0CN@EEBDBJOP@DrawSurfaceForSide?3?5w?9?$DOnumpoints@ 00000001400910e0     surface.obj
 0002:0000b110       ??_C@_05EGCKLBFH@?$CFs_lf?$AA@ 0000000140091110     surface.obj
 0002:0000b118       ??_C@_05CIGGEPPO@?$CFs_rt?$AA@ 0000000140091118     surface.obj
 0002:0000b120       ??_C@_05DDEJEEFC@?$CFs_ft?$AA@ 0000000140091120     surface.obj
 0002:0000b128       ??_C@_05PJBKOCBA@?$CFs_bk?$AA@ 0000000140091128     surface.obj
 0002:0000b130       ??_C@_05EJEFJMHP@?$CFs_up?$AA@ 0000000140091130     surface.obj
 0002:0000b138       ??_C@_05IAOAGKOH@?$CFs_dn?$AA@ 0000000140091138     surface.obj
 0002:0000b140       ??_C@_06KCHHDDOK@BOGUS?5?$AA@ 0000000140091140     surface.obj
 0002:0000b148       ??_C@_0CL@KPHKJEBL@SubdivideFace_r?3?5Bad?5w?9?$DOnumpoint@ 0000000140091148     surface.obj
 0002:0000b178       ??_C@_0BP@JAEGDJN@?9?9?9?5SubdivideFaceSurfaces?5?9?9?9?6?$AA@ 0000000140091178     surface.obj
 0002:0000b198       ??_C@_0BD@JDLJEHPC@?9?9?9?5CullSides?5?9?9?9?6?$AA@ 0000000140091198     surface.obj
 0002:0000b1b0       ??_C@_0BJ@HAELOPHB@?$CF9d?5hidden?5faces?5culled?6?$AA@ 00000001400911b0     surface.obj
 0002:0000b1d0       ??_C@_0BN@BEMLBINF@?$CF9d?5coincident?5faces?5culled?6?$AA@ 00000001400911d0     surface.obj
 0002:0000b1f0       ??_C@_0BL@LNCGCHAE@?9?9?9?5ClipSidesIntoTree?5?9?9?9?6?$AA@ 00000001400911f0     surface.obj
 0002:0000b210       ??_C@_0CG@MHEBBAKN@Index?5?$CFd?5greater?5than?5vertex?5cou@ 0000000140091210     surface.obj
 0002:0000b238       ??_C@_0BD@EJNEGGJ@MAX_MAP_DRAW_VERTS?$AA@ 0000000140091238     surface.obj
 0002:0000b250       ??_C@_0BF@DENFNOKC@MAX_MAP_DRAW_INDEXES?$AA@ 0000000140091250     surface.obj
 0002:0000b268       ??_C@_0CK@LDOGBIEF@WARNING?3?5?$CFd?5?$CFs?5has?5invalid?5index@ 0000000140091268     surface.obj
 0002:0000b298       ??_C@_0BD@CLBCDHEG@MAX_MAP_DRAW_SURFS?$AA@ 0000000140091298     surface.obj
 0002:0000b2b0       ??_C@_0L@DHAJDCAI@_patchMeta?$AA@ 00000001400912b0     surface.obj
 0002:0000b2c0       ??_C@_09FEECMCHA@patchMeta?$AA@ 00000001400912c0     surface.obj
 0002:0000b2cc       ??_C@_03MJHHECKN@_pm?$AA@  00000001400912cc     surface.obj
 0002:0000b2d0       ??_C@_0O@JPMFJECH@debugsurfaces?$AA@ 00000001400912d0     surface.obj
 0002:0000b2e0       ??_C@_0CF@DPAHOIIN@MakePortalSurfs_r?3?5w?9?$DOnumpoints?5@ 00000001400912e0     surface.obj
 0002:0000b308       ??_C@_0BO@NKDHMDCF@?9?9?9?5MakeDebugPortalSurfs?5?9?9?9?6?$AA@ 0000000140091308     surface.obj
 0002:0000b328       ??_C@_0N@PDLJFAKL@debugportals?$AA@ 0000000140091328     surface.obj
 0002:0000b338       ??_C@_0BK@JKFMJHCL@?9?9?9?5MakeFogHullSurfs?5?9?9?9?6?$AA@ 0000000140091338     surface.obj
 0002:0000b358       ??_C@_0CA@LPJPDLNE@?9?9?9?5AddEntitySurfaceModels?5?9?9?9?6?$AA@ 0000000140091358     surface.obj
 0002:0000b378       ??_C@_0BI@FABDAFBB@?9?9?9?5FixVertexAlpha?5?9?9?9?6?$AA@ 0000000140091378     surface.obj
 0002:0000b390       ??_C@_0BE@CAGLKDLO@?$CF9d?5vertexes?5fixed?6?$AA@ 0000000140091390     surface.obj
 0002:0000b3a8       ??_C@_0BJ@ILHNAHIK@?9?9?9?5ApplyVertexMods?5?9?9?9?6?$AA@ 00000001400913a8     surface.obj
 0002:0000b3c8       ??_C@_0CB@CDPFBCDK@?9?9?9?5FilterDrawsurfsIntoTree?5?9?9?9?6@ 00000001400913c8     surface.obj
 0002:0000b3f0       ??_C@_0DL@GDEGNMBI@?6WARNING?3?5Potentially?5bad?5?$CFs?5sur@ 00000001400913f0     surface.obj
 0002:0000b430       ??_C@_0BA@LKDANFNP@?$CF9d?5references?6?$AA@ 0000000140091430     surface.obj
 0002:0000b440       ??_C@_0O@FGGEBAAJ@?$CF9d?5surfaces?6?$AA@ 0000000140091440     surface.obj
 0002:0000b450       ??_C@_0BP@CCEKGODD@?$CF9d?5skybox?5surfaces?5generated?6?$AA@ 0000000140091450     surface.obj
 0002:0000b470       ??_C@_0BH@LCKJPNDC@?$CF9d?5emitted?5drawsurfs?6?$AA@ 0000000140091470     surface.obj
 0002:0000b488       ??_C@_0BM@HPBDBHCF@?$CF9d?5stripped?5face?5surfaces?6?$AA@ 0000000140091488     surface.obj
 0002:0000b4a8       ??_C@_0BK@DJKDMKCM@?$CF9d?5fanned?5face?5surfaces?6?$AA@ 00000001400914a8     surface.obj
 0002:0000b4c8       ??_C@_0BO@IBDIAOGG@?$CF9d?5surface?5models?5generated?6?$AA@ 00000001400914c8     surface.obj
 0002:0000b4e8       ??_C@_0BB@KCICFIIH@?$CF9d?5?$CFs?5surfaces?6?$AA@ 00000001400914e8     surface.obj
 0002:0000b500       ??_C@_0DD@CHJGGNFG@?$CF9d?5redundant?5indexes?5supressed?0@ 0000000140091500     surface.obj
 0002:0000b538       ??_C@_0BJ@HFKONJNJ@?4?4?2src?2surface_foliage?4c?$AA@ 0000000140091538     surface_foliage.obj
 0002:0000b558       ??_C@_0BG@BKBFPIGF@?4?4?2src?2surface_meta?4c?$AA@ 0000000140091558     surface_meta.obj
 0002:0000b570       ??_C@_0O@JGNFOIND@_patchQuality?$AA@ 0000000140091570     surface_meta.obj
 0002:0000b580       ??_C@_0N@DJIFKIPN@patchQuality?$AA@ 0000000140091580     surface_meta.obj
 0002:0000b590       ??_C@_03CPAABPPA@_pq?$AA@  0000000140091590     surface_meta.obj
 0002:0000b598       ??_C@_0BA@MANMALBL@_patchSubdivide?$AA@ 0000000140091598     surface_meta.obj
 0002:0000b5a8       ??_C@_0P@LNAHOMPH@patchSubdivide?$AA@ 00000001400915a8     surface_meta.obj
 0002:0000b5b8       ??_C@_03BNDGHNHC@_ps?$AA@  00000001400915b8     surface_meta.obj
 0002:0000b5c0       ??_C@_0DG@LACJPHCC@MAX_INDEXES?5exceeded?5for?5surface@ 00000001400915c0     surface_meta.obj
 0002:0000b5f8       ??_C@_0BD@EAAFGJBA@?9?9?9?5MetaStats?5?9?9?9?6?$AA@ 00000001400915f8     surface_meta.obj
 0002:0000b610       ??_C@_0BJ@EBKICDJA@?$CF9d?5total?5meta?5surfaces?6?$AA@ 0000000140091610     surface_meta.obj
 0002:0000b630       ??_C@_0BH@PDLEOEGE@?$CF9d?5stripped?5surfaces?6?$AA@ 0000000140091630     surface_meta.obj
 0002:0000b648       ??_C@_0BF@HABANEJM@?$CF9d?5fanned?5surfaces?6?$AA@ 0000000140091648     surface_meta.obj
 0002:0000b660       ??_C@_0BJ@DMHFCAAA@?$CF9d?5patch?5meta?5surfaces?6?$AA@ 0000000140091660     surface_meta.obj
 0002:0000b680       ??_C@_0BA@CENMKLGI@?$CF9d?5meta?5verts?6?$AA@ 0000000140091680     surface_meta.obj
 0002:0000b690       ??_C@_0BE@PDOAIBGI@?$CF9d?5meta?5triangles?6?$AA@ 0000000140091690     surface_meta.obj
 0002:0000b6a8       ??_C@_0BF@EFBEJDHO@?$CF9d?5surfaces?5merged?6?$AA@ 00000001400916a8     surface_meta.obj
 0002:0000b6c0       ??_C@_0BF@GNHCJKMJ@?$CF9d?5vertexes?5merged?6?$AA@ 00000001400916c0     surface_meta.obj
 0002:0000b6d8       ??_C@_0CB@NCEPKFGG@?9?9?9?5MakeEntityMetaTriangles?5?9?9?9?6@ 00000001400916d8     surface_meta.obj
 0002:0000b700       ??_C@_0BN@INOLJKNM@?9?9?9?5SmoothMetaTriangles?5?9?9?9?6?$AA@ 0000000140091700     surface_meta.obj
 0002:0000b720       ??_C@_0CJ@FMMIBJPK@No?5smoothing?5angles?5specified?0?5a@ 0000000140091720     surface_meta.obj
 0002:0000b750       ??_C@_0BH@JKPEFEHE@?$CF9d?5smoothed?5vertexes?6?$AA@ 0000000140091750     surface_meta.obj
 0002:0000b768       ??_C@_08MONGNCLK@DEG?3?$CFd?$CB?5?$AA@ 0000000140091768     surface_meta.obj
 0002:0000b778       ??_C@_0BM@HKKMHAHE@?9?9?9?5MergeMetaTriangles?5?9?9?9?6?$AA@ 0000000140091778     surface_meta.obj
 0002:0000b798       ??_C@_0BJ@EDFPEJHA@?$CF9d?5triangles?5processed?6?$AA@ 0000000140091798     surface_meta.obj
 0002:0000b7b8       ??_C@_0BD@PDEEHONA@?4?4?2src?2tjunction?4c?$AA@ 00000001400917b8     tjunction.obj
 0002:0000b7d0       ??_C@_0BD@JKJIOPAM@MAX_ORIGINAL_EDGES?$AA@ 00000001400917d0     tjunction.obj
 0002:0000b7e8       ??_C@_0P@FACBHFHM@MAX_EDGE_LINES?$AA@ 00000001400917e8     tjunction.obj
 0002:0000b7f8       ??_C@_0BC@DIGPFJJL@MAX_SURFACE_VERTS?$AA@ 00000001400917f8     tjunction.obj
 0002:0000b810       ??_C@_0DG@JMKJDDK@WARNING?3?5Degenerate?5T?9junction?5e@ 0000000140091810     tjunction.obj
 0002:0000b848       ??_C@_0BH@CMEAHKME@?9?9?9?5FixTJunctions?5?9?9?9?6?$AA@ 0000000140091848     tjunction.obj
 0002:0000b860       ??_C@_0BG@FMDHIDOE@?$CF9d?5axial?5edge?5lines?6?$AA@ 0000000140091860     tjunction.obj
 0002:0000b878       ??_C@_0BK@KIINDCJA@?$CF9d?5non?9axial?5edge?5lines?6?$AA@ 0000000140091878     tjunction.obj
 0002:0000b898       ??_C@_0BG@LHEIALBH@?$CF9d?5degenerate?5edges?6?$AA@ 0000000140091898     tjunction.obj
 0002:0000b8b0       ??_C@_0CB@JGEIJBNL@?$CF9d?5verts?5added?5for?5T?9junctions?6@ 00000001400918b0     tjunction.obj
 0002:0000b8d8       ??_C@_0BB@MKLKLJPM@?$CF9d?5total?5verts?6?$AA@ 00000001400918d8     tjunction.obj
 0002:0000b8f0       ??_C@_0BH@JMOHGJA@?$CF9d?5naturally?5ordered?6?$AA@ 00000001400918f0     tjunction.obj
 0002:0000b908       ??_C@_0BE@HBIAACA@?$CF9d?5rotated?5orders?6?$AA@ 0000000140091908     tjunction.obj
 0002:0000b920       ??_C@_0BB@MIEIBCHA@?$CF9d?5can?8t?5order?6?$AA@ 0000000140091920     tjunction.obj
 0002:0000b938       ??_C@_0CK@NHGCKLJF@?$CF9d?5broken?5?$CIdegenerate?$CJ?5surfaces@ 0000000140091938     tjunction.obj
 0002:0000b968       ??_C@_0BA@EHHDFLJA@MAX_MAP_SHADERS?$AA@ 0000000140091968     writebsp.obj
 0002:0000b978       ??_C@_0CA@PICNNMKM@Shader?5?$CFs?5has?5damage?5shader?5?$CFs?6?$AA@ 0000000140091978     writebsp.obj
 0002:0000b998       ??_C@_0BA@EBFFOCHJ@?$CF9d?5BSP?5planes?6?$AA@ 0000000140091998     writebsp.obj
 0002:0000b9a8       ??_C@_0O@GFJLGAPD@MAX_MAP_LEAFS?$AA@ 00000001400919a8     writebsp.obj
 0002:0000b9b8       ??_C@_0CN@DPJPDMBK@WARNING?3?5Node?5brush?5list?5corrupt@ 00000001400919b8     writebsp.obj
 0002:0000b9e8       ??_C@_0BE@LAKFKHIO@MAX_MAP_LEAFBRUSHES?$AA@ 00000001400919e8     writebsp.obj
 0002:0000ba00       ??_C@_0BC@CLIHOANB@MAX_MAP_LEAFFACES?$AA@ 0000000140091a00     writebsp.obj
 0002:0000ba18       ??_C@_0O@FHHLJHDC@MAX_MAP_NODES?$AA@ 0000000140091a18     writebsp.obj
 0002:0000ba28       ??_C@_0BP@NGOCBDLI@WriteDrawNodes_r?3?5odd?5planenum?$AA@ 0000000140091a28     writebsp.obj
 0002:0000ba48       ??_C@_03JLINDLFM@?$CK?$CFi?$AA@ 0000000140091a48     writebsp.obj
 0002:0000ba50       ??_C@_0CF@DHMPEIFH@Invalid?5lightstyle?5?$CI?$CFd?$CJ?5on?5entit@ 0000000140091a50     writebsp.obj
 0002:0000ba80       ??_C@_0FA@NHKPGDKB@MAX_SWITCHED_LIGHTS?5?$CI?$CFd?$CJ?5exceede@ 0000000140091a80     writebsp.obj
 0002:0000bad0       ??_C@_0N@OLFKIPC@switch_style?$AA@ 0000000140091ad0     writebsp.obj
 0002:0000bae0       ??_C@_0BN@BFHDGLD@?$CF9d?5light?5entities?5stripped?6?$AA@ 0000000140091ae0     writebsp.obj
 0002:0000bb00       ??_C@_0BF@JNDOOKOP@MAX_MAP_BRUSHES?5?$CI?$CFd?$CJ?$AA@ 0000000140091b00     writebsp.obj
 0002:0000bb18       ??_C@_0BE@GJPLDAFA@MAX_MAP_BRUSHSIDES?5?$AA@ 0000000140091b18     writebsp.obj
 0002:0000bb30       ??_C@_0BM@NEKDFMNL@Fog?5?$CFd?5has?5visible?5side?5?$CFd?6?$AA@ 0000000140091b30     writebsp.obj
 0002:0000bb50       ??_C@_0P@HPIENKFA@MAX_MAP_MODELS?$AA@ 0000000140091b50     writebsp.obj
 0002:0000bb60       ??_C@_0DD@LOOFCBHF@BSP?5bounds?3?5?$HL?5?$CF?40f?5?$CF?40f?5?$CF?40f?5?$HN?5?$HL@ 0000000140091b60     writebsp.obj
 0002:0000bb98       ??_C@_0DJ@CONNDEDF@Lightgrid?5bounds?3?5?$HL?5?$CF?40f?5?$CF?40f?5?$CF?4@ 0000000140091b98     writebsp.obj
 0002:0000bbd8       ??_C@_0CI@ODHCPLMP@WARNING?3?5submodel?5?$CFi?5has?5null?5mi@ 0000000140091bd8     writebsp.obj
 0002:0000bc00       ??_C@_0P@DOPOBHOP@?4?4?2src?2light?4c?$AA@ 0000000140091c00     light.obj
 0002:0000bc10       ??_C@_0M@PLELEDPC@lightJunior?$AA@ 0000000140091c10     light.obj
 0002:0000bc1c       ??_C@_04PLGBOGHH@fade?$AA@ 0000000140091c1c     light.obj
 0002:0000bc28       ??_C@_0M@HLIAPEDP@_anglescale?$AA@ 0000000140091c28     light.obj
 0002:0000bc34       ??_C@_06PHHMIKBC@_light?$AA@ 0000000140091c34     light.obj
 0002:0000bc40       ??_C@_0L@PEPGHOHM@_deviation?$AA@ 0000000140091c40     light.obj
 0002:0000bc50       ??_C@_07KNPMOPLO@_jitter?$AA@ 0000000140091c50     light.obj
 0002:0000bc58       ??_C@_0O@NNDACNCF@_filterradius?$AA@ 0000000140091c58     light.obj
 0002:0000bc68       ??_C@_0N@IPDBGOD@_filteradius?$AA@ 0000000140091c68     light.obj
 0002:0000bc78       ??_C@_07DKMMFJIJ@_filter?$AA@ 0000000140091c78     light.obj
 0002:0000bc80       ??_C@_0DB@BIGEPKMB@WARNING?3?5light?5at?5?$CI?$CFi?5?$CFi?5?$CFi?$CJ?5has@ 0000000140091c80     light.obj
 0002:0000bcb4       ??_C@_06KGHINEPG@radius?$AA@ 0000000140091cb4     light.obj
 0002:0000bcbc       ??_C@_04FDFALDBI@_sun?$AA@ 0000000140091cbc     light.obj
 0002:0000bcc8       ??_C@_0N@EOKGJNID@_noshadersun?$AA@ 0000000140091cc8     light.obj
 0002:0000bcd8       ??_C@_08DCIEFEOO@Sun?3?5?$CFs?6?$AA@ 0000000140091cd8     light.obj
 0002:0000bce8       ??_C@_08PJMMNFLH@Sky?3?5?$CFs?6?$AA@ 0000000140091ce8     light.obj
 0002:0000bcf8       ??_C@_0CF@NFADFJJE@Grid?5size?5?$DN?5?$HL?5?$CF1?40f?0?5?$CF1?40f?0?5?$CF1?40@ 0000000140091cf8     light.obj
 0002:0000bd20       ??_C@_0P@EFLBFLM@?$CF?40f?5?$CF?40f?5?$CF?40f?$AA@ 0000000140091d20     light.obj
 0002:0000bd30       ??_C@_0BM@LOBFFOAN@Storing?5adjusted?5grid?5size?6?$AA@ 0000000140091d30     light.obj
 0002:0000bd50       ??_C@_0BB@JPJPLNEC@?$CF9d?5grid?5points?6?$AA@ 0000000140091d50     light.obj
 0002:0000bd68       ??_C@_0BH@LLHBNFCL@?9?9?9?5SmoothNormals?5?9?9?9?6?$AA@ 0000000140091d68     light.obj
 0002:0000bd80       ??_C@_0BD@KKDKBAEK@?9?9?9?5SetupGrid?5?9?9?9?6?$AA@ 0000000140091d80     light.obj
 0002:0000bd98       ??_C@_08JGMBAOHC@_ambient?$AA@ 0000000140091d98     light.obj
 0002:0000bda8       ??_C@_07LIABELBC@ambient?$AA@ 0000000140091da8     light.obj
 0002:0000bdb0       ??_C@_0BA@IPKAFANA@_minvertexlight?$AA@ 0000000140091db0     light.obj
 0002:0000bdc0       ??_C@_0O@LMBMLMCF@_mingridlight?$AA@ 0000000140091dc0     light.obj
 0002:0000bdd0       ??_C@_09KNBJJDFK@_minlight?$AA@ 0000000140091dd0     light.obj
 0002:0000bde0       ??_C@_0BG@LJMHHBOG@?9?9?9?5CreateLights?5?9?9?9?6?$AA@ 0000000140091de0     light.obj
 0002:0000bdf8       ??_C@_0BC@HIJDHPIN@?$CF9d?5point?5lights?6?$AA@ 0000000140091df8     light.obj
 0002:0000be10       ??_C@_0BA@KPHBJFIP@?$CF9d?5spotlights?6?$AA@ 0000000140091e10     light.obj
 0002:0000be20       ??_C@_0BL@BOKGHDBB@?$CF9d?5diffuse?5?$CIarea?$CJ?5lights?6?$AA@ 0000000140091e20     light.obj
 0002:0000be40       ??_C@_0BE@DNHEOGMB@?$CF9d?5sun?1sky?5lights?6?$AA@ 0000000140091e40     light.obj
 0002:0000be58       ??_C@_0BD@KHOILMKA@?9?9?9?5TraceGrid?5?9?9?9?6?$AA@ 0000000140091e58     light.obj
 0002:0000be70       ??_C@_07BBOBOLKG@gridmix?$AA@ 0000000140091e70     light.obj
 0002:0000be78       ??_C@_0CJ@HODADKLN@?5gridmix?5?$DN?5?$CFf?5?$CIgot?5from?5worldspa@ 0000000140091e78     light.obj
 0002:0000bea8       ??_C@_09MILPPPIH@gridscale?$AA@ 0000000140091ea8     light.obj
 0002:0000beb8       ??_C@_0CL@MIEGDMNN@?5gridscale?5?$DN?5?$CFf?5?$CIgot?5from?5worlds@ 0000000140091eb8     light.obj
 0002:0000bee8       ??_C@_0BB@JOAFECNF@gridambientscale?$AA@ 0000000140091ee8     light.obj
 0002:0000bf00       ??_C@_0DC@COMMHDBF@?5gridambientscale?5?$DN?5?$CFf?5?$CIgot?5from@ 0000000140091f00     light.obj
 0002:0000bf38       ??_C@_0BI@CJADGGJK@?$CFd?5x?5?$CFd?5x?5?$CFd?5?$DN?5?$CFd?5grid?6?$AA@ 0000000140091f38     light.obj
 0002:0000bf50       ??_C@_0CB@FFLAJNDC@?$CF9d?5grid?5points?5envelope?5culled?6@ 0000000140091f50     light.obj
 0002:0000bf78       ??_C@_0BP@KEACCFOE@?$CF9d?5grid?5points?5bounds?5culled?6?$AA@ 0000000140091f78     light.obj
 0002:0000bf98       ??_C@_0BI@NOFHDAOO@?9?9?9?5MapRawLightmap?5?9?9?9?6?$AA@ 0000000140091f98     light.obj
 0002:0000bfb0       ??_C@_0M@FPHNINJJ@?$CF9d?5luxels?6?$AA@ 0000000140091fb0     light.obj
 0002:0000bfc0       ??_C@_0BD@HAJLJECM@?$CF9d?5luxels?5mapped?6?$AA@ 0000000140091fc0     light.obj
 0002:0000bfd8       ??_C@_0BF@GDLIBKBJ@?$CF9d?5luxels?5occluded?6?$AA@ 0000000140091fd8     light.obj
 0002:0000bff0       ??_C@_0BK@GNJHPHMI@?9?9?9?5DirtyRawLightmap?5?9?9?9?6?$AA@ 0000000140091ff0     light.obj
 0002:0000c010       ??_C@_0BP@MILDDOPL@?9?9?9?5IlluminateRawLightmap?5?9?9?9?6?$AA@ 0000000140092010     light.obj
 0002:0000c030       ??_C@_0BI@NNKOKFKJ@?$CF9d?5luxels?5illuminated?6?$AA@ 0000000140092030     light.obj
 0002:0000c048       ??_C@_0BM@GMEMHONI@?9?9?9?5IlluminateVertexes?5?9?9?9?6?$AA@ 0000000140092048     light.obj
 0002:0000c068       ??_C@_0BK@BKACAFCJ@?$CF9d?5vertexes?5illuminated?6?$AA@ 0000000140092068     light.obj
 0002:0000c088       ??_C@_0BJ@JOHBMFEA@?$CF9d?5lights?5plane?5culled?6?$AA@ 0000000140092088     light.obj
 0002:0000c0a8       ??_C@_0BM@FHJOHCI@?$CF9d?5lights?5envelope?5culled?6?$AA@ 00000001400920a8     light.obj
 0002:0000c0c8       ??_C@_0BK@KDFDMAFA@?$CF9d?5lights?5bounds?5culled?6?$AA@ 00000001400920c8     light.obj
 0002:0000c0e8       ??_C@_0BL@HCMLFPLO@?$CF9d?5lights?5cluster?5culled?6?$AA@ 00000001400920e8     light.obj
 0002:0000c108       ??_C@_0CG@BKLHANGK@?6?9?9?9?5Radiosity?5?$CIbounce?5?$CFd?5of?5?$CFd?$CJ@ 0000000140092108     light.obj
 0002:0000c130       ??_C@_0DC@FMLLEJIC@No?5diffuse?5light?5to?5calculate?0?5e@ 0000000140092130     light.obj
 0002:0000c168       ??_C@_0BE@CCCJMLMI@?9?9?9?5BounceGrid?5?9?9?9?6?$AA@ 0000000140092168     light.obj
 0002:0000c180       ??_C@_0P@LOEOOLOK@?9?9?9?5Light?5?9?9?9?6?$AA@ 0000000140092180     light.obj
 0002:0000c190       ??_C@_0BI@OODPEGHJ@?5lightning?5model?3?5wolf?6?$AA@ 0000000140092190     light.obj
 0002:0000c1a8       ??_C@_0BK@JPAKIBFL@?5lightning?5model?3?5quake3?6?$AA@ 00000001400921a8     light.obj
 0002:0000c1c8       ??_C@_0CA@PFHAHKAD@?5lightmap?5size?3?5?$CFd?5x?5?$CFd?5pixels?6?$AA@ 00000001400921c8     light.obj
 0002:0000c1e8       ??_C@_0BG@FCIPLNFH@?5lightning?5gamma?3?5?$CFf?6?$AA@ 00000001400921e8     light.obj
 0002:0000c200       ??_C@_0BN@MMBBKHIG@?5lightning?5compensation?3?5?$CFf?6?$AA@ 0000000140092200     light.obj
 0002:0000c220       ??_C@_0BJ@PNKEKIJD@?5lightning?5exposure?3?5?$CFf?6?$AA@ 0000000140092220     light.obj
 0002:0000c240       ??_C@_0BG@JGOPMNL@?5lightgrid?5scale?3?5?$CFf?6?$AA@ 0000000140092240     light.obj
 0002:0000c258       ??_C@_0BO@FNJAPOJE@?5lightgrid?5ambient?5scale?3?5?$CFf?6?$AA@ 0000000140092258     light.obj
 0002:0000c278       ??_C@_0CE@IEBMOEMC@?5shader?5lightstyles?5hack?3?5disabl@ 0000000140092278     light.obj
 0002:0000c2a0       ??_C@_0CD@BBJPMKOL@?5shader?5lightstyles?5hack?3?5enable@ 00000001400922a0     light.obj
 0002:0000c2c8       ??_C@_0BH@BEECIALI@?5keep?5lights?3?5enabled?6?$AA@ 00000001400922c8     light.obj
 0002:0000c2e0       ??_C@_0BI@HGHLDJMG@?5keep?5lights?3?5disabled?6?$AA@ 00000001400922e0     light.obj
 0002:0000c2f8       ??_C@_0CF@MMMBIDMK@?5light?5color?5normalization?3?5enab@ 00000001400922f8     light.obj
 0002:0000c320       ??_C@_0CG@MIKIKKNF@?5light?5color?5normalization?3?5disa@ 0000000140092320     light.obj
 0002:0000c348       ??_C@_0BJ@NKFJAPBM@?5patch?5shadows?3?5enabled?6?$AA@ 0000000140092348     light.obj
 0002:0000c368       ??_C@_0BK@KHAOEFLI@?5patch?5shadows?3?5disabled?6?$AA@ 0000000140092368     light.obj
 0002:0000c388       ??_C@_0DG@KBBPABDI@?5deluxemapping?3?5enabled?5with?5tan@ 0000000140092388     light.obj
 0002:0000c3c0       ??_C@_0DE@OPHEICIG@?5deluxemapping?3?5enabled?5with?5mod@ 00000001400923c0     light.obj
 0002:0000c3f8       ??_C@_0BK@KBIEMPPI@?5deluxemapping?3?5disabled?6?$AA@ 00000001400923f8     light.obj
 0002:0000c414       ??_C@_06JDINHHNB@?9point?$AA@ 0000000140092414     light.obj
 0002:0000c420       ??_C@_0M@HIAFNAPE@?9pointscale?$AA@ 0000000140092420     light.obj
 0002:0000c430       ??_C@_0CJ@LKDPHFFF@Point?5?$CIentity?$CJ?5light?5scaled?5by?5?$CF@ 0000000140092430     light.obj
 0002:0000c45c       ??_C@_05KCJBCNHD@?9area?$AA@ 000000014009245c     light.obj
 0002:0000c468       ??_C@_0L@FDDKOGC@?9areascale?$AA@ 0000000140092468     light.obj
 0002:0000c478       ??_C@_0CI@JFMNGECC@Area?5?$CIshader?$CJ?5light?5scaled?5by?5?$CFf@ 0000000140092478     light.obj
 0002:0000c4a0       ??_C@_04MDHJAKFL@?9sky?$AA@ 00000001400924a0     light.obj
 0002:0000c4a8       ??_C@_09BCHAIGNO@?9skyscale?$AA@ 00000001400924a8     light.obj
 0002:0000c4b8       ??_C@_0CC@JBMALMAA@Sky?1sun?5light?5scaled?5by?5?$CFf?5to?5?$CFf@ 00000001400924b8     light.obj
 0002:0000c4e0       ??_C@_0N@IJEOJNFN@?9bouncescale?$AA@ 00000001400924e0     light.obj
 0002:0000c4f0       ??_C@_0CN@JEFDBJHE@Bounce?5?$CIradiosity?$CJ?5light?5scaled?5@ 00000001400924f0     light.obj
 0002:0000c520       ??_C@_0BI@EGCMPKLG@All?5light?5scaled?5by?5?$CFf?6?$AA@ 0000000140092520     light.obj
 0002:0000c538       ??_C@_0L@NLKOEMN@?9gridscale?$AA@ 0000000140092538     light.obj
 0002:0000c548       ??_C@_0CD@FMMGDFED@Grid?5lightning?5scaled?5by?5?$CFf?5?$CI?$CK?$CFf@ 0000000140092548     light.obj
 0002:0000c570       ??_C@_0BC@JOBMALPO@?9gridambientscale?$AA@ 0000000140092570     light.obj
 0002:0000c588       ??_C@_0CL@IALJALGP@Grid?5ambient?5lightning?5scaled?5by@ 0000000140092588     light.obj
 0002:0000c5b8       ??_C@_0N@HPKLDEEF@?9vertexscale?$AA@ 00000001400925b8     light.obj
 0002:0000c5c8       ??_C@_0DB@DADLLFDN@Applying?5intensity?5modifier?5?$CFf?5f@ 00000001400925c8     light.obj
 0002:0000c5fc       ??_C@_06IIPPDEIJ@?9gamma?$AA@ 00000001400925fc     light.obj
 0002:0000c608       ??_C@_0BK@CMMKPMJM@Lighting?5gamma?5set?5to?5?$CFf?6?$AA@ 0000000140092608     light.obj
 0002:0000c628       ??_C@_09HHDBNFOO@?9exposure?$AA@ 0000000140092628     light.obj
 0002:0000c638       ??_C@_0BN@EIIBNPKM@Lighting?5exposure?5set?5to?5?$CFf?6?$AA@ 0000000140092638     light.obj
 0002:0000c658       ??_C@_0M@HHPIODFO@?9compensate?$AA@ 0000000140092658     light.obj
 0002:0000c668       ??_C@_0CD@DLPJJHOG@Lighting?5compensation?5set?5to?51?1?$CF@ 0000000140092668     light.obj
 0002:0000c690       ??_C@_0M@ICOLHIPD@?9brightness?$AA@ 0000000140092690     light.obj
 0002:0000c6a0       ??_C@_0BP@GIMJOOK@Lighting?5brightness?5set?5to?5?$CFf?6?$AA@ 00000001400926a0     light.obj
 0002:0000c6c0       ??_C@_07KFPFLCEG@?9bounce?$AA@ 00000001400926c0     light.obj
 0002:0000c6c8       ??_C@_0CF@NHKBKLH@Radiosity?5enabled?5with?5?$CFd?5bounce@ 00000001400926c8     light.obj
 0002:0000c6f0       ??_C@_0N@JLECEAFC@?9supersample?$AA@ 00000001400926f0     light.obj
 0002:0000c700       ??_C@_06EIFHNKCO@?9super?$AA@ 0000000140092700     light.obj
 0002:0000c710       ??_C@_0EJ@GAODLDFJ@Ordered?9grid?5supersampling?5enabl@ 0000000140092710     light.obj
 0002:0000c760       ??_C@_08BDBAMIIJ@?9samples?$AA@ 0000000140092760     light.obj
 0002:0000c770       ??_C@_0EF@FLOFOHOM@Adaptive?5supersampling?5enabled?5w@ 0000000140092770     light.obj
 0002:0000c7b8       ??_C@_07NELJMPGE@?9filter?$AA@ 00000001400927b8     light.obj
 0002:0000c7c0       ??_C@_0BM@HEEAGFIH@Lightmap?5filtering?5enabled?6?$AA@ 00000001400927c0     light.obj
 0002:0000c7dc       ??_C@_05MLFLAHAN@?9dark?$AA@ 00000001400927dc     light.obj
 0002:0000c7e8       ??_C@_0BN@HKOMECBF@Dark?5lightmap?5seams?5enabled?6?$AA@ 00000001400927e8     light.obj
 0002:0000c808       ??_C@_0M@HLGPLMNL@?9shadeangle?$AA@ 0000000140092808     light.obj
 0002:0000c818       ??_C@_0DL@EIMKMINA@Phong?5shading?5enabled?5with?5a?5bre@ 0000000140092818     light.obj
 0002:0000c858       ??_C@_07HAFHKNCG@?9thresh?$AA@ 0000000140092858     light.obj
 0002:0000c860       ??_C@_0CD@LNGDBDIM@Subdivision?5threshold?5set?5at?5?$CF?43@ 0000000140092860     light.obj
 0002:0000c888       ??_C@_07ECMEOKLK@?9approx?$AA@ 0000000140092888     light.obj
 0002:0000c890       ??_C@_0DH@KPJAIPDM@Approximating?5lightmaps?5within?5a@ 0000000140092890     light.obj
 0002:0000c8c8       ??_C@_07JNCFMNOG@?9deluxe?$AA@ 00000001400928c8     light.obj
 0002:0000c8d0       ??_C@_0L@DHFJCGPE@?9deluxemap?$AA@ 00000001400928d0     light.obj
 0002:0000c8e0       ??_C@_0DD@CNBGLIGL@Generating?5deluxemaps?5for?5averag@ 00000001400928e0     light.obj
 0002:0000c918       ??_C@_0O@MCKOHNPO@?9tangentspace?$AA@ 0000000140092918     light.obj
 0002:0000c928       ??_C@_0CG@OBIHIFL@Deluxemaps?5using?5tangentspace?5co@ 0000000140092928     light.obj
 0002:0000c950       ??_C@_0M@MJGPNKPP@?9modelspace?$AA@ 0000000140092950     light.obj
 0002:0000c960       ??_C@_0CE@LMCIIMIK@Deluxemaps?5using?5modelspace?5coor@ 0000000140092960     light.obj
 0002:0000c988       ??_C@_09FODHGNDP@?9nodeluxe?$AA@ 0000000140092988     light.obj
 0002:0000c998       ??_C@_0N@OILPOFCJ@?9nodeluxemap?$AA@ 0000000140092998     light.obj
 0002:0000c9b0       ??_C@_0EA@DHAJBGOO@Disabling?5generating?5of?5deluxema@ 00000001400929b0     light.obj
 0002:0000c9f0       ??_C@_09FHDPINNF@?9external?$AA@ 00000001400929f0     light.obj
 0002:0000ca00       ??_C@_0CC@GJDHAOJ@Storing?5all?5lightmaps?5externally@ 0000000140092a00     light.obj
 0002:0000ca28       ??_C@_0O@LHEFEBGJ@?9lightmapsize?$AA@ 0000000140092a28     light.obj
 0002:0000ca40       ??_C@_0EM@EJAGJCIE@WARNING?3?5Lightmap?5size?5must?5be?5a@ 0000000140092a40     light.obj
 0002:0000ca90       ??_C@_0CN@LIMCDONO@Default?5lightmap?5size?5set?5to?5?$CFd?5@ 0000000140092a90     light.obj
 0002:0000cac0       ??_C@_05KPNCGNFL@?9wolf?$AA@ 0000000140092ac0     light.obj
 0002:0000cac8       ??_C@_0CP@LMLKCHMA@Enabling?5Wolf?5lighting?5model?5?$CIli@ 0000000140092ac8     light.obj
 0002:0000caf8       ??_C@_0L@BOELNPFK@?9colornorm?$AA@ 0000000140092af8     light.obj
 0002:0000cb08       ??_C@_0CE@NEILJDHO@Enabling?5light?5color?5normalizati@ 0000000140092b08     light.obj
 0002:0000cb30       ??_C@_0N@MBKNBMIH@?9nocolornorm?$AA@ 0000000140092b30     light.obj
 0002:0000cb40       ??_C@_0CF@DEIHPGKB@Disabling?5light?5color?5normalizat@ 0000000140092b40     light.obj
 0002:0000cb68       ??_C@_03CNLLDAFH@?9q3?$AA@ 0000000140092b68     light.obj
 0002:0000cb70       ??_C@_0DF@HENFKFOD@Enabling?5Quake?53?5lighting?5model?5@ 0000000140092b70     light.obj
 0002:0000cba8       ??_C@_08LLJCBJCH@?9sunonly?$AA@ 0000000140092ba8     light.obj
 0002:0000cbb8       ??_C@_0BJ@KANPCPDB@Only?5computing?5sunlight?6?$AA@ 0000000140092bb8     light.obj
 0002:0000cbd8       ??_C@_0M@HKIHADGF@?9skylightao?$AA@ 0000000140092bd8     light.obj
 0002:0000cbe8       ??_C@_0CO@BJEMBKHP@Using?5ambient?5occlusion?5for?5sky?5@ 0000000140092be8     light.obj
 0002:0000cc18       ??_C@_0M@MIHJPPFH@?9bounceonly?$AA@ 0000000140092c18     light.obj
 0002:0000cc28       ??_C@_0CI@KDOIEGOC@Storing?5bounced?5light?5?$CIradiosity@ 0000000140092c28     light.obj
 0002:0000cc50       ??_C@_0M@POKPFAAJ@?9nocollapse?$AA@ 0000000140092c50     light.obj
 0002:0000cc60       ??_C@_0CI@JDEBHEPK@Identical?5lightmap?5collapsing?5di@ 0000000140092c60     light.obj
 0002:0000cc88       ??_C@_06DMMDFHEG@?9shade?$AA@ 0000000140092c88     light.obj
 0002:0000cc90       ??_C@_0BH@CEFNFJFN@Phong?5shading?5enabled?6?$AA@ 0000000140092c90     light.obj
 0002:0000cca8       ??_C@_0M@BLGBPCEG@?9bouncegrid?$AA@ 0000000140092ca8     light.obj
 0002:0000ccb8       ??_C@_0CG@POMLDFGK@Grid?5lighting?5with?5radiosity?5ena@ 0000000140092cb8     light.obj
 0002:0000cce0       ??_C@_07BHLPKHMJ@?9smooth?$AA@ 0000000140092ce0     light.obj
 0002:0000cce8       ??_C@_0DO@JBCOPKCN@The?5?9smooth?5argument?5is?5deprecat@ 0000000140092ce8     light.obj
 0002:0000cd28       ??_C@_0BD@EAELOMEA@Fast?5mode?5enabled?6?$AA@ 0000000140092d28     light.obj
 0002:0000cd40       ??_C@_07NKFKENFK@?9faster?$AA@ 0000000140092d40     light.obj
 0002:0000cd48       ??_C@_0BF@LBBJNJAC@Faster?5mode?5enabled?6?$AA@ 0000000140092d48     light.obj
 0002:0000cd60       ??_C@_09HEGOFPMF@?9fastgrid?$AA@ 0000000140092d60     light.obj
 0002:0000cd70       ??_C@_0BM@HLAKPEIP@Fast?5grid?5lighting?5enabled?6?$AA@ 0000000140092d70     light.obj
 0002:0000cd90       ??_C@_0M@DIJPFFJO@?9fastbounce?$AA@ 0000000140092d90     light.obj
 0002:0000cda0       ??_C@_0BK@PKEFKGAP@Fast?5bounce?5mode?5enabled?6?$AA@ 0000000140092da0     light.obj
 0002:0000cdbc       ??_C@_06IBAJOGHF@?9cheap?$AA@ 0000000140092dbc     light.obj
 0002:0000cdc8       ??_C@_0BE@KBMKKBMH@Cheap?5mode?5enabled?6?$AA@ 0000000140092dc8     light.obj
 0002:0000cde0       ??_C@_0L@BGEAGJAF@?9cheapgrid?$AA@ 0000000140092de0     light.obj
 0002:0000cdf0       ??_C@_0BJ@PKJKJABC@Cheap?5grid?5mode?5enabled?6?$AA@ 0000000140092df0     light.obj
 0002:0000ce10       ??_C@_0L@KBJMPMDB@?9normalmap?$AA@ 0000000140092e10     light.obj
 0002:0000ce20       ??_C@_0CI@BKHGJEIL@Storing?5normal?5map?5instead?5of?5li@ 0000000140092e20     light.obj
 0002:0000ce48       ??_C@_08LGGMCAFI@?9trisoup?$AA@ 0000000140092e48     light.obj
 0002:0000ce58       ??_C@_0CJ@KPKDHNPC@Converting?5brush?5faces?5to?5triang@ 0000000140092e58     light.obj
 0002:0000ce84       ??_C@_06OHOHKFPP@?9debug?$AA@ 0000000140092e84     light.obj
 0002:0000ce90       ??_C@_0BM@LJNGJAOL@Lightmap?5debugging?5enabled?6?$AA@ 0000000140092e90     light.obj
 0002:0000ceb0       ??_C@_0O@BHCNJFAG@?9debugsurface?$AA@ 0000000140092eb0     light.obj
 0002:0000cec0       ??_C@_0CE@CPGGLFPP@Lightmap?5surface?5debugging?5enabl@ 0000000140092ec0     light.obj
 0002:0000cee8       ??_C@_0N@DAJNFCIN@?9debugunused?$AA@ 0000000140092ee8     light.obj
 0002:0000cef8       ??_C@_0CA@HNMEBDBF@Unused?5luxel?5debugging?5enabled?6?$AA@ 0000000140092ef8     light.obj
 0002:0000cf18       ??_C@_0L@GHCKIHJO@?9debugaxis?$AA@ 0000000140092f18     light.obj
 0002:0000cf28       ??_C@_0CB@DHOOOEEC@Lightmap?5axis?5debugging?5enabled?6@ 0000000140092f28     light.obj
 0002:0000cf50       ??_C@_0O@EKBMAKPD@?9debugcluster?$AA@ 0000000140092f50     light.obj
 0002:0000cf60       ??_C@_0CB@NKJKLNNG@Luxel?5cluster?5debugging?5enabled?6@ 0000000140092f60     light.obj
 0002:0000cf88       ??_C@_0N@OLJPIEI@?9debugorigin?$AA@ 0000000140092f88     light.obj
 0002:0000cf98       ??_C@_0CA@DBDNJKFK@Luxel?5origin?5debugging?5enabled?6?$AA@ 0000000140092f98     light.obj
 0002:0000cfb8       ??_C@_0N@NOINJOHJ@?9debugdeluxe?$AA@ 0000000140092fb8     light.obj
 0002:0000cfc8       ??_C@_0BN@DPAEJFBA@Deluxemap?5debugging?5enabled?6?$AA@ 0000000140092fc8     light.obj
 0002:0000cfe8       ??_C@_0BF@NMHGMKKN@Exporting?5lightmaps?6?$AA@ 0000000140092fe8     light.obj
 0002:0000d000       ??_C@_08BAPHIGKF@?9notrace?$AA@ 0000000140093000     light.obj
 0002:0000d010       ??_C@_0BL@MKIBFGPH@Shadow?5occlusion?5disabled?6?$AA@ 0000000140093010     light.obj
 0002:0000d030       ??_C@_0N@HFPEHEFN@?9notracegrid?$AA@ 0000000140093030     light.obj
 0002:0000d040       ??_C@_0CJ@GMBHBCFN@Shadow?5occlusion?5for?5lightgrid?5d@ 0000000140093040     light.obj
 0002:0000d070       ??_C@_0O@MNDMEFNA@?9patchshadows?$AA@ 0000000140093070     light.obj
 0002:0000d080       ??_C@_0BO@ICJDIALF@Patch?5shadow?5casting?5enabled?6?$AA@ 0000000140093080     light.obj
 0002:0000d0a0       ??_C@_06JCKMJMCJ@?9extra?$AA@ 00000001400930a0     light.obj
 0002:0000d0a8       ??_C@_0DL@EODDPLCI@The?5?9extra?5argument?5is?5deprecate@ 00000001400930a8     light.obj
 0002:0000d0e8       ??_C@_0L@GPAINIOF@?9extrawide?$AA@ 00000001400930e8     light.obj
 0002:0000d100       ??_C@_0EJ@LPFIIKJB@The?5?9extrawide?5argument?5is?5depre@ 0000000140093100     light.obj
 0002:0000d150       ??_C@_0DB@LAGKGGEJ@Default?5lightmap?5sample?5size?5set@ 0000000140093150     light.obj
 0002:0000d188       ??_C@_0N@MFNOFNJL@?9samplescale?$AA@ 0000000140093188     light.obj
 0002:0000d198       ??_C@_0CE@LJHMHEBN@Lightmaps?5sample?5scale?5set?5to?5?$CF?4@ 0000000140093198     light.obj
 0002:0000d1c0       ??_C@_09CCIIPCGB@?9novertex?$AA@ 00000001400931c0     light.obj
 0002:0000d1d0       ??_C@_0BL@GFPNNOCA@Disabling?5vertex?5lighting?6?$AA@ 00000001400931d0     light.obj
 0002:0000d1f0       ??_C@_07HGDGEAGA@?9nogrid?$AA@ 00000001400931f0     light.obj
 0002:0000d1f8       ??_C@_0BJ@ELJOIJEJ@Disabling?5grid?5lighting?6?$AA@ 00000001400931f8     light.obj
 0002:0000d218       ??_C@_07HJGGHGBG@?9border?$AA@ 0000000140093218     light.obj
 0002:0000d220       ??_C@_0CC@PLDOKDKL@Adding?5debug?5border?5to?5lightmaps@ 0000000140093220     light.obj
 0002:0000d248       ??_C@_07FMMEGHII@?9nosurf?$AA@ 0000000140093248     light.obj
 0002:0000d250       ??_C@_0BO@MBGCHFPF@Not?5tracing?5against?5surfaces?6?$AA@ 0000000140093250     light.obj
 0002:0000d270       ??_C@_05KKGMOIBC@?9dump?$AA@ 0000000140093270     light.obj
 0002:0000d278       ??_C@_0DA@IIJLPAB@Dumping?5radiosity?5lights?5into?5nu@ 0000000140093278     light.obj
 0002:0000d2a8       ??_C@_06PPKOGEJP@?9lomem?$AA@ 00000001400932a8     light.obj
 0002:0000d2b0       ??_C@_0CM@ECEMJDCO@Enabling?5low?9memory?5?$CIslower?$CJ?5lig@ 00000001400932b0     light.obj
 0002:0000d2e0       ??_C@_09FEFDGHC@?9lomemsky?$AA@ 00000001400932e0     light.obj
 0002:0000d2f0       ??_C@_0DK@HLEGBJLF@Enabling?5low?9memory?5?$CIslower?$CJ?5lig@ 00000001400932f0     light.obj
 0002:0000d330       ??_C@_0L@HDNOPME@?9diskcache?$AA@ 0000000140093330     light.obj
 0002:0000d340       ??_C@_0EM@MLODILBL@Enabling?5disk?5cache?5usage?5?$CIpoten@ 0000000140093340     light.obj
 0002:0000d390       ??_C@_0BE@FGEJLOOB@DiskCachePath?5?$DN?5?$CFs?6?$AA@ 0000000140093390     light.obj
 0002:0000d3a8       ??_C@_08BMEDHLPA@?9nostyle?$AA@ 00000001400933a8     light.obj
 0002:0000d3b8       ??_C@_09LJLDJLFC@?9nostyles?$AA@ 00000001400933b8     light.obj
 0002:0000d3c8       ??_C@_0BH@FLJHOJIO@Disabling?5lightstyles?6?$AA@ 00000001400933c8     light.obj
 0002:0000d3e0       ??_C@_06CGNADAN@?9style?$AA@ 00000001400933e0     light.obj
 0002:0000d3e8       ??_C@_07HKKBDLIL@?9styles?$AA@ 00000001400933e8     light.obj
 0002:0000d3f0       ??_C@_0BG@KMAHPPF@Enabling?5lightstyles?6?$AA@ 00000001400933f0     light.obj
 0002:0000d408       ??_C@_0M@BNKMIOLO@?9keeplights?$AA@ 0000000140093408     light.obj
 0002:0000d418       ??_C@_0CN@IKKEKNMH@Leaving?5light?5entities?5on?5map?5af@ 0000000140093418     light.obj
 0002:0000d448       ??_C@_05HMELOHCA@?9cpma?$AA@ 0000000140093448     light.obj
 0002:0000d450       ??_C@_0EC@DGGNDNHH@Enabling?5Challenge?5Pro?5Mode?5Asst@ 0000000140093450     light.obj
 0002:0000d498       ??_C@_0M@MEJEPMFK@?9floodlight?$AA@ 0000000140093498     light.obj
 0002:0000d4a8       ??_C@_0BH@BCBADIMD@FloodLighting?5enabled?6?$AA@ 00000001400934a8     light.obj
 0002:0000d4c0       ??_C@_0O@FDCJLBIH@?9debugnormals?$AA@ 00000001400934c0     light.obj
 0002:0000d4d0       ??_C@_0BG@DMKPAGHE@DebugNormals?5enabled?6?$AA@ 00000001400934d0     light.obj
 0002:0000d4e8       ??_C@_0M@EGLPIEBD@?9lowquality?$AA@ 00000001400934e8     light.obj
 0002:0000d4f8       ??_C@_0CD@KNGMEKHN@Low?5Quality?5FloodLighting?5enable@ 00000001400934f8     light.obj
 0002:0000d51c       ??_C@_06KHINEKIJ@?9dirty?$AA@ 000000014009351c     light.obj
 0002:0000d528       ??_C@_0BF@HLHEGNBP@Dirtmapping?5enabled?6?$AA@ 0000000140093528     light.obj
 0002:0000d540       ??_C@_0L@CMPAKAMB@?9dirtdebug?$AA@ 0000000140093540     light.obj
 0002:0000d550       ??_C@_0L@BIFNOCEC@?9debugdirt?$AA@ 0000000140093550     light.obj
 0002:0000d560       ??_C@_0BL@LKPAHMMA@Dirtmap?5debugging?5enabled?6?$AA@ 0000000140093560     light.obj
 0002:0000d580       ??_C@_09NGAKFCLD@?9dirtmode?$AA@ 0000000140093580     light.obj
 0002:0000d590       ??_C@_0DN@FJAEEBED@Enabling?5ordered?5cone?9based?5ambi@ 0000000140093590     light.obj
 0002:0000d5d0       ??_C@_0EA@JEOOOKAO@Enabling?5randomized?5cone?9based?5a@ 00000001400935d0     light.obj
 0002:0000d610       ??_C@_0DA@KCEFOAAO@Enabling?5uniform?5low?5quality?5amb@ 0000000140093610     light.obj
 0002:0000d640       ??_C@_0DB@DJHNJFJA@Enabling?5uniform?5high?5quality?5am@ 0000000140093640     light.obj
 0002:0000d678       ??_C@_0L@FALKEJCN@?9dirtdepth?$AA@ 0000000140093678     light.obj
 0002:0000d688       ??_C@_0BP@NDHBAAJE@Dirtmapping?5depth?5set?5to?5?$CF?41f?6?$AA@ 0000000140093688     light.obj
 0002:0000d6a8       ??_C@_0BD@GPMJAPFK@?9dirtdepthexponent?$AA@ 00000001400936a8     light.obj
 0002:0000d6c0       ??_C@_0CI@DIEHMHHD@Dirtmapping?5depth?5exponent?5set?5t@ 00000001400936c0     light.obj
 0002:0000d6e8       ??_C@_0L@IOBHDCNB@?9dirtscale?$AA@ 00000001400936e8     light.obj
 0002:0000d6f8       ??_C@_0BP@HNLMINLD@Dirtmapping?5scale?5set?5to?5?$CF?41f?6?$AA@ 00000001400936f8     light.obj
 0002:0000d718       ??_C@_0P@IEACICEM@?9dirtscalemask?$AA@ 0000000140093718     light.obj
 0002:0000d728       ??_C@_0DB@DAEHNNAA@Dirtmapping?5scale?5mask?5set?5to?5?$CF1@ 0000000140093728     light.obj
 0002:0000d760       ??_C@_09JHEJHHLJ@?9dirtgain?$AA@ 0000000140093760     light.obj
 0002:0000d770       ??_C@_0BO@PGMKKPC@Dirtmapping?5gain?5set?5to?5?$CF?41f?6?$AA@ 0000000140093770     light.obj
 0002:0000d790       ??_C@_0O@EMJCMKJB@?9dirtgainmask?$AA@ 0000000140093790     light.obj
 0002:0000d7a0       ??_C@_0DA@FBNHBLJN@Dirtmapping?5gain?5mask?5set?5to?5?$CF1?4@ 00000001400937a0     light.obj
 0002:0000d7d0       ??_C@_0M@DEINPAOH@?9nodeviance?$AA@ 00000001400937d0     light.obj
 0002:0000d7e0       ??_C@_0BK@MPJPGOPM@Disable?5light?8s?5deviance?6?$AA@ 00000001400937e0     light.obj
 0002:0000d800       ??_C@_09LCKBOOEL@?9deviance?$AA@ 0000000140093800     light.obj
 0002:0000d810       ??_C@_0CF@CELFLAPP@Default?5deviance?5jitter?5set?5to?5?$CF@ 0000000140093810     light.obj
 0002:0000d838       ??_C@_0BB@OJCGCNGK@?9deviancesamples?$AA@ 0000000140093838     light.obj
 0002:0000d850       ??_C@_0CE@EMMEJBNG@Default?5deviance?5samples?5set?5to?5@ 0000000140093850     light.obj
 0002:0000d878       ??_C@_0CA@EGGPILFD@WARNING?3?5Unknown?5argument?5?$CC?$CFs?$CC?6?$AA@ 0000000140093878     light.obj
 0002:0000d898       ??_C@_01FDFGLJHB@2?$AA@    0000000140093898     light.obj
 0002:0000d8a0       ??_C@_0L@OJPIMHIH@deluxeMaps?$AA@ 00000001400938a0     light.obj
 0002:0000d8ac       ??_C@_01GBGANLPD@0?$AA@    00000001400938ac     light.obj
 0002:0000d8b0       ??_C@_0DA@MNNIKKBA@RadClipWindingEpsilon?3?5points?5ex@ 00000001400938b0     light_bounce.obj
 0002:0000d8e0       ??_C@_0CN@PMNFADAP@RadClipWindingEpsilon?3?5MAX_POINT@ 00000001400938e0     light_bounce.obj
 0002:0000d910       ??_C@_0BG@CJDHAFAF@?4?4?2src?2light_bounce?4c?$AA@ 0000000140093910     light_bounce.obj
 0002:0000d928       ??_C@_0CA@HHDPONEM@?9?9?9?5RadCreateDiffuseLights?5?9?9?9?6?$AA@ 0000000140093928     light_bounce.obj
 0002:0000d948       ??_C@_0BB@CIIJLNEN@_bounce_?$CF03d?4map?$AA@ 0000000140093948     light_bounce.obj
 0002:0000d960       ??_C@_0P@FLEPLLPM@Writing?5?$CFs?4?4?4?6?$AA@ 0000000140093960     light_bounce.obj
 0002:0000d970       ??_C@_0FK@JFKGGKPJ@?$HL?6?$CCclassname?$CC?5?$CClight?$CC?6?$CClight?$CC?5?$CC?$CF@ 0000000140093970     light_bounce.obj
 0002:0000d9d0       ??_C@_0BG@JNALCHLH@?$CF8d?5diffuse?5surfaces?6?$AA@ 00000001400939d0     light_bounce.obj
 0002:0000d9e8       ??_C@_0BK@BFAAGACK@?$CF8d?5total?5diffuse?5lights?6?$AA@ 00000001400939e8     light_bounce.obj
 0002:0000da08       ??_C@_0BK@CEAKDNOP@?$CF8d?5brush?5diffuse?5lights?6?$AA@ 0000000140093a08     light_bounce.obj
 0002:0000da28       ??_C@_0BK@OFHCCOGN@?$CF8d?5patch?5diffuse?5lights?6?$AA@ 0000000140093a28     light_bounce.obj
 0002:0000da48       ??_C@_0BN@BNCAPJD@?$CF8d?5triangle?5diffuse?5lights?6?$AA@ 0000000140093a48     light_bounce.obj
 0002:0000da68       ??_C@_0BF@PKAOOALA@?4?4?2src?2light_trace?4c?$AA@ 0000000140093a68     light_trace.obj
 0002:0000da80       ??_C@_0BL@CGAOJCHK@MAX_TW_VERTS?5?$CI?$CFd?$CJ?5exceeded?$AA@ 0000000140093a80     light_trace.obj
 0002:0000daa0       ??_C@_0BG@FCDENLGL@Invalid?5tracenode?3?5?$CFd?$AA@ 0000000140093aa0     light_trace.obj
 0002:0000dab8       ??_C@_06LNKHAAKC@model2?$AA@ 0000000140093ab8     light_trace.obj
 0002:0000dac0       ??_C@_06CGNNJAN@frame2?$AA@ 0000000140093ac0     light_trace.obj
 0002:0000dac8       ??_C@_07HGCFDIHA@_frame2?$AA@ 0000000140093ac8     light_trace.obj
 0002:0000dad0       ??_C@_05MEHOGNLN@skin2?$AA@ 0000000140093ad0     light_trace.obj
 0002:0000dad8       ??_C@_06DNENIKDO@_skin2?$AA@ 0000000140093ad8     light_trace.obj
 0002:0000dae0       ??_C@_0BJ@PPIDGCBJ@?9?9?9?5SetupTraceNodes?5?9?9?9?6?$AA@ 0000000140093ae0     light_trace.obj
 0002:0000db00       ??_C@_0BN@OAPBKGEI@?$CF9d?5trace?5windings?5?$CI?$CF?42fMB?$CJ?6?$AA@ 0000000140093b00     light_trace.obj
 0002:0000db20       ??_C@_0BO@BCNBAJPB@?$CF9d?5trace?5triangles?5?$CI?$CF?42fMB?$CJ?6?$AA@ 0000000140093b20     light_trace.obj
 0002:0000db40       ??_C@_0BK@INGGBPIN@?$CF9d?5trace?5nodes?5?$CI?$CF?42fMB?$CJ?6?$AA@ 0000000140093b40     light_trace.obj
 0002:0000db60       ??_C@_0BJ@BHFLPPBH@?$CF9d?5leaf?5nodes?5?$CI?$CF?42fMB?$CJ?6?$AA@ 0000000140093b60     light_trace.obj
 0002:0000db80       ??_C@_0CE@DPKPCCMM@?$CF9d?5average?5windings?5per?5leaf?5no@ 0000000140093b80     light_trace.obj
 0002:0000dba8       ??_C@_0BF@PLKHCNAC@?$CF9d?5max?5trace?5depth?6?$AA@ 0000000140093ba8     light_trace.obj
 0002:0000dbc0       ??_C@_0BF@CDFNNCAG@?4?4?2src?2light_ydnar?4c?$AA@ 0000000140093bc0     light_ydnar.obj
 0002:0000dbd8       ??_C@_01DCLJPIOD@?$CB?$AA@ 0000000140093bd8     light_ydnar.obj
 0002:0000dbdc       ??_C@_06NMHKILIL@_dirty?$AA@ 0000000140093bdc     light_ydnar.obj
 0002:0000dbe4       ??_C@_03OGKFOJGI@_ao?$AA@  0000000140093be4     light_ydnar.obj
 0002:0000dbe8       ??_C@_0BA@DNLGAHKG@?$CFlf?5?$CFlf?5?$CFlf?5?$CFlf?$AA@ 0000000140093be8     light_ydnar.obj
 0002:0000dbf8       ??_C@_07FGMKLMJB@_aoMode?$AA@ 0000000140093bf8     light_ydnar.obj
 0002:0000dc00       ??_C@_08IFFKMICH@_aoDepth?$AA@ 0000000140093c00     light_ydnar.obj
 0002:0000dc10       ??_C@_0BB@FMIJLNM@_aoDepthExponent?$AA@ 0000000140093c10     light_ydnar.obj
 0002:0000dc28       ??_C@_07BHIJJJJL@_aoGain?$AA@ 0000000140093c28     light_ydnar.obj
 0002:0000dc30       ??_C@_0M@CFGCLOE@_aoGainMask?$AA@ 0000000140093c30     light_ydnar.obj
 0002:0000dc40       ??_C@_08FLPHLDNL@_aoScale?$AA@ 0000000140093c40     light_ydnar.obj
 0002:0000dc50       ??_C@_0N@GCEOOJCM@_aoScaleMask?$AA@ 0000000140093c50     light_ydnar.obj
 0002:0000dc60       ??_C@_0BD@CJJHMGFG@?9?9?9?5SetupDirt?5?9?9?9?6?$AA@ 0000000140093c60     light_ydnar.obj
 0002:0000dc78       ??_C@_0CF@GACLAIKI@World?5mode?3?5ordered?5cone?5dirtmap@ 0000000140093c78     light_ydnar.obj
 0002:0000dca0       ??_C@_0CE@EHBKHHAD@World?5mode?3?5random?5cone?5dirtmapi@ 0000000140093ca0     light_ydnar.obj
 0002:0000dcc8       ??_C@_0DF@IJPGGJME@World?5mode?3?5low?5quality?5spherica@ 0000000140093cc8     light_ydnar.obj
 0002:0000dd00       ??_C@_0DG@BBBPHAOM@World?5mode?3?5high?5quality?5spheric@ 0000000140093d00     light_ydnar.obj
 0002:0000dd38       ??_C@_0BO@NDOCMIOL@Gain?5mask?3?5?$CF1?41f?5?$CF1?41f?5?$CF1?41f?6?$AA@ 0000000140093d38     light_ydnar.obj
 0002:0000dd58       ??_C@_0BP@COIONAEL@Scale?5mask?3?5?$CF1?41f?5?$CF1?41f?5?$CF1?41f?6?$AA@ 0000000140093d58     light_ydnar.obj
 0002:0000dd78       ??_C@_0N@DPFJBAED@?$CF9d?5vectors?6?$AA@ 0000000140093d78     light_ydnar.obj
 0002:0000dd88       ??_C@_0N@NEOKMJKI@?$CF9?41f?5depth?6?$AA@ 0000000140093d88     light_ydnar.obj
 0002:0000dd98       ??_C@_0BG@MMAADBJP@?$CF9?41f?5depth?5exponent?6?$AA@ 0000000140093d98     light_ydnar.obj
 0002:0000ddb0       ??_C@_0M@JANOHMEA@?$CF9?42f?5gain?6?$AA@ 0000000140093db0     light_ydnar.obj
 0002:0000ddc0       ??_C@_0N@ILAIGBOH@?$CF9?42f?5scale?6?$AA@ 0000000140093dc0     light_ydnar.obj
 0002:0000ddd0       ??_C@_0CG@CBCLLKK@?$CF9i?5entities?5with?5custom?5dirtmap@ 0000000140093dd0     light_ydnar.obj
 0002:0000ddf8       ??_C@_0CH@DEHANMND@?9?9?9?5SetupSkyLightAmbientOcclusio@ 0000000140093df8     light_ydnar.obj
 0002:0000de20       ??_C@_0CF@PNPMDGKM@WARNING?3?5Spurious?5lightmap?5S?5vec@ 0000000140093e20     light_ydnar.obj
 0002:0000de48       ??_C@_0CF@BPCACNNF@WARNING?3?5Spurious?5lightmap?5T?5vec@ 0000000140093e48     light_ydnar.obj
 0002:0000de70       ??_C@_0CL@OPKLMIAI@WARNING?3?5Hit?5per?9surface?5style?5l@ 0000000140093e70     light_ydnar.obj
 0002:0000dea0       ??_C@_0BG@DGPHPMGM@?9?9?9?5SetupBrushes?5?9?9?9?6?$AA@ 0000000140093ea0     light_ydnar.obj
 0002:0000deb8       ??_C@_0BE@FLINJHBK@?$CF9d?5opaque?5brushes?6?$AA@ 0000000140093eb8     light_ydnar.obj
 0002:0000ded0       ??_C@_0CD@GONKMLAA@ClusterVisible?3?5broken?5cluster?5?$CF@ 0000000140093ed0     light_ydnar.obj
 0002:0000def8       ??_C@_07ILDCNHJE@?5?$CIfast?$CJ?$AA@ 0000000140093ef8     light_ydnar.obj
 0002:0000df00       ??_C@_0BB@ILMJCALO@?5?$CIfor?5lightgrid?$CJ?$AA@ 0000000140093f00     light_ydnar.obj
 0002:0000df18       ??_C@_0BB@DJGKEDGK@?5?$CIfor?5lightmaps?$CJ?$AA@ 0000000140093f18     light_ydnar.obj
 0002:0000df30       ??_C@_0BM@MCCKEGBH@?9?9?9?5SetupEnvelopes?$CFs?$CFs?5?9?9?9?6?$AA@ 0000000140093f30     light_ydnar.obj
 0002:0000df50       ??_C@_0BB@COMHLOJC@?$CF9d?5area?5lights?6?$AA@ 0000000140093f50     light_ydnar.obj
 0002:0000df68       ??_C@_0BB@DFIPCBLE@?$CF9d?5spot?5lights?6?$AA@ 0000000140093f68     light_ydnar.obj
 0002:0000df80       ??_C@_0BA@BOFKECIJ@?$CF9d?5sun?5lights?6?$AA@ 0000000140093f80     light_ydnar.obj
 0002:0000df90       ??_C@_0BF@MBMCFJFK@?$CF9d?5negative?5lights?6?$AA@ 0000000140093f90     light_ydnar.obj
 0002:0000dfa8       ??_C@_0BC@FEAJCJFO@?$CF9d?5total?5lights?6?$AA@ 0000000140093fa8     light_ydnar.obj
 0002:0000dfc0       ??_C@_0BD@DDPBCAOO@?$CF9d?5culled?5lights?6?$AA@ 0000000140093fc0     light_ydnar.obj
 0002:0000dfd8       ??_C@_0BJ@MPMMIANG@?9?9?9?5SetupFloodLight?5?9?9?9?6?$AA@ 0000000140093fd8     light_ydnar.obj
 0002:0000dff8       ??_C@_0BF@PJIMIECO@?$CF9d?5numFloodVectors?6?$AA@ 0000000140093ff8     light_ydnar.obj
 0002:0000e010       ??_C@_0M@MOFODDB@_floodlight?$AA@ 0000000140094010     light_ydnar.obj
 0002:0000e020       ??_C@_0BE@KDPPJLBO@?$CFlf?5?$CFlf?5?$CFlf?5?$CFlf?5?$CFlf?$AA@ 0000000140094020     light_ydnar.obj
 0002:0000e038       ??_C@_0DH@LJEDKDJC@FloodLighting?5enabled?5via?5worlds@ 0000000140094038     light_ydnar.obj
 0002:0000e070       ??_C@_0BJ@FJEBMJAF@?4?4?2src?2lightmaps_ydnar?4c?$AA@ 0000000140094070     lightmaps_ydnar.obj
 0002:0000e090       ??_C@_0BO@PLJLDNBM@Unable?5to?5open?5?$CFs?5for?5writing?$AA@ 0000000140094090     lightmaps_ydnar.obj
 0002:0000e0b0       ??_C@_0BJ@POOHNCDL@?9?9?9?5ExportLightmaps?5?9?9?9?6?$AA@ 00000001400940b0     lightmaps_ydnar.obj
 0002:0000e0d0       ??_C@_0BP@BBGPCAH@WARNING?3?5No?5BSP?5lightmap?5data?6?$AA@ 00000001400940d0     lightmaps_ydnar.obj
 0002:0000e0f0       ??_C@_0BF@JHOIKAOA@?$CFs?1lightmap_?$CF04d?4tga?$AA@ 00000001400940f0     lightmaps_ydnar.obj
 0002:0000e108       ??_C@_0CF@NBAGHBED@Usage?3?5q3map?5?9export?5?$FL?9v?$FN?5?$DMmapna@ 0000000140094108     lightmaps_ydnar.obj
 0002:0000e130       ??_C@_0CF@DDJNCOHH@Usage?3?5q3map?5?9import?5?$FL?9v?$FN?5?$DMmapna@ 0000000140094130     lightmaps_ydnar.obj
 0002:0000e158       ??_C@_0BJ@CKAKEMM@?9?9?9?5ImportLightmaps?5?9?9?9?6?$AA@ 0000000140094158     lightmaps_ydnar.obj
 0002:0000e178       ??_C@_0BB@OJLCJGOD@No?5lightmap?5data?$AA@ 0000000140094178     lightmaps_ydnar.obj
 0002:0000e190       ??_C@_0CC@GHBEIHKL@WARNING?3?5Unable?5to?5load?5image?5?$CFs@ 0000000140094190     lightmaps_ydnar.obj
 0002:0000e1b8       ??_C@_0DO@PPJIOBJM@WARNING?3?5Image?5?$CFs?5is?5not?5the?5rig@ 00000001400941b8     lightmaps_ydnar.obj
 0002:0000e1f8       ??_C@_0DI@CFNGNCPC@WARNING?3?5ProjectSurfaceLightmap?3@ 00000001400941f8     lightmaps_ydnar.obj
 0002:0000e230       ??_C@_0FK@EEHKAOFM@WARNING?3?5Lightmap?5texture?5coords@ 0000000140094230     lightmaps_ydnar.obj
 0002:0000e290       ??_C@_0BP@PEMKOMBK@?9?9?9?5SetupSurfaceLightmaps?5?9?9?9?6?$AA@ 0000000140094290     lightmaps_ydnar.obj
 0002:0000e2b0       ??_C@_0DF@CONFMFPI@WARNING?3?5Insane?5supersampling?5am@ 00000001400942b0     lightmaps_ydnar.obj
 0002:0000e2e8       ??_C@_0BM@KEDACCHN@maxSurfaceClusters?5exceeded?$AA@ 00000001400942e8     lightmaps_ydnar.obj
 0002:0000e308       ??_C@_0CC@MDJEFHE@?9?9?9?5AllocateSurfaceLightmaps?5?9?9?9@ 0000000140094308     lightmaps_ydnar.obj
 0002:0000e330       ??_C@_0BD@ECDLMKHJ@?$CF9d?5raw?5lightmaps?6?$AA@ 0000000140094330     lightmaps_ydnar.obj
 0002:0000e348       ??_C@_0BK@OPHMDDEH@?$CF9d?5surfaces?5lightmapped?6?$AA@ 0000000140094348     lightmaps_ydnar.obj
 0002:0000e368       ??_C@_0CB@DNOBAMPF@?$CF9d?5planar?5surfaces?5lightmapped?6@ 0000000140094368     lightmaps_ydnar.obj
 0002:0000e390       ??_C@_0CF@LEEFJNDA@?$CF9d?5non?9planar?5surfaces?5lightmap@ 0000000140094390     lightmaps_ydnar.obj
 0002:0000e3b8       ??_C@_0BJ@ENIIOAKD@?$CF9d?5patches?5lightmapped?6?$AA@ 00000001400943b8     lightmaps_ydnar.obj
 0002:0000e3d8       ??_C@_0CA@NNDCKPIF@?$CF9d?5planar?5patches?5lightmapped?6?$AA@ 00000001400943d8     lightmaps_ydnar.obj
 0002:0000e3f8       ??_C@_0BO@FCHCINLK@?9?9?9?5SetupVertexLightning?5?9?9?9?6?$AA@ 00000001400943f8     lightmaps_ydnar.obj
 0002:0000e418       ??_C@_0O@GAGNPAFO@?$CF9d?5vertexes?6?$AA@ 0000000140094418     lightmaps_ydnar.obj
 0002:0000e428       ??_C@_0BJ@BNIFOCD@?$CF9d?5surfaces?5vertex?5lit?6?$AA@ 0000000140094428     lightmaps_ydnar.obj
 0002:0000e448       ??_C@_0BM@EKGODHNN@?9?9?9?5SubsampleLightmaps?5?9?9?9?6?$AA@ 0000000140094448     lightmaps_ydnar.obj
 0002:0000e468       ??_C@_0BK@PCMMAOFI@?9?9?9?5ConvertLightmaps?5?9?9?9?6?$AA@ 0000000140094468     lightmaps_ydnar.obj
 0002:0000e488       ??_C@_0BL@PNHJMDPA@?9?9?9?5CollapseLightmaps?5?9?9?9?6?$AA@ 0000000140094488     lightmaps_ydnar.obj
 0002:0000e4a8       ??_C@_0BL@BDOJGANA@?9?9?9?5AllocateLightmaps?5?9?9?9?6?$AA@ 00000001400944a8     lightmaps_ydnar.obj
 0002:0000e4c8       ??_C@_0BI@ODJDEGFI@?9?9?9?5StoreLightmaps?5?9?9?9?6?$AA@ 00000001400944c8     lightmaps_ydnar.obj
 0002:0000e4e0       ??_C@_0CC@MFDOGEEJ@?9?9?9?5CleanupExternalLightmaps?5?9?9?9@ 00000001400944e0     lightmaps_ydnar.obj
 0002:0000e508       ??_C@_0CE@EFFHJMBF@?9?9?9?5CleanupCompressedLightmaps?5?9@ 0000000140094508     lightmaps_ydnar.obj
 0002:0000e530       ??_C@_0P@GMPCLDEE@?$CFs?1lm_?$CF04d?4dds?$AA@ 0000000140094530     lightmaps_ydnar.obj
 0002:0000e540       ??_C@_08GDGEBEDN@?$CFsdds?1?$CFs?$AA@ 0000000140094540     lightmaps_ydnar.obj
 0002:0000e550       ??_C@_0BK@IHGNDHPD@?9?9?9?5ProjectLightmaps?5?9?9?9?6?$AA@ 0000000140094550     lightmaps_ydnar.obj
 0002:0000e570       ??_C@_0CI@GOEDJLHB@?6?7?1?1?5Q3Map2?5custom?5lightstyle?5st@ 0000000140094570     lightmaps_ydnar.obj
 0002:0000e598       ??_C@_09CGLCLDGP@$lightmap?$AA@ 0000000140094598     lightmaps_ydnar.obj
 0002:0000e5a8       ??_C@_0BE@NMPHEDBH@maps?1?$CFs?1lm_?$CF04d?4tga?$AA@ 00000001400945a8     lightmaps_ydnar.obj
 0002:0000e5c0       ??_C@_0P@MIDNBIKN@_style?$CFdrgbgen?$AA@ 00000001400945c0     lightmaps_ydnar.obj
 0002:0000e5d0       ??_C@_0BI@JNLDCMBM@wave?5noise?50?45?51?50?55?437?$AA@ 00000001400945d0     lightmaps_ydnar.obj
 0002:0000e5e8       ??_C@_0BJ@ONEAKKGK@?7?7rgbGen?5?$CFs?5?1?1?5style?5?$CFd?6?$AA@ 00000001400945e8     lightmaps_ydnar.obj
 0002:0000e608       ??_C@_0BB@PMBPGJLH@_style?$CFdalphagen?$AA@ 0000000140094608     lightmaps_ydnar.obj
 0002:0000e620       ??_C@_0BL@FNPMEANJ@?7?7alphaGen?5?$CFs?5?1?1?5style?5?$CFd?6?$AA@ 0000000140094620     lightmaps_ydnar.obj
 0002:0000e640       ??_C@_0BD@PCMKODFF@?7?7depthFunc?5equal?6?$AA@ 0000000140094640     lightmaps_ydnar.obj
 0002:0000e660       ??_C@_0EH@MGIEFEMN@?7?$HL?6?7?7map?5?$CFs?6?7?7blendFunc?5GL_SRC_A@ 0000000140094660     lightmaps_ydnar.obj
 0002:0000e6b0       ??_C@_0GN@FMHKPKEO@?7?$HL?6?7?7map?5?$CFs?6?7?7blendFunc?5GL_SRC_A@ 00000001400946b0     lightmaps_ydnar.obj
 0002:0000e720       ??_C@_0BB@JFLGHNOH@?$CF9d?5luxels?5used?6?$AA@ 0000000140094720     lightmaps_ydnar.obj
 0002:0000e738       ??_C@_0CO@IKFBABCC@?$CF9d?5luxels?5stored?5?$CI?$CF3?42f?5percent@ 0000000140094738     lightmaps_ydnar.obj
 0002:0000e768       ??_C@_0BN@LFDCBFCE@?$CF9d?5solid?5surface?5lightmaps?6?$AA@ 0000000140094768     lightmaps_ydnar.obj
 0002:0000e788       ??_C@_0DC@FPDOJLNN@?$CF9d?5identical?5surface?5lightmaps?0@ 0000000140094788     lightmaps_ydnar.obj
 0002:0000e7c0       ??_C@_0BM@BCAGMHHG@?$CF9d?5vertex?5forced?5surfaces?6?$AA@ 00000001400947c0     lightmaps_ydnar.obj
 0002:0000e7e0       ??_C@_0CC@EENAPILL@?$CF9d?5vertex?5approximated?5surfaces@ 00000001400947e0     lightmaps_ydnar.obj
 0002:0000e808       ??_C@_0BD@KCJKGBM@?$CF9d?5BSP?5lightmaps?6?$AA@ 0000000140094808     lightmaps_ydnar.obj
 0002:0000e820       ??_C@_0BF@ELOBJPAJ@?$CF9d?5total?5lightmaps?6?$AA@ 0000000140094820     lightmaps_ydnar.obj
 0002:0000e838       ??_C@_0CJ@EGIOFHHP@?$CF9d?5unique?5lightmap?1shader?5combi@ 0000000140094838     lightmaps_ydnar.obj
 0002:0000e868       ??_C@_0BG@JHJKGLAO@NewWinding?3?5?$CFi?5points?$AA@ 0000000140094868     vis.obj
 0002:0000e880       ??_C@_0N@PFNOPHC@?4?4?2src?2vis?4c?$AA@ 0000000140094880     vis.obj
 0002:0000e890       ??_C@_0BA@NKGJJBEA@portal?5not?5done?$AA@ 0000000140094890     vis.obj
 0002:0000e8a0       ??_C@_0BL@BBNGDGFJ@cluster?5?$CF4i?5?3?5?$CF4i?5visible?6?$AA@ 00000001400948a0     vis.obj
 0002:0000e8c0       ??_C@_0BN@CIDNCBN@?9?9?9?5CreatePassages?5?$CI?$CFd?$CJ?5?9?9?9?6?$AA@ 00000001400948c0     vis.obj
 0002:0000e8e0       ??_C@_0BK@PCHEMDNJ@?9?9?9?5PassageFlow?5?$CI?$CFd?$CJ?5?9?9?9?6?$AA@ 00000001400948e0     vis.obj
 0002:0000e900       ??_C@_0CA@KPMGPFHJ@?9?9?9?5PassagePortalFlow?5?$CI?$CFd?$CJ?5?9?9?9?6?$AA@ 0000000140094900     vis.obj
 0002:0000e920       ??_C@_0O@ODMKCG@_farplanedist?$AA@ 0000000140094920     vis.obj
 0002:0000e930       ??_C@_07CDANEGDL@fogclip?$AA@ 0000000140094930     vis.obj
 0002:0000e938       ??_C@_0N@HFLAOKBP@distancecull?$AA@ 0000000140094938     vis.obj
 0002:0000e948       ??_C@_0BK@PPMMBFNP@farplane?5distance?5?$DN?5?$CF?41f?6?$AA@ 0000000140094948     vis.obj
 0002:0000e968       ??_C@_0BM@MDHADGDC@?9?9?9?5BasePortalVis?5?$CI?$CFd?$CJ?5?9?9?9?6?$AA@ 0000000140094968     vis.obj
 0002:0000e988       ??_C@_0BG@GBPACJIC@creating?5leaf?5vis?4?4?4?6?$AA@ 0000000140094988     vis.obj
 0002:0000e9a0       ??_C@_0BM@HENHCIIJ@Total?5visible?5clusters?3?5?$CFi?6?$AA@ 00000001400949a0     vis.obj
 0002:0000e9c0       ??_C@_0BO@KGFKCDBE@Average?5clusters?5visible?3?5?$CFi?6?$AA@ 00000001400949c0     vis.obj
 0002:0000e9e0       ??_C@_0BD@LIEIGPBJ@?$CF6d?5leaves?5merged?6?$AA@ 00000001400949e0     vis.obj
 0002:0000e9f8       ??_C@_0BE@CDPNBOAC@?$CF6d?5portals?5merged?6?$AA@ 00000001400949f8     vis.obj
 0002:0000ea10       ??_C@_0BJ@EMMOIANL@?$CF6d?5hint?5portals?5merged?6?$AA@ 0000000140094a10     vis.obj
 0002:0000ea30       ??_C@_0BE@NLDGJKMP@?$CF6d?5active?5portals?6?$AA@ 0000000140094a30     vis.obj
 0002:0000ea48       ??_C@_0BC@EHNKABLI@?$CF6d?5hint?5portals?6?$AA@ 0000000140094a48     vis.obj
 0002:0000ea60       ??_C@_0BP@PPEIPGEB@LoadPortals?3?5couldn?8t?5read?5?$CFs?6?$AA@ 0000000140094a60     vis.obj
 0002:0000ea80       ??_C@_0P@HGFNIKLM@?$CF79s?6?$CFi?6?$CFi?6?$CFi?6?$AA@ 0000000140094a80     vis.obj
 0002:0000ea90       ??_C@_0CD@EIBPJOID@LoadPortals?3?5failed?5to?5read?5head@ 0000000140094a90     vis.obj
 0002:0000eab8       ??_C@_0BP@GHLIKICO@LoadPortals?3?5not?5a?5portal?5file?$AA@ 0000000140094ab8     vis.obj
 0002:0000ead8       ??_C@_0BE@BMDAEJNG@?$CF6i?5portalclusters?6?$AA@ 0000000140094ad8     vis.obj
 0002:0000eaf0       ??_C@_0BA@FDEFML@?$CF6i?5numportals?6?$AA@ 0000000140094af0     vis.obj
 0002:0000eb00       ??_C@_0O@JIHAONAN@?$CF6i?5numfaces?6?$AA@ 0000000140094b00     vis.obj
 0002:0000eb10       ??_C@_0BM@GKNDKGKG@MAX_MAP_VISIBILITY?5exceeded?$AA@ 0000000140094b10     vis.obj
 0002:0000eb30       ??_C@_0BP@MFAGACOI@LoadPortals?3?5reading?5portal?5?$CFi?$AA@ 0000000140094b30     vis.obj
 0002:0000eb50       ??_C@_0CL@ILIGGBLP@LoadPortals?3?5portal?5?$CFi?5has?5too?5m@ 0000000140094b50     vis.obj
 0002:0000eb80       ??_C@_0CA@DIKGEPMH@LoadPortals?3?5reading?5hint?5state?$AA@ 0000000140094b80     vis.obj
 0002:0000eba0       ??_C@_0BA@MANBOAOF@?$CI?$CFlf?5?$CFlf?5?$CFlf?5?$CJ?5?$AA@ 0000000140094ba0     vis.obj
 0002:0000ebb0       ??_C@_0BL@BJDCNCCM@Leaf?5with?5too?5many?5portals?$AA@ 0000000140094bb0     vis.obj
 0002:0000ebd0       ??_C@_0BJ@JJKKGDPB@Leaf?5with?5too?5many?5faces?$AA@ 0000000140094bd0     vis.obj
 0002:0000ebf0       ??_C@_0N@DFKBGEGD@?9?9?9?5Vis?5?9?9?9?6?$AA@ 0000000140094bf0     vis.obj
 0002:0000ec00       ??_C@_0BA@DLLFEMHI@fastvis?5?$DN?5true?6?$AA@ 0000000140094c00     vis.obj
 0002:0000ec10       ??_C@_06LNGFLGDE@?9merge?$AA@ 0000000140094c10     vis.obj
 0002:0000ec18       ??_C@_0O@CINIPDOH@merge?5?$DN?5true?6?$AA@ 0000000140094c18     vis.obj
 0002:0000ec28       ??_C@_0L@PBFJBHOF@?9nopassage?$AA@ 0000000140094c28     vis.obj
 0002:0000ec38       ??_C@_0BC@DDBHPJJK@nopassage?5?$DN?5true?6?$AA@ 0000000140094c38     vis.obj
 0002:0000ec50       ??_C@_0N@NBJKGIIF@?9passageOnly?$AA@ 0000000140094c50     vis.obj
 0002:0000ec60       ??_C@_0BE@HCBFKPHJ@passageOnly?5?$DN?5true?6?$AA@ 0000000140094c60     vis.obj
 0002:0000ec78       ??_C@_07BLJEKAKA@?9nosort?$AA@ 0000000140094c78     vis.obj
 0002:0000ec80       ??_C@_0P@PBALAHLG@nosort?5?$DN?5true?6?$AA@ 0000000140094c80     vis.obj
 0002:0000ec90       ??_C@_08JOOGOJDG@?9saveprt?$AA@ 0000000140094c90     vis.obj
 0002:0000eca0       ??_C@_0BA@MKMPEDNE@saveprt?5?$DN?5true?6?$AA@ 0000000140094ca0     vis.obj
 0002:0000ecb0       ??_C@_06OKKPJCOM@?9tmpin?$AA@ 0000000140094cb0     vis.obj
 0002:0000ecb8       ??_C@_05BDHJJGGJ@?9hint?$AA@ 0000000140094cb8     vis.obj
 0002:0000ecc0       ??_C@_0N@EELHMOAP@hint?5?$DN?5true?6?$AA@ 0000000140094cc0     vis.obj
 0002:0000ecd0       ??_C@_0DK@KCOHGLNH@usage?3?5vis?5?$FL?9threads?5?$CD?$FN?5?$FL?9level?5@ 0000000140094cd0     vis.obj
 0002:0000ed0c       ??_C@_04DADFDJNH@?4prt?$AA@ 0000000140094d0c     vis.obj
 0002:0000ed18       ??_C@_0CD@LHOHPDFM@No?5portals?5means?5no?5vis?0?5exiting@ 0000000140094d18     vis.obj
 0002:0000ed40       ??_C@_0BK@DLOEFCAA@AllocStackWinding?3?5failed?$AA@ 0000000140094d40     visflow.obj
 0002:0000ed60       ??_C@_0CA@BHKMEKMP@FreeStackWinding?3?5allready?5free?$AA@ 0000000140094d60     visflow.obj
 0002:0000ed80       ??_C@_0P@NFONMMMP@MAX_SEPERATORS?$AA@ 0000000140094d80     visflow.obj
 0002:0000ed90       ??_C@_0DC@MAAFJFBP@portal?3?$CF4i?5?5mightsee?3?$CF4i?5?5cansee@ 0000000140094d90     visflow.obj
 0002:0000edc8       ??_C@_0P@MDIBGNNJ@max?5seperators?$AA@ 0000000140094dc8     visflow.obj
 0002:0000edd8       ??_C@_0BB@OLBJGDPO@?4?4?2src?2visflow?4c?$AA@ 0000000140094dd8     visflow.obj
 0002:0000edf0       ??_C@_0CJ@EGKBAKBJ@?$CF7i?5average?5number?5of?5passages?5p@ 0000000140094df0     visflow.obj
 0002:0000ee20       ??_C@_0CA@DDFFJABK@?$CF7i?5MB?5required?5passage?5memory?6?$AA@ 0000000140094e20     visflow.obj
 0002:0000ee40       ??_C@_0CO@KGBIPCHH@Error?5finding?5collapsed?5vertex?5a@ 0000000140094e40     convert_ase.obj
 0002:0000ee70       ??_C@_08MCIBBPNA@shader?$CFd?$AA@ 0000000140094e70     convert_ase.obj
 0002:0000ee80       ??_C@_0BA@GKLMMGOC@model?$CFdshader?$CFd?$AA@ 0000000140094e80     convert_ase.obj
 0002:0000ee90       ??_C@_0BA@EMCAOBE@?$CKGEOMOBJECT?7?$HL?$AN?6?$AA@ 0000000140094e90     convert_ase.obj
 0002:0000eea0       ??_C@_0BD@MEEBPGGH@?7?$CKNODE_NAME?7?$CC?$CFs?$CC?$AN?6?$AA@ 0000000140094ea0     convert_ase.obj
 0002:0000eeb8       ??_C@_0O@DNMGDHLH@?7?$CKNODE_TM?7?$HL?$AN?6?$AA@ 0000000140094eb8     convert_ase.obj
 0002:0000eec8       ??_C@_0BE@OJCAEJHB@?7?7?$CKNODE_NAME?7?$CC?$CFs?$CC?$AN?6?$AA@ 0000000140094ec8     convert_ase.obj
 0002:0000eee0       ??_C@_0BH@IBEABGPK@?7?7?$CKINHERIT_POS?70?70?70?$AN?6?$AA@ 0000000140094ee0     convert_ase.obj
 0002:0000eef8       ??_C@_0BH@IPKHJDBM@?7?7?$CKINHERIT_ROT?70?70?70?$AN?6?$AA@ 0000000140094ef8     convert_ase.obj
 0002:0000ef10       ??_C@_0BH@CKGBIMKI@?7?7?$CKINHERIT_SCL?70?70?70?$AN?6?$AA@ 0000000140094f10     convert_ase.obj
 0002:0000ef28       ??_C@_0BF@MNLNMNPP@?7?7?$CKTM_ROW0?71?40?70?70?$AN?6?$AA@ 0000000140094f28     convert_ase.obj
 0002:0000ef40       ??_C@_0BF@JJPKACEI@?7?7?$CKTM_ROW1?70?71?40?70?$AN?6?$AA@ 0000000140094f40     convert_ase.obj
 0002:0000ef58       ??_C@_0BF@JAGJPHIF@?7?7?$CKTM_ROW2?70?70?71?40?$AN?6?$AA@ 0000000140094f58     convert_ase.obj
 0002:0000ef70       ??_C@_0BD@KNKLBIM@?7?7?$CKTM_ROW3?70?70?70?$AN?6?$AA@ 0000000140094f70     convert_ase.obj
 0002:0000ef88       ??_C@_0BF@JNFLLCHL@?7?7?$CKTM_POS?7?$CFf?7?$CFf?7?$CFf?$AN?6?$AA@ 0000000140094f88     convert_ase.obj
 0002:0000efa0       ??_C@_04FPKPGJAL@?7?$HN?$AN?6?$AA@ 0000000140094fa0     convert_ase.obj
 0002:0000efa8       ??_C@_0L@ELMFIOEI@?7?$CKMESH?7?$HL?$AN?6?$AA@ 0000000140094fa8     convert_ase.obj
 0002:0000efb8       ??_C@_0BB@EKNOJBJA@?7?7?$CKTIMEVALUE?70?$AN?6?$AA@ 0000000140094fb8     convert_ase.obj
 0002:0000efd0       ??_C@_0BH@BMPLBEFG@?7?7?$CKMESH_NUMVERTEX?7?$CFd?$AN?6?$AA@ 0000000140094fd0     convert_ase.obj
 0002:0000efe8       ??_C@_0BG@DHBFDHOK@?7?7?$CKMESH_NUMFACES?7?$CFd?$AN?6?$AA@ 0000000140094fe8     convert_ase.obj
 0002:0000f000       ??_C@_0CD@DOJLHPN@?7?7?$CKCOMMENT?7?$CCCOLLAPSED?5BY?5SHADER?$CC@ 0000000140095000     convert_ase.obj
 0002:0000f028       ??_C@_0BI@JCEIPCCJ@?7?7?$CKMESH_VERTEX_LIST?7?$HL?$AN?6?$AA@ 0000000140095028     convert_ase.obj
 0002:0000f040       ??_C@_0BO@BLDEDMDJ@?7?7?7?$CKMESH_VERTEX?7?$CFd?7?$CFf?7?$CFf?7?$CFf?$AN?6?$AA@ 0000000140095040     convert_ase.obj
 0002:0000f060       ??_C@_05PEAGOHN@?7?7?$HN?$AN?6?$AA@ 0000000140095060     convert_ase.obj
 0002:0000f068       ??_C@_0BE@OAHGKDNG@?7?7?$CKMESH_NORMALS?7?$HL?$AN?6?$AA@ 0000000140095068     convert_ase.obj
 0002:0000f080       ??_C@_0CC@LDFCNHGH@?7?7?7?$CKMESH_FACENORMAL?7?$CFd?7?$CFf?7?$CFf?7?$CFf?$AN@ 0000000140095080     convert_ase.obj
 0002:0000f0a8       ??_C@_0CE@DCECM@?7?7?7?$CKMESH_VERTEXNORMAL?7?$CFd?7?$CFf?7?$CFf?7?$CF@ 00000001400950a8     convert_ase.obj
 0002:0000f0d0       ??_C@_0BG@NALKFKP@?7?7?$CKMESH_FACE_LIST?7?$HL?$AN?6?$AA@ 00000001400950d0     convert_ase.obj
 0002:0000f0f0       ??_C@_0FH@GOJBKJIK@?7?7?7?$CKMESH_FACE?7?$CFd?7A?3?7?$CFd?7B?3?7?$CFd?7C?3?7@ 00000001400950f0     convert_ase.obj
 0002:0000f148       ??_C@_0BI@GGMJEGGE@?7?7?$CKMESH_NUMTVERTEX?7?$CFd?$AN?6?$AA@ 0000000140095148     convert_ase.obj
 0002:0000f160       ??_C@_0BG@NDLDHCLD@?7?7?$CKMESH_TVERTLIST?7?$HL?$AN?6?$AA@ 0000000140095160     convert_ase.obj
 0002:0000f178       ??_C@_0BN@FHGPBAJM@?7?7?7?$CKMESH_TVERT?7?$CFd?7?$CFf?7?$CFf?7?$CFf?$AN?6?$AA@ 0000000140095178     convert_ase.obj
 0002:0000f198       ??_C@_0BI@PJBEGBMM@?7?7?$CKMESH_NUMTVFACES?7?$CFd?$AN?6?$AA@ 0000000140095198     convert_ase.obj
 0002:0000f1b0       ??_C@_0BG@MDKGBOML@?7?7?$CKMESH_TFACELIST?7?$HL?$AN?6?$AA@ 00000001400951b0     convert_ase.obj
 0002:0000f1c8       ??_C@_0BN@KOFOAIDO@?7?7?7?$CKMESH_TFACE?7?$CFd?7?$CFd?7?$CFd?7?$CFd?$AN?6?$AA@ 00000001400951c8     convert_ase.obj
 0002:0000f1e8       ??_C@_0BG@CBMGEODP@?7?$CKPROP_MOTIONBLUR?70?$AN?6?$AA@ 00000001400951e8     convert_ase.obj
 0002:0000f200       ??_C@_0BG@IAKPNNON@?7?$CKPROP_CASTSHADOW?71?$AN?6?$AA@ 0000000140095200     convert_ase.obj
 0002:0000f218       ??_C@_0BG@DMKGCOBE@?7?$CKPROP_RECVSHADOW?71?$AN?6?$AA@ 0000000140095218     convert_ase.obj
 0002:0000f230       ??_C@_0BE@JEHMICMF@?7?$CKMATERIAL_REF?7?$CFd?$AN?6?$AA@ 0000000140095230     convert_ase.obj
 0002:0000f244       ??_C@_03LFNJCDHL@?$HN?$AN?6?$AA@ 0000000140095244     convert_ase.obj
 0002:0000f248       ??_C@_0BD@KIBJFKCO@mat?$CFdmodel?$CFdsurf?$CFd?$AA@ 0000000140095248     convert_ase.obj
 0002:0000f260       ??_C@_0CG@FBPFPDIK@?7?7?$CKCOMMENT?7?$CCSURFACETYPE?7MST_PLAN@ 0000000140095260     convert_ase.obj
 0002:0000f288       ??_C@_0CN@JBMCPELG@?7?7?$CKCOMMENT?7?$CCSURFACETYPE?7MST_TRIA@ 0000000140095288     convert_ase.obj
 0002:0000f2b8       ??_C@_0BN@HLMLLGFI@WARNING?3?5NULL?5shader?5in?5BSP?6?$AA@ 00000001400952b8     convert_ase.obj
 0002:0000f2d8       ??_C@_0BC@NAHELGOJ@?7?$CKMATERIAL?7?$CFd?7?$HL?$AN?6?$AA@ 00000001400952d8     convert_ase.obj
 0002:0000f2f0       ??_C@_0BI@FCJFNCNE@?7?7?$CKMATERIAL_NAME?7?$CC?$CFs?$CC?$AN?6?$AA@ 00000001400952f0     convert_ase.obj
 0002:0000f308       ??_C@_0BP@GDFFDJHP@?7?7?$CKMATERIAL_CLASS?7?$CCStandard?$CC?$AN?6?$AA@ 0000000140095308     convert_ase.obj
 0002:0000f328       ??_C@_0BP@FAAJKNBD@?7?7?$CKMATERIAL_DIFFUSE?7?$CFf?7?$CFf?7?$CFf?$AN?6?$AA@ 0000000140095328     convert_ase.obj
 0002:0000f348       ??_C@_0BM@CJHCKOOP@?7?7?$CKMATERIAL_SHADING?5Phong?$AN?6?$AA@ 0000000140095348     convert_ase.obj
 0002:0000f368       ??_C@_0BD@PBMGGOAB@?7?7?$CKMAP_DIFFUSE?7?$HL?$AN?6?$AA@ 0000000140095368     convert_ase.obj
 0002:0000f380       ??_C@_0BE@IDLJFAL@?7?7?7?$CKMAP_NAME?7?$CC?$CFs?$CC?$AN?6?$AA@ 0000000140095380     convert_ase.obj
 0002:0000f398       ??_C@_0BJ@EKBLAIPJ@?7?7?7?$CKMAP_CLASS?7?$CCBitmap?$CC?$AN?6?$AA@ 0000000140095398     convert_ase.obj
 0002:0000f3b8       ??_C@_0BC@COFBJBKN@?7?7?7?$CKMAP_SUBNO?71?$AN?6?$AA@ 00000001400953b8     convert_ase.obj
 0002:0000f3d0       ??_C@_0BF@GIDCHPKE@?7?7?7?$CKMAP_AMOUNT?71?40?$AN?6?$AA@ 00000001400953d0     convert_ase.obj
 0002:0000f3e8       ??_C@_0BG@PIJGMDPE@?7?7?7?$CKMAP_TYPE?7Screen?$AN?6?$AA@ 00000001400953e8     convert_ase.obj
 0002:0000f400       ??_C@_0BF@NKBGPBMM@?7?7?7?$CKBITMAP?7?$CC?4?4?2?$CFs?$CC?$AN?6?$AA@ 0000000140095400     convert_ase.obj
 0002:0000f418       ??_C@_0BO@CNPCHJ@?7?7?7?$CKBITMAP_FILTER?7Pyramidal?$AN?6?$AA@ 0000000140095418     convert_ase.obj
 0002:0000f438       ??_C@_0BM@ICDHBLDJ@?9?9?9?5Convert?5BSP?5to?5ASE?5?9?9?9?6?$AA@ 0000000140095438     convert_ase.obj
 0002:0000f458       ??_C@_0CM@CEBAOBAG@Enabling?5collapsing?5meshes?5by?5te@ 0000000140095458     convert_ase.obj
 0002:0000f488       ??_C@_0BF@BIAOBODL@?4?4?2src?2convert_ase?4c?$AA@ 0000000140095488     convert_ase.obj
 0002:0000f4a0       ??_C@_04IKILEAAK@?4ase?$AA@ 00000001400954a0     convert_ase.obj
 0002:0000f4a8       ??_C@_0BD@MGEINCEL@Open?5failed?5on?5?$CFs?6?$AA@ 00000001400954a8     convert_ase.obj
 0002:0000f4c0       ??_C@_0BK@BOPOKOMD@?$CK3DSMAX_ASCIIEXPORT?7200?$AN?6?$AA@ 00000001400954c0     convert_ase.obj
 0002:0000f4e0       ??_C@_0DO@NINDCDO@?$CKCOMMENT?7?$CCGenerated?5by?5Q3Map2?5?$CIy@ 00000001400954e0     convert_ase.obj
 0002:0000f520       ??_C@_0L@CMLCPMIO@?$CKSCENE?7?$HL?$AN?6?$AA@ 0000000140095520     convert_ase.obj
 0002:0000f530       ??_C@_0BI@ENCIFBDA@?7?$CKSCENE_FILENAME?7?$CC?$CFs?$CC?$AN?6?$AA@ 0000000140095530     convert_ase.obj
 0002:0000f548       ??_C@_0BH@NKOCKLCA@?7?$CKSCENE_FIRSTFRAME?70?$AN?6?$AA@ 0000000140095548     convert_ase.obj
 0002:0000f560       ??_C@_0BI@HBNFABDI@?7?$CKSCENE_LASTFRAME?7100?$AN?6?$AA@ 0000000140095560     convert_ase.obj
 0002:0000f578       ??_C@_0BI@CLMGLEIG@?7?$CKSCENE_FRAMESPEED?730?$AN?6?$AA@ 0000000140095578     convert_ase.obj
 0002:0000f590       ??_C@_0BM@FDGEFJJL@?7?$CKSCENE_TICKSPERFRAME?7160?$AN?6?$AA@ 0000000140095590     convert_ase.obj
 0002:0000f5b0       ??_C@_0DB@GPCPDBBM@?7?$CKSCENE_BACKGROUND_STATIC?70?40000@ 00000001400955b0     convert_ase.obj
 0002:0000f5e8       ??_C@_0CO@BKJPCMKL@?7?$CKSCENE_AMBIENT_STATIC?70?40000?70?4@ 00000001400955e8     convert_ase.obj
 0002:0000f618       ??_C@_0BD@DANJMPD@?$CKMATERIAL_LIST?7?$HL?$AN?6?$AA@ 0000000140095618     convert_ase.obj
 0002:0000f630       ??_C@_0BG@FNHODDMO@?7?$CKMATERIAL_COUNT?7?$CFd?$AN?6?$AA@ 0000000140095630     convert_ase.obj
 0002:0000f648       ??_C@_0O@MNOJDAPD@?7?1?1?5brush?5?$CFd?6?$AA@ 0000000140095648     convert_map.obj
 0002:0000f658       ??_C@_03BPIAAFC@?7?$HL?6?$AA@ 0000000140095658     convert_map.obj
 0002:0000f660       ??_C@_0FD@JCIIPMBO@?7?7?$CI?5?$CF?43f?5?$CF?43f?5?$CF?43f?5?$CJ?5?$CI?5?$CF?43f?5?$CF?43f@ 0000000140095660     convert_map.obj
 0002:0000f6b4       ??_C@_04FKOAHPIO@?7?$HN?6?6?$AA@ 00000001400956b4     convert_map.obj
 0002:0000f6c0       ??_C@_0O@NAILIDMC@?7?1?1?5patch?5?$CFd?6?$AA@ 00000001400956c0     convert_map.obj
 0002:0000f6d0       ??_C@_0N@GHJEECFG@?7?7patchDef2?6?$AA@ 00000001400956d0     convert_map.obj
 0002:0000f6e0       ??_C@_04OLIOEKCC@?7?7?$HL?6?$AA@ 00000001400956e0     convert_map.obj
 0002:0000f6e8       ??_C@_06OGKADHGE@?7?7?7?$CFs?6?$AA@ 00000001400956e8     convert_map.obj
 0002:0000f6f0       ??_C@_0BE@PHDNALEC@?7?7?7?$CI?5?$CFd?5?$CFd?50?50?50?5?$CJ?6?$AA@ 00000001400956f0     convert_map.obj
 0002:0000f704       ??_C@_05NFJLNNLN@?7?7?7?$CI?6?$AA@ 0000000140095704     convert_map.obj
 0002:0000f70c       ??_C@_05ELKGLHEK@?7?7?7?7?$CI?$AA@ 000000014009570c     convert_map.obj
 0002:0000f718       ??_C@_0BE@MDLFDPOH@?5?$CI?5?$CFf?5?$CFf?5?$CFf?5?$CFf?5?$CFf?5?$CJ?$AA@ 0000000140095718     convert_map.obj
 0002:0000f72c       ??_C@_03LDPKBKDI@?5?$CJ?6?$AA@ 000000014009572c     convert_map.obj
 0002:0000f730       ??_C@_05NEFJLHIK@?7?7?7?$CJ?6?$AA@ 0000000140095730     convert_map.obj
 0002:0000f738       ??_C@_04OPADDGJA@?7?7?$HN?6?$AA@ 0000000140095738     convert_map.obj
 0002:0000f740       ??_C@_0M@CICOCPBL@?7?$CC?$CFs?$CC?5?$CC?$CFs?$CC?6?$AA@ 0000000140095740     convert_map.obj
 0002:0000f750       ??_C@_0BM@GPHLGNBC@?9?9?9?5Convert?5BSP?5to?5MAP?5?9?9?9?6?$AA@ 0000000140095750     convert_map.obj
 0002:0000f770       ??_C@_0CP@FFOJJHHI@?5note?3?5?9collapsebytexture?5does?5n@ 0000000140095770     convert_map.obj
 0002:0000f7a0       ??_C@_0P@KGALKKNB@_converted?4map?$AA@ 00000001400957a0     convert_map.obj
 0002:0000f7b0       ??_C@_0DF@OEDDCMMM@?1?1?5Generated?5by?5Q3Map2?5?$CIydnar?$CJ?5?9@ 00000001400957b0     convert_map.obj
 0002:0000f7e8       ??_C@_0O@GCNLHLJB@?1?1?5entity?5?$CFd?6?$AA@ 00000001400957e8     convert_map.obj
 0002:0000f7f8       ??_C@_0BP@ENJENGEF@Net_Connect?3?5error?5connecting?6?$AA@ 00000001400957f8     l_net:l_net.obj
 0002:0000f818       ??_C@_0BC@JDHOJGDF@my?5address?5is?5?$CFs?6?$AA@ 0000000140095818     l_net:l_net.obj
 0002:0000f830       ??_C@_0BK@BKKFD@NMSG_WriteLong?3?5overflow?6?$AA@ 0000000140095830     l_net:l_net.obj
 0002:0000f850       ??_C@_0BM@NPFIGKNK@NMSG_WriteString?3?5overflow?6?$AA@ 0000000140095850     l_net:l_net.obj
 0002:0000f870       ??_C@_0ED@KLGNMAAN@WSANO_DATA?5?9?5?$CIor?5WSANO_ADDRESS?$CJ?5@ 0000000140095870     l_net:l_net_wins.obj
 0002:0000f8b8       ??_C@_0CH@MNBEANNM@WSANO_RECOVERY?5?9?5Non?9recoverable@ 00000001400958b8     l_net:l_net_wins.obj
 0002:0000f8e0       ??_C@_0CM@NIJENLIP@WSATRY_AGAIN?5?9?5Host?5not?5found?5or@ 00000001400958e0     l_net:l_net_wins.obj
 0002:0000f910       ??_C@_0CD@FIOPIIMH@WSAHOST_NOT_FOUND?5?9?5Host?5not?5fou@ 0000000140095910     l_net:l_net_wins.obj
 0002:0000f940       ??_C@_0EC@PNLKLDMM@WSANOTINITIALISED?5?9?5WSAStartup?$CI?$CJ@ 0000000140095940     l_net:l_net_wins.obj
 0002:0000f988       ??_C@_0CL@ICJCFBCG@WSAVERNOTSUPPORTED?5?9?5Version?5not@ 0000000140095988     l_net:l_net_wins.obj
 0002:0000f9b8       ??_C@_0CN@HIHNEGM@WSASYSNOTREADY?5?9?5Network?5subsyst@ 00000001400959b8     l_net:l_net_wins.obj
 0002:0000f9e8       ??_C@_0O@PPALPDIO@WSAEREMOTE?5?9?5?$AA@ 00000001400959e8     l_net:l_net_wins.obj
 0002:0000f9f8       ??_C@_0N@DFKHLHCA@WSAESTALE?5?9?5?$AA@ 00000001400959f8     l_net:l_net_wins.obj
 0002:0000fa08       ??_C@_0N@PNGDOCLN@WSAEDQUOT?5?9?5?$AA@ 0000000140095a08     l_net:l_net_wins.obj
 0002:0000fa18       ??_C@_0N@GOELOCGJ@WSAEUSERS?5?9?5?$AA@ 0000000140095a18     l_net:l_net_wins.obj
 0002:0000fa28       ??_C@_0P@MDNPHFEP@WSAEPROCLIM?5?9?5?$AA@ 0000000140095a28     l_net:l_net_wins.obj
 0002:0000fa38       ??_C@_0BA@ELHOFAIN@WSAENOTEMPTY?5?9?5?$AA@ 0000000140095a38     l_net:l_net_wins.obj
 0002:0000fa48       ??_C@_0BD@OKNNHICN@WSAEHOSTUNREACH?5?9?5?$AA@ 0000000140095a48     l_net:l_net_wins.obj
 0002:0000fa60       ??_C@_0BM@FBALEGOF@WSAEHOSTDOWN?5?9?5Host?5is?5down?$AA@ 0000000140095a60     l_net:l_net_wins.obj
 0002:0000fa80       ??_C@_0BD@NIJNAHAH@WSAENAMETOOLONG?5?9?5?$AA@ 0000000140095a80     l_net:l_net_wins.obj
 0002:0000fa98       ??_C@_0M@MHKHOAIP@WSAELOOP?5?9?5?$AA@ 0000000140095a98     l_net:l_net_wins.obj
 0002:0000faa8       ??_C@_0CF@JLJDAIGA@WSAECONNREFUSED?5?9?5Connection?5ref@ 0000000140095aa8     l_net:l_net_wins.obj
 0002:0000fad0       ??_C@_0CB@HGINHGKF@WSAETIMEDOUT?5?9?5Command?5timed?5out@ 0000000140095ad0     l_net:l_net_wins.obj
 0002:0000faf8       ??_C@_0CG@KMIDMDI@WSAETOOMANYREFS?5?9?5Too?5many?5refer@ 0000000140095af8     l_net:l_net_wins.obj
 0002:0000fb20       ??_C@_0CJ@NKAICJOH@WSAESHUTDOWN?5?9?5Socket?5has?5been?5s@ 0000000140095b20     l_net:l_net_wins.obj
 0002:0000fb50       ??_C@_0CG@OONDCCCJ@WSAENOTCONN?5?9?5Socket?5is?5not?5conn@ 0000000140095b50     l_net:l_net_wins.obj
 0002:0000fb78       ??_C@_0CJ@NEEDJHCH@WSAEISCONN?5?9?5Socket?5is?5already?5c@ 0000000140095b78     l_net:l_net_wins.obj
 0002:0000fba8       ??_C@_0CH@HPMIIJBH@WSAENOBUFS?5?9?5No?5buffer?5space?5ava@ 0000000140095ba8     l_net:l_net_wins.obj
 0002:0000fbd0       ??_C@_0CB@JENOABEC@WSAECONNRESET?5?9?5Connection?5reset@ 0000000140095bd0     l_net:l_net_wins.obj
 0002:0000fbf8       ??_C@_0CF@DJKMOKDI@WSAECONNABORTED?5?9?5Connection?5abo@ 0000000140095bf8     l_net:l_net_wins.obj
 0002:0000fc20       ??_C@_0CL@NHGFMIDP@WSAENETRESET?5?9?5Connection?5has?5be@ 0000000140095c20     l_net:l_net_wins.obj
 0002:0000fc50       ??_C@_0CL@JCADKOHM@WSAENETUNREACH?5?9?5Network?5cannot?5@ 0000000140095c50     l_net:l_net_wins.obj
 0002:0000fc80       ??_C@_0CI@KHPAKCFP@WSAENETDOWN?5?9?5Network?5subsystem?5@ 0000000140095c80     l_net:l_net_wins.obj
 0002:0000fca8       ??_C@_0DM@JBIMENLK@WSAEADDRNOTAVAIL?5?9?5Address?5not?5a@ 0000000140095ca8     l_net:l_net_wins.obj
 0002:0000fce8       ??_C@_0CC@KLLALJEA@WSAEADDRINUSE?5?9?5Address?5is?5in?5us@ 0000000140095ce8     l_net:l_net_wins.obj
 0002:0000fd10       ??_C@_0EA@CGAINMJB@WSAEAFNOSUPPORT?5?9?5Address?5family@ 0000000140095d10     l_net:l_net_wins.obj
 0002:0000fd50       ??_C@_0BD@FBDCCMIG@WSAEPFNOSUPPORT?5?9?5?$AA@ 0000000140095d50     l_net:l_net_wins.obj
 0002:0000fd68       ??_C@_0CF@JLNOFMDM@WSAEOPNOTSUPP?5?9?5Option?5not?5suppo@ 0000000140095d68     l_net:l_net_wins.obj
 0002:0000fd90       ??_C@_0EG@CBHHCKG@WSAESOCKTNOSUPPORT?5?9?5Socket?5type@ 0000000140095d90     l_net:l_net_wins.obj
 0002:0000fdd8       ??_C@_0CP@LMBJGIGA@WSAEPROTONOSUPPORT?5?9?5Protocol?5is@ 0000000140095dd8     l_net:l_net_wins.obj
 0002:0000fe10       ??_C@_0EE@OGEDGGGC@WSAENOPROTOOPT?5?9?5Protocol?5option@ 0000000140095e10     l_net:l_net_wins.obj
 0002:0000fe58       ??_C@_0DK@BBJONAIK@WSAEPROTOTYPE?5?9?5Protocol?5is?5of?5w@ 0000000140095e58     l_net:l_net_wins.obj
 0002:0000fe98       ??_C@_0CC@BJGJIOGN@WSAEMSGSIZE?5?9?5Data?5size?5too?5larg@ 0000000140095e98     l_net:l_net_wins.obj
 0002:0000fec0       ??_C@_0CP@NBFKDOMD@WSAEDESTADDRREQ?5?9?5Destination?5ad@ 0000000140095ec0     l_net:l_net_wins.obj
 0002:0000fef0       ??_C@_0CJ@IHMNOKOC@WSAENOTSOCK?5?9?5Descriptor?5is?5not?5@ 0000000140095ef0     l_net:l_net_wins.obj
 0002:0000ff20       ??_C@_0CI@CLPJFEDE@WSAEALREADY?5?9?5Command?5already?5co@ 0000000140095f20     l_net:l_net_wins.obj
 0002:0000ff48       ??_C@_0CL@ODFACHKO@WSAEINPROGRESS?5?9?5Blocking?5call?5i@ 0000000140095f48     l_net:l_net_wins.obj
 0002:0000ff78       ??_C@_0CP@PCFMADAL@WSAEWOULDBLOCK?5?9?5Socket?5marked?5a@ 0000000140095f78     l_net:l_net_wins.obj
 0002:0000ffa8       ??_C@_0CA@JNOCEKHM@WSAEMFILE?5?9?5Too?5many?5open?5files?$AA@ 0000000140095fa8     l_net:l_net_wins.obj
 0002:0000ffc8       ??_C@_0BN@NKOKDEFN@WSAEINVAL?5?9?5Invalid?5argument?$AA@ 0000000140095fc8     l_net:l_net_wins.obj
 0002:0000ffe8       ??_C@_0BI@BGPDMPDD@WSAEFAULT?5?9?5Bad?5address?$AA@ 0000000140095fe8     l_net:l_net_wins.obj
 0002:00010000       ??_C@_0BL@NMHHOKDD@WSAEBADF?5?9?5Bad?5file?5number?$AA@ 0000000140096000     l_net:l_net_wins.obj
 0002:00010020       ??_C@_0BH@NKPJENL@WSAEINTR?5?9?5Interrupted?$AA@ 0000000140096020     l_net:l_net_wins.obj
 0002:00010038       ??_C@_0BC@LLHPEMNO@No?5error?5occurred?$AA@ 0000000140096038     l_net:l_net_wins.obj
 0002:00010050       ??_C@_0O@NIPGCINC@Unknown?5error?$AA@ 0000000140096050     l_net:l_net_wins.obj
 0002:00010060       ??_C@_0CA@NIAKKNJM@Winsock?5initialization?5failed?4?6?$AA@ 0000000140096060     l_net:l_net_wins.obj
 0002:00010080       ??_C@_0CK@BELBCJEE@WINS_Init?3?5Unable?5to?5open?5contro@ 0000000140096080     l_net:l_net_wins.obj
 0002:000100b0       ??_C@_0BF@DNHJMPMJ@Winsock?5Initialized?6?$AA@ 00000001400960b0     l_net:l_net_wins.obj
 0002:000100c8       ??_C@_0BF@GHCBGMEC@WINS_OpenSocket?3?5?$CFs?6?$AA@ 00000001400960c8     l_net:l_net_wins.obj
 0002:000100e0       ??_C@_0BN@HEFIFNIH@WINS_OpenReliableSocket?3?5?$CFs?6?$AA@ 00000001400960e0     l_net:l_net_wins.obj
 0002:00010100       ??_C@_0BC@KDHCBADH@setsockopt?5error?6?$AA@ 0000000140096100     l_net:l_net_wins.obj
 0002:00010118       ??_C@_0BG@BMHOIPBH@WINS_CloseSocket?3?5?$CFs?6?$AA@ 0000000140096118     l_net:l_net_wins.obj
 0002:00010130       ??_C@_0BC@KJLNHMNM@WINS_Connect?3?5?$CFs?6?$AA@ 0000000140096130     l_net:l_net_wins.obj
 0002:00010148       ??_C@_0BA@BHBJOIIP@WINS_Write?3?5?$CFs?6?$AA@ 0000000140096148     l_net:l_net_wins.obj
 0002:00010158       ??_C@_0P@OGJLBNEC@?$CFd?4?$CFd?4?$CFd?4?$CFd?3?$CFd?$AA@ 0000000140096158     l_net:l_net_wins.obj
 0002:00010168       ??_C@_09PFCHIMEP@127?40?40?41?$AA@ 0000000140096168     l_net:l_net_wins.obj
 0002:00010174       __real@bf800000            0000000140096174      CIL library: CIL module
 0002:00010178       __real@c7c34f80            0000000140096178      CIL library: CIL module
 0002:0001017c       __real@47c34f80            000000014009617c      CIL library: CIL module
 0002:00010180       __real@3ff0000000000000    0000000140096180      CIL library: CIL module
 0002:00010188       __real@0000000000000000    0000000140096188      CIL library: CIL module
 0002:00010190       __real@80000000            0000000140096190      CIL library: CIL module
 0002:00010198       __real@bfb999999999999a    0000000140096198      CIL library: CIL module
 0002:000101a0       __real@3fb999999999999a    00000001400961a0      CIL library: CIL module
 0002:000101a8       __real@3fc999999999999a    00000001400961a8      CIL library: CIL module
 0002:000101b0       __real@3f000000            00000001400961b0      CIL library: CIL module
 0002:000101b4       __real@3b808081            00000001400961b4      CIL library: CIL module
 0002:000101b8       __real@3e99999a            00000001400961b8      CIL library: CIL module
 0002:000101bc       __real@3f170a3d            00000001400961bc      CIL library: CIL module
 0002:000101c0       __real@3de147ae            00000001400961c0      CIL library: CIL module
 0002:000101c4       __real@3dcccccd            00000001400961c4      CIL library: CIL module
 0002:000101c8       __real@bdcccccd            00000001400961c8      CIL library: CIL module
 0002:000101cc       __real@497423f0            00000001400961cc      CIL library: CIL module
 0002:000101d0       __real@38d1b717            00000001400961d0      CIL library: CIL module
 0002:000101d4       __real@47800000            00000001400961d4      CIL library: CIL module
 0002:000101d8       __real@c7800000            00000001400961d8      CIL library: CIL module
 0002:000101dc       __real@4cbebc20            00000001400961dc      CIL library: CIL module
 0002:000101e0       __real@437f0000            00000001400961e0      CIL library: CIL module
 0002:000101f0       __mask@@AbsFloat@          00000001400961f0      CIL library: CIL module
 0002:00010200       __real@40000000            0000000140096200      CIL library: CIL module
 0002:00010204       __real@38000100            0000000140096204      CIL library: CIL module
 0002:00010208       __real@8000000000000000    0000000140096208      CIL library: CIL module
 0002:00010210       __real@3c8efa35            0000000140096210      CIL library: CIL module
 0002:00010214       __real@3f355555            0000000140096214      CIL library: CIL module
 0002:00010218       __real@42652ee1            0000000140096218      CIL library: CIL module
 0002:0001021c       __real@43000000            000000014009621c      CIL library: CIL module
 0002:00010220       __real@3c008081            0000000140096220      CIL library: CIL module
 0002:00010224       __real@42fe0000            0000000140096224      CIL library: CIL module
 0002:00010228       __real@3e22f983            0000000140096228      CIL library: CIL module
 0002:0001022c       __real@c0c9999a            000000014009622c      CIL library: CIL module
 0002:00010230       __real@40c9999a            0000000140096230      CIL library: CIL module
 0002:00010234       __real@3eaaaaab            0000000140096234      CIL library: CIL module
 0002:00010238       __real@3f400000            0000000140096238      CIL library: CIL module
 0002:0001023c       __real@3aab5601            000000014009623c      CIL library: CIL module
 0002:00010240       __real@c97423f0            0000000140096240      CIL library: CIL module
 0002:00010244       __real@3d800000            0000000140096244      CIL library: CIL module
 0002:00010248       __real@3e800000            0000000140096248      CIL library: CIL module
 0002:0001024c       __real@3f7d70a4            000000014009624c      CIL library: CIL module
 0002:00010250       __real@3e000000            0000000140096250      CIL library: CIL module
 0002:00010254       __real@43870000            0000000140096254      CIL library: CIL module
 0002:00010258       __real@43340000            0000000140096258      CIL library: CIL module
 0002:0001025c       __real@42b40000            000000014009625c      CIL library: CIL module
 0002:00010260       __real@c4800000            0000000140096260      CIL library: CIL module
 0002:00010264       __real@44800000            0000000140096264      CIL library: CIL module
 0002:00010268       __real@3d4ccccd            0000000140096268      CIL library: CIL module
 0002:00010270       __real@3f50624dd2f1a9fc    0000000140096270      CIL library: CIL module
 0002:00010278       __real@3f647ae147ae147b    0000000140096278      CIL library: CIL module
 0002:00010280       __real@3f555554f9b515d5    0000000140096280      CIL library: CIL module
 0002:00010288       __real@4008000000000000    0000000140096288      CIL library: CIL module
 0002:00010290       __real@41200000            0000000140096290      CIL library: CIL module
 0002:00010294       __real@322bcc77            0000000140096294      CIL library: CIL module
 0002:00010298       __real@3a83126f            0000000140096298      CIL library: CIL module
 0002:0001029c       __real@3f800347            000000014009629c      CIL library: CIL module
 0002:000102a0       __real@b8d1b717            00000001400962a0      CIL library: CIL module
 0002:000102a4       __real@3f8147ae            00000001400962a4      CIL library: CIL module
 0002:000102a8       __real@bc23d70a            00000001400962a8      CIL library: CIL module
 0002:000102b0       __real@3eb0c6f7a0b5ed8d    00000001400962b0      CIL library: CIL module
 0002:000102b8       __real@3f847ae147ae147b    00000001400962b8      CIL library: CIL module
 0002:000102c0       __real@3fd55553ef6b5d46    00000001400962c0      CIL library: CIL module
 0002:000102c8       __real@437e0000            00000001400962c8      CIL library: CIL module
 0002:000102cc       __real@42000000            00000001400962cc      CIL library: CIL module
 0002:000102d0       __real@3727c5ac            00000001400962d0      CIL library: CIL module
 0002:000102d8       __real@4060000000000000    00000001400962d8      CIL library: CIL module
 0002:000102e0       __real@4090000000000000    00000001400962e0      CIL library: CIL module
 0002:000102e8       __real@43700000            00000001400962e8      CIL library: CIL module
 0002:000102ec       __real@3ec90fdb            00000001400962ec      CIL library: CIL module
 0002:000102f0       __real@3ec49809            00000001400962f0      CIL library: CIL module
 0002:000102f4       __real@3e449809            00000001400962f4      CIL library: CIL module
 0002:000102f8       __real@430c0000            00000001400962f8      CIL library: CIL module
 0002:000102fc       __real@38449992            00000001400962fc      CIL library: CIL module
 0002:00010300       __real@3949116d            0000000140096300      CIL library: CIL module
 0002:00010308       __real@3ff6db6db6db6db7    0000000140096308      CIL library: CIL module
 0002:00010310       __real@3e45798ee2308c3a    0000000140096310      CIL library: CIL module
 0002:00010320       __mask@@AbsDouble@         0000000140096320      CIL library: CIL module
 0002:00010330       __real@3a03126f            0000000140096330      CIL library: CIL module
 0002:00010334       __real@3ba3d70a            0000000140096334      CIL library: CIL module
 0002:00010338       __real@3e4ccccd            0000000140096338      CIL library: CIL module
 0002:0001033c       __real@35800000            000000014009633c      CIL library: CIL module
 0002:00010340       __real@3f0192c0            0000000140096340      CIL library: CIL module
 0002:00010344       __real@3e8192c0            0000000140096344      CIL library: CIL module
 0002:00010348       __real@3c23d70a            0000000140096348      CIL library: CIL module
 0002:0001034c       __real@be000000            000000014009634c      CIL library: CIL module
 0002:00010350       __real@3d000000            0000000140096350      CIL library: CIL module
 0002:00010354       __real@41000000            0000000140096354      CIL library: CIL module
 0002:00010358       __real@c1000000            0000000140096358      CIL library: CIL module
 0002:0001035c       __real@3f666666            000000014009635c      CIL library: CIL module
 0002:00010360       __real@c0400000            0000000140096360      CIL library: CIL module
 0002:00010364       __real@49000000            0000000140096364      CIL library: CIL module
 0002:00010368       __real@be800000            0000000140096368      CIL library: CIL module
 0002:00010370       __real@bf747ae147ae147b    0000000140096370      CIL library: CIL module
 0002:00010378       __real@3f747ae147ae147b    0000000140096378      CIL library: CIL module
 0002:00010380       __real@42c80000            0000000140096380      CIL library: CIL module
 0002:00010384       __real@47fde800            0000000140096384      CIL library: CIL module
 0002:00010388       __real@433b8000            0000000140096388      CIL library: CIL module
 0002:0001038c       __real@4b989680            000000014009638c      CIL library: CIL module
 0002:00010390       __real@41800000            0000000140096390      CIL library: CIL module
 0002:00010394       __real@42ff0000            0000000140096394      CIL library: CIL module
 0002:00010398       __real@43960000            0000000140096398      CIL library: CIL module
 0002:0001039c       __real@43b40000            000000014009639c      CIL library: CIL module
 0002:000103a0       __real@47c35000            00000001400963a0      CIL library: CIL module
 0002:000103a8       __real@3fefae147ae147ae    00000001400963a8      CIL library: CIL module
 0002:000103b0       __real@48000000            00000001400963b0      CIL library: CIL module
 0002:000103b4       __real@c8000000            00000001400963b4      CIL library: CIL module
 0002:000103b8       __real@447a0000            00000001400963b8      CIL library: CIL module
 0002:000103bc       __real@3f7fbe77            00000001400963bc      CIL library: CIL module
 0002:000103c0       __real@40800000            00000001400963c0      CIL library: CIL module
 0002:000103c4       __real@4479c000            00000001400963c4      CIL library: CIL module
 0002:000103c8       __real@3f70101010101010    00000001400963c8      CIL library: CIL module
 0002:000103d0       __real@3ff4000000000000    00000001400963d0      CIL library: CIL module
 0002:000103d8       __real@3fe8000000000000    00000001400963d8      CIL library: CIL module
 0002:000103e0       __real@3de978d5            00000001400963e0      CIL library: CIL module
 0002:000103e4       __real@3f1645a2            00000001400963e4      CIL library: CIL module
 0002:000103e8       __real@3e991687            00000001400963e8      CIL library: CIL module
 0002:000103ec       __real@3b800000            00000001400963ec      CIL library: CIL module
 0002:000103f0       __real@c2800000            00000001400963f0      CIL library: CIL module
 0002:000103f4       __real@44000000            00000001400963f4      CIL library: CIL module
 0002:000103f8       __real@c3000000            00000001400963f8      CIL library: CIL module
 0002:00010400       __real@3f847ae140000000    0000000140096400      CIL library: CIL module
 0002:00010408       __real@3fd0000000000000    0000000140096408      CIL library: CIL module
 0002:00010410       __real@5f800000            0000000140096410      CIL library: CIL module
 0002:00010418       __real@4061715424d5776b    0000000140096418      CIL library: CIL module
 0002:00010468       __rtc_iaa                  0000000140096468     MSVCRT:_initsect_.obj
 0002:00010470       __rtc_izz                  0000000140096470     MSVCRT:_initsect_.obj
 0002:00010478       __rtc_taa                  0000000140096478     MSVCRT:_initsect_.obj
 0002:00010480       __rtc_tzz                  0000000140096480     MSVCRT:_initsect_.obj
 0002:00019cd0       __IMPORT_DESCRIPTOR_libglib-2.0-0 000000014009fcd0     glib-2.0:libglib-2.0-0.dll
 0002:00019ce4       __IMPORT_DESCRIPTOR_libxml2-2 000000014009fce4     libxml2:libxml2-2.dll
 0002:00019cf8       __IMPORT_DESCRIPTOR_libpng14-14 000000014009fcf8     libpng:libpng14-14.dll
 0002:00019d0c       __IMPORT_DESCRIPTOR_KERNEL32 000000014009fd0c     kernel32:KERNEL32.dll
 0002:00019d20       __IMPORT_DESCRIPTOR_MSVCR90 000000014009fd20     MSVCRT:MSVCR90.dll
 0002:00019d34       __IMPORT_DESCRIPTOR_WSOCK32 000000014009fd34     wsock32:WSOCK32.dll
 0002:00019d48       __NULL_IMPORT_DESCRIPTOR   000000014009fd48     glib-2.0:libglib-2.0-0.dll
 0003:00000000       _pico_ptr_malloc           00000001400a1000     picomodel:picointernal.obj
 0003:00000008       _pico_ptr_free             00000001400a1008     picomodel:picointernal.obj
 0003:00000010       picoModules                00000001400a1010     picomodel:picomodules.obj
 0003:00000070       fm_normals                 00000001400a1070     picomodel:pm_fm.obj
 0003:00000810       md2_normals                00000001400a1810     picomodel:pm_md2.obj
 0003:00000fb0       mdcNormals                 00000001400a1fb0     picomodel:pm_mdc.obj
 0003:000027bc       _fltused                   00000001400a37bc     MSVCRT:dllsupp.obj
 0003:000027c0       __native_dllmain_reason    00000001400a37c0     MSVCRT:natstart.obj
 0003:000027c4       __native_vcclrit_reason    00000001400a37c4     MSVCRT:natstart.obj
 0003:000027c8       __globallocalestatus       00000001400a37c8     MSVCRT:xthdloc.obj
 0003:000027cc       __defaultmatherr           00000001400a37cc     MSVCRT:merr.obj
 0003:000027d0       __security_cookie          00000001400a37d0     MSVCRT:gs_cookie.obj
 0003:000027d8       __security_cookie_complement 00000001400a37d8     MSVCRT:gs_cookie.obj
 0003:000027e0       errlist                    00000001400a37e0     l_net:l_net_wins.obj
 0003:00002b00       ?dirtVectors2@@3PAY02MA    00000001400a3b00     light_ydnar.obj
 0003:00002cf8       ?deadWinding@@3HA          00000001400a3cf8     light_trace.obj
 0003:00002cfc       ?deadTriangle@@3HA         00000001400a3cfc     light_trace.obj
 0003:00002d00       ?dirtVectors3@@3PAY02MA    00000001400a3d00     light_ydnar.obj
 0003:00003498       ?importRtlightsColorscale@@3MA 00000001400a4498     decorations.obj
 0003:0000349c       ?importRtlightsSaturate@@3MA 00000001400a449c     decorations.obj
 0003:000034a0       ?baseaxis@@3PAY02MA        00000001400a44a0     map.obj
 0003:00003578       ?importRtlightsRadiusmod@@3MA 00000001400a4578     decorations.obj
 0003:0000357c       ?importRtlightsNoShadowDeviance@@3MA 00000001400a457c     decorations.obj
 0003:00003580       ?importRtlightsNoShadowSamples@@3MA 00000001400a4580     decorations.obj
 0003:00003584       ?importRtlightsNoShadowMinDist@@3MA 00000001400a4584     decorations.obj
 0003:00003588       ?importRtlightsShadowMinDist@@3MA 00000001400a4588     decorations.obj
 0003:00003590       ?inflate_mask@@3PAIA       00000001400a4590     unzip.obj
 0003:000035dc       ?numthreads@@3HA           00000001400a45dc     threads.obj
 0003:00004920       ?seDefault@@3UsurfaceExtra_s@@A 00000001400a5920     surface_extra.obj
 0003:00004958       ?tidyShaders@@3W4qboolean@@A 00000001400a5958     optimize.obj
 0003:0000495c       ?tidyEntities@@3W4qboolean@@A 00000001400a595c     optimize.obj
 0003:00004960       ?mergeBlock@@3PAMA         00000001400a5960     optimize.obj
 0003:0000496c       ?mergeDrawSurfaces@@3W4qboolean@@A 00000001400a596c     optimize.obj
 0003:00004970       ?mergeDrawVerts@@3W4qboolean@@A 00000001400a5970     optimize.obj
 0003:00004974       ?makeResMap@@3W4qboolean@@A 00000001400a5974     optimize.obj
 0003:00004978       ?game@@3PEAUgame_s@@EA     00000001400a5978     main.obj
 0003:00004980       ?surfaceTypes@@3PAPEADA    00000001400a5980     main.obj
 0003:000049d8       ?warnImage@@3W4qboolean@@A 00000001400a59d8     main.obj
 0003:000049dc       ?patchSubdivisions@@3HA    00000001400a59dc     main.obj
 0003:000049e0       ?games@@3PAUgame_s@@A      00000001400a59e0     main.obj
 0003:000142c8       ?maxLMSurfaceVerts@@3HA    00000001400b52c8     main.obj
 0003:000142cc       ?maxSurfaceVerts@@3HA      00000001400b52cc     main.obj
 0003:000142d0       ?maxSurfaceIndexes@@3HA    00000001400b52d0     main.obj
 0003:000142d4       ?defaultFogNum@@3HA        00000001400b52d4     main.obj
 0003:000142d8       ?normalEpsilon@@3NA        00000001400b52d8     main.obj
 0003:000142e0       ?distanceEpsilon@@3NA      00000001400b52e0     main.obj
 0003:000142e8       ?blockSize@@3PAHA          00000001400b52e8     main.obj
 0003:000142f4       ?skyboxArea@@3HA           00000001400b52f4     main.obj
 0003:000142f8       ?debugColors@@3PAY02EA     00000001400b52f8     main.obj
 0003:0001431c       ?sampleSize@@3HA           00000001400b531c     main.obj
 0003:00014320       ?lightSamples@@3HA         00000001400b5320     main.obj
 0003:00014324       ?lmCustomSize@@3HA         00000001400b5324     main.obj
 0003:00014328       ?dirtDepth@@3MA            00000001400b5328     main.obj
 0003:0001432c       ?dirtDepthExponent@@3MA    00000001400b532c     main.obj
 0003:00014330       ?dirtScale@@3MA            00000001400b5330     main.obj
 0003:00014334       ?dirtGain@@3MA             00000001400b5334     main.obj
 0003:00014338       ?dirtGainMask@@3PAMA       00000001400b5338     main.obj
 0003:00014344       ?floodlightIntensity@@3MA  00000001400b5344     main.obj
 0003:00014348       ?dirtScaleMask@@3PAMA      00000001400b5348     main.obj
 0003:00014354       ?floodlightDistance@@3MA   00000001400b5354     main.obj
 0003:00014358       ?pointScale@@3MA           00000001400b5358     main.obj
 0003:0001435c       ?areaScale@@3MA            00000001400b535c     main.obj
 0003:00014360       ?skyScale@@3MA             00000001400b5360     main.obj
 0003:00014364       ?bounceScale@@3MA          00000001400b5364     main.obj
 0003:00014368       ?vertexScale@@3MA          00000001400b5368     main.obj
 0003:0001436c       ?gridScale@@3MA            00000001400b536c     main.obj
 0003:00014370       ?gridAmbientScale@@3MA     00000001400b5370     main.obj
 0003:00014374       ?lightmapGamma@@3MA        00000001400b5374     main.obj
 0003:00014378       ?lightmapCompensate@@3MA   00000001400b5378     main.obj
 0003:0001437c       ?lightmapExposure@@3MA     00000001400b537c     main.obj
 0003:00014380       ?lightmapBrightness@@3MA   00000001400b5380     main.obj
 0003:00014384       ?falloffTolerance@@3MA     00000001400b5384     main.obj
 0003:00014388       ?exactPointToPolygon@@3W4qboolean@@A 00000001400b5388     main.obj
 0003:0001438c       ?formFactorValueScale@@3MA 00000001400b538c     main.obj
 0003:00014390       ?linearScale@@3MA          00000001400b5390     main.obj
 0003:00014394       ?defaultLightSubdivide@@3HA 00000001400b5394     main.obj
 0003:00014398       ?subdivideThreshold@@3MA   00000001400b5398     main.obj
 0003:0001439c       ?diffuseSubdivide@@3MA     00000001400b539c     main.obj
 0003:000143a0       ?minDiffuseSubdivide@@3MA  00000001400b53a0     main.obj
 0003:000143a8       ?gridSize@@3PAMA           00000001400b53a8     main.obj
 0003:00014540       ?rad_errormsg@@3PADA       00000001400b5540     jpeg6:jerror.obj
 0003:00014610       ?rad_loadfailed@@3PAU_SETJMP_FLOAT128@@A 00000001400b5610     jpeg6:jerror.obj
 0003:00014710       _pico_ptr_load_file        00000001400b5710     picomodel:picointernal.obj
 0003:00014718       _pico_ptr_free_file        00000001400b5718     picomodel:picointernal.obj
 0003:00014720       _pico_ptr_print            00000001400b5720     picomodel:picointernal.obj
 0003:00014760       _dowildcard                00000001400b5760     MSVCRT:wildcard.obj
 0003:00014764       _newmode                   00000001400b5764     MSVCRT:_newmode.obj
 0003:00014768       _commode                   00000001400b5768     MSVCRT:xncommod.obj
 0003:0001476c       _fmode                     00000001400b576c     MSVCRT:xtxtmode.obj
 0003:00014770       ?lightsEnvelopeCulled@@3HA 00000001400b5770     main.obj
 0003:00014774       ?numOpaqueBrushes@@3HA     00000001400b5774     main.obj
 0003:00014778       ?minVertexLight@@3PAMA     00000001400b5778     main.obj
 0003:00014784       ?numBrushDiffuseLights@@3HA 00000001400b5784     main.obj
 0003:00014788       ?numSurfacesByType@@3PAHA  00000001400b5788     main.obj
 0003:000147b4       ?mergevis@@3W4qboolean@@A  00000001400b57b4     main.obj
 0003:000147b8       ?yDrawVerts@@3PEAUbspDrawVert_t@@EA 00000001400b57b8     main.obj
 0003:000147c0       ?skyboxTransform@@3PAMA    00000001400b57c0     main.obj
 0003:00014800       ?collapseNumVerts@@3HA     00000001400b5800     main.obj
 0003:00014804       ?numMergedVerts@@3HA       00000001400b5804     main.obj
 0003:00014808       ?numClearedSurfaces@@3HA   00000001400b5808     main.obj
 0003:0001480c       ?numportals@@3HA           00000001400b580c     main.obj
 0003:00014810       ?mapplanes@@3PAUplane_s@@A 00000001400b5810     main.obj
 0003:04014810       ?minLight@@3PAMA           00000001440b5810     main.obj
 0003:0401481c       ?g_bBrushPrimit@@3HA       00000001440b581c     main.obj
 0003:04014820       ?bspLeafSurfaces@@3PAHA    00000001440b5820     main.obj
 0003:04414820       ?jitters@@3PAMA            00000001444b5820     main.obj
 0003:04414c20       ?bspBrushes@@3PAUbspBrush_t@@A 00000001444b5c20     main.obj
 0003:044d4c20       ?inbase@@3PADA             0000000144575c20     main.obj
 0003:044d4c60       ?bspVisBytes@@3PAEA        0000000144575c60     main.obj
 0003:046d4c60       ?collapseDrawVerts@@3PEAUbspDrawVert_t@@EA 0000000144775c60     main.obj
 0003:046d4c68       ?sampleScale@@3MA          0000000144775c68     main.obj
 0003:046d4c6c       ?noPassageVis@@3W4qboolean@@A 0000000144775c6c     main.obj
 0003:046d4c70       ?bspModels@@3PAUbspModel_t@@A 0000000144775c70     main.obj
 0003:046fcc70       ?bspNodes@@3PAUbspNode_t@@A 000000014479dc70     main.obj
 0003:04b7cc70       ?outbase@@3PADA            0000000144c1dc70     main.obj
 0003:04b7cc90       ?numCulledLights@@3HA      0000000144c1dc90     main.obj
 0003:04b7cc94       ?hint@@3W4qboolean@@A      0000000144c1dc94     main.obj
 0003:04b7cc98       ?sunLight@@3PAMA           0000000144c1dc98     main.obj
 0003:04b7cca4       ?gridEnvelopeCulled@@3HA   0000000144c1dca4     main.obj
 0003:04b7cca8       ?markDrawSurfaces@@3PEAHEA 0000000144c1dca8     main.obj
 0003:04b7ccb0       ?numMergedSurfaces@@3HA    0000000144c1dcb0     main.obj
 0003:04b7ccb4       ?lightsClusterCulled@@3HA  0000000144c1dcb4     main.obj
 0003:04b7ccb8       ?numFanSurfaces@@3HA       0000000144c1dcb8     main.obj
 0003:04b7ccbc       ?numTriangleDiffuseLights@@3HA 0000000144c1dcbc     main.obj
 0003:04b7ccc0       ?picoModels@@3PAPEAUpicoModel_s@@A 0000000144c1dcc0     main.obj
 0003:04b7dcc0       ?numDiffuseLights@@3HA     0000000144c1ecc0     main.obj
 0003:04b7dcc4       ?numMarkDrawSurfaces@@3HA  0000000144c1ecc4     main.obj
 0003:04b7dcc8       ?surfaceClusters@@3PEAHEA  0000000144c1ecc8     main.obj
 0003:04b7dcd0       ?maxSurfaceClusters@@3HA   0000000144c1ecd0     main.obj
 0003:04b7dcd4       ?leafbytes@@3HA            0000000144c1ecd4     main.obj
 0003:04b7dcd8       ?numBasePaths@@3HA         0000000144c1ecd8     main.obj
 0003:04b7dcdc       ?numNegativeLights@@3HA    0000000144c1ecdc     main.obj
 0003:04b7dce0       ?diskCachePath@@3PADA      0000000144c1ece0     main.obj
 0003:04b7dd20       ?bspPlanes@@3PAUbspPlane_t@@A 0000000144c1ed20     main.obj
 0003:06b7dd20       ?minGridLight@@3PAMA       0000000146c1ed20     main.obj
 0003:06b7dd2c       ?portalbytes@@3HA          0000000146c1ed2c     main.obj
 0003:06b7dd30       ?vertexLuxels@@3PAPEAMA    0000000146c1ed30     main.obj
 0003:06b7dd40       ?mapShaderFile@@3PADA      0000000146c1ed40     main.obj
 0003:06b7e140       ?bspBrushSides@@3PAUbspBrushSide_t@@A 0000000146c1f140     main.obj
 0003:0777e140       ?gamePaths@@3PAPEADA       000000014781f140     main.obj
 0003:0777e190       ?numActiveBrushes@@3HA     000000014781f190     main.obj
 0003:0777e194       ?numSurfaceClusters@@3HA   000000014781f194     main.obj
 0003:0777e198       ?totalvis@@3HA             000000014781f198     main.obj
 0003:0777e19c       ?portalclusters@@3HA       000000014781f19c     main.obj
 0003:0777e1a0       ?sunDirection@@3PAMA       000000014781f1a0     main.obj
 0003:0777e1ac       ?leaflongs@@3HA            000000014781f1ac     main.obj
 0003:0777e1b0       ?numGamePaths@@3HA         000000014781f1b0     main.obj
 0003:0777e1b4       ?numStripSurfaces@@3HA     000000014781f1b4     main.obj
 0003:0777e1b8       ?leafs@@3PEAUleaf_s@@EA    000000014781f1b8     main.obj
 0003:0777e1c0       ?mapFogs@@3PAUfog_s@@A     000000014781f1c0     main.obj
 0003:0777e490       ?numLights@@3HA            000000014781f490     main.obj
 0003:0777e494       ?numMapPatches@@3HA        000000014781f494     main.obj
 0003:0777e498       ?faceleafs@@3PEAUleaf_s@@EA 000000014781f498     main.obj
 0003:0777e4a0       ?bspShaders@@3PAUbspShader_t@@A 000000014781f4a0     main.obj
 0003:077c64a0       ?passageVisOnly@@3W4qboolean@@A 00000001478674a0     main.obj
 0003:077c64a4       ?lightsBoundsCulled@@3HA   00000001478674a4     main.obj
 0003:077c64a8       ?radVertexLuxels@@3PAPEAMA 00000001478674a8     main.obj
 0003:077c64b8       ?numPatchDiffuseLights@@3HA 00000001478674b8     main.obj
 0003:077c64bc       ?portallongs@@3HA          00000001478674bc     main.obj
 0003:077c64c0       ?lights@@3PEAUlight_s@@EA  00000001478674c0     main.obj
 0003:077c64c8       ?opaqueBrushes@@3PEAEEA    00000001478674c8     main.obj
 0003:077c64d0       ?bspDrawIndexes@@3PAHA     00000001478674d0     main.obj
 0003:097c64d0       ?images@@3PAUimage_s@@A    00000001498674d0     main.obj
 0003:097cb4d0       ?ambientColor@@3PAMA       000000014986c4d0     main.obj
 0003:097cb4dc       ?fastvis@@3W4qboolean@@A   000000014986c4dc     main.obj
 0003:097cb4e0       ?mapMins@@3PAMA            000000014986c4e0     main.obj
 0003:097cb4ec       ?nummapplanes@@3HA         000000014986c4ec     main.obj
 0003:097cb4f0       ?bspFogs@@3PAUbspFog_t@@A  000000014986c4f0     main.obj
 0003:097cbd60       ?numAreaLights@@3HA        000000014986cd60     main.obj
 0003:097cbd64       ?numSpotLights@@3HA        000000014986cd64     main.obj
 0003:097cbd68       ?mapEnt@@3PEAUentity_t@@EA 000000014986cd68     main.obj
 0003:097cbd70       ?gridBounds@@3PAHA         000000014986cd70     main.obj
 0003:097cbd7c       ?lightsPlaneCulled@@3HA    000000014986cd7c     main.obj
 0003:097cbd80       ?portals@@3PEAUvportal_t@@EA 000000014986cd80     main.obj
 0003:097cbd88       ?verbose@@3W4qboolean@@A   000000014986cd88     main.obj
 0003:097cbd8c       ?numPointLights@@3HA       000000014986cd8c     main.obj
 0003:097cbd90       ?bspLeafBrushes@@3PAHA     000000014986cd90     main.obj
 0003:098cbd90       ?custSurfaceParms@@3PAUsurfaceParm_s@@A 000000014996cd90     main.obj
 0003:098d3d90       ?name@@3PADA               0000000149974d90     main.obj
 0003:098d4190       ?maxOpaqueBrush@@3HA       0000000149975190     main.obj
 0003:098d4194       ?numRedundantIndexes@@3HA  0000000149975194     main.obj
 0003:098d4198       ?entitySourceBrushes@@3HA  0000000149975198     main.obj
 0003:098d419c       ?farPlaneDist@@3MA         000000014997519c     main.obj
 0003:098d41a0       ?basePaths@@3PAPEADA       00000001499751a0     main.obj
 0003:098d41f0       ?bspLeafs@@3PAUbspLeaf_t@@A 00000001499751f0     main.obj
 0003:09ed41f0       ?mapMaxs@@3PAMA            0000000149f751f0     main.obj
 0003:09ed41fc       ?numfaces@@3HA             0000000149f751fc     main.obj
 0003:09ed4200       ?gridMins@@3PAMA           0000000149f75200     main.obj
 0003:09ed420c       ?numSunLights@@3HA         0000000149f7520c     main.obj
 0003:09ed4210       ?gridBoundsCulled@@3HA     0000000149f75210     main.obj
 0003:09ed4214       ?saveprt@@3W4qboolean@@A   0000000149f75214     main.obj
 0003:09ed4218       ?rawLightmapsDiskCache@@3PEAUdiskCache_t@@EA 0000000149f75218     main.obj
 0003:09ed4220       ?bspEntData@@3PADA         0000000149f75220     main.obj
 0003:09f54220       ?sorted_portals@@3PAPEAUvportal_t@@A 0000000149ff5220     main.obj
 0003:0a154220       ?source@@3PADA             000000014a1f5220     main.obj
 0003:0a154620       ?floodlightRGB@@3PAMA      000000014a1f5620     main.obj
 0003:0a15462c       ?nosort@@3W4qboolean@@A    000000014a1f562c     main.obj
 0003:0a154630       ?entities@@3PAUentity_t@@A 000000014a1f5630     main.obj
 0003:0c954630       ?buildBrush@@3PEAUbrush_s@@EA 000000014c9f5630     main.obj
 0003:0c954638       ?numMapDrawSurfs@@3HA      000000014c9f5638     main.obj
 0003:0c95463c       ?patch_numMapEntities@@3HA 000000014c9f563c     patchbsp.obj
 0003:0c954640       ?dirtSettings@@3PAUdirtSettings_t@@A 000000014c9f5640     main.obj
 0003:0ed54640       ?installPath@@3PADA        000000014edf5640     main.obj
 0003:0ed54a40       ?faces@@3PEAUvportal_t@@EA 000000014edf5a40     main.obj
 0003:0ed54a48       ?patch_mapEntities@@3PEAUentity_t@@EA 000000014edf5a48     patchbsp.obj
 0003:0ed54a50       ?mapName@@3PADA            000000014edf5a50     main.obj
 0003:0ed54a90       ?ReferencedModels@@3PAUReferencedModel_s@@A 000000014edf5a90     optimize.obj
 0003:0ef56a90       ?patch_bspEntities@@3PEAUentity_t@@EA 000000014eff7a90     patchbsp.obj
 0003:0ef56a98       ?patch_numBspEntities@@3HA 000000014eff7a98     patchbsp.obj
 0003:0ef56a9c       ?patchTriggers@@3W4qboolean@@A 000000014eff7a9c     patchbsp.obj
 0003:0ef56aa0       ?uniqueEntityKey@@3PADA    000000014eff7aa0     patchbsp.obj
 0003:0ef56ea0       ?colorModRandom@@3PAY02MA  000000014eff7ea0     shaders.obj
 0003:0ef571a0       ?surfaceExtras@@3PEAUsurfaceExtra_s@@EA 000000014eff81a0     surface_extra.obj
 0003:0ef571a8       ?memnumlogs@@3HA           000000014eff81a8     cmdlib.obj
 0003:0ef571ac       ?memlog@@3W4qboolean@@A    000000014eff81ac     cmdlib.obj
 0003:0ef571b0       ?ex_argv@@3PAPEADA         000000014eff81b0     cmdlib.obj
 0003:0ef591b0       ?memlogs@@3PAUmemlogr_s@@A 000000014effa1b0     cmdlib.obj
 0003:0f05b1b0       ?com_token@@3PADA          000000014f0fc1b0     cmdlib.obj
 0003:0f05b5b0       ?archivedir@@3PADA         000000014f0fc5b0     cmdlib.obj
 0003:0f05b9b0       ?writedir@@3PADA           000000014f0fc9b0     cmdlib.obj
 0003:0f05bdb0       ?qdir@@3PADA               000000014f0fcdb0     cmdlib.obj
 0003:0f05c1b0       ?gamedir@@3PADA            000000014f0fd1b0     cmdlib.obj
 0003:0f05c5b0       ?bmhd@@3Ubmhd_t@@A         000000014f0fd5b0     imagelib.obj
 0003:0f05c5c4       ?c_active_windings@@3HA    000000014f0fd5c4     polylib.obj
 0003:0f05c5c8       ?brdcst_socket@@3PEAUsocket_s@@EA 000000014f0fd5c8     inout.obj
 0003:0f05c5d0       ?msg@@3Unetmessage_s@@A    000000014f0fd5d0     inout.obj
 0003:0f05c9dc       ?c_peak_windings@@3HA      000000014f0fd9dc     polylib.obj
 0003:0f05c9e0       ?doc@@3PEAU_xmlDoc@@EA     000000014f0fd9e0     inout.obj
 0003:0f05c9e8       ?c_winding_allocs@@3HA     000000014f0fd9e8     polylib.obj
 0003:0f05c9ec       ?c_winding_points@@3HA     000000014f0fd9ec     polylib.obj
 0003:0f05c9f0       ?script@@3PEAUscript_t@@EA 000000014f0fd9f0     scriplib.obj
 0003:0f05c9f8       ?scriptline@@3HA           000000014f0fd9f8     scriplib.obj
 0003:0f05c9fc       ?endofscript@@3W4qboolean@@A 000000014f0fd9fc     scriplib.obj
 0003:0f05ca00       ?scriptstack@@3PAUscript_t@@A 000000014f0fda00     scriplib.obj
 0003:0f05eb00       ?token@@3PADA              000000014f0ffb00     scriplib.obj
 0003:0f05ef00       ?tokenready@@3W4qboolean@@A 000000014f0fff00     scriplib.obj
 0003:0f05ef04       ?pacifier@@3W4qboolean@@A  000000014f0fff04     threads.obj
 0003:0f05ef08       ?oldf@@3HA                 000000014f0fff08     threads.obj
 0003:0f05ef0c       ?workcount@@3HA            000000014f0fff0c     threads.obj
 0003:0f05ef10       ?crit@@3U_RTL_CRITICAL_SECTION@@A 000000014f0fff10     threads.obj
 0003:0f05ef38       ?workfunction@@3P6AXH@ZEA  000000014f0fff38     threads.obj
 0003:0f05ef40       ?dispatch@@3HA             000000014f0fff40     threads.obj
 0003:0f05ef44       ?threaded@@3W4qboolean@@A  000000014f0fff44     threads.obj
 0003:0f09178c       ?numDecoreGroups@@3HA      000000014f13278c     decorations.obj
 0003:0f091790       ?decoreGroups@@3PEAUdgroup_s@@EA 000000014f132790     decorations.obj
 0003:0f091798       ?numDecoreTestNodes@@3HA   000000014f132798     decorations.obj
 0003:0f09179c       ?numDecoreEntitiesPushedToWorldspawn@@3HA 000000014f13279c     decorations.obj
 0003:0f0917a0       ?numDecoreEntities@@3HA    000000014f1327a0     decorations.obj
 0003:0f0917a4       ?c_faceLeafs@@3HA          000000014f1327a4     facebsp.obj
 0003:0f0917a8       ?numFogFragments@@3HA      000000014f1327a8     fog.obj
 0003:0f0917ac       ?numFogPatchFragments@@3HA 000000014f1327ac     fog.obj
 0003:0f0917b0       ?importRtlightsSkipStyles@@3PAHA 000000014f1327b0     decorations.obj
 0003:0f0919b0       ?planehash@@3PAPEAUplane_s@@A 000000014f1329b0     map.obj
 0003:0f1119b0       ?c_detail@@3HA             000000014f1b29b0     map.obj
 0003:0f1119b4       ?c_edgebevels@@3HA         000000014f1b29b4     map.obj
 0003:0f1119b8       ?c_areaportals@@3HA        000000014f1b29b8     map.obj
 0003:0f1119bc       ?c_boxbevels@@3HA          000000014f1b29bc     map.obj
 0003:0f1119c0       ?c_structural@@3HA         000000014f1b29c0     map.obj
 0003:0f1119c4       ?c_outside@@3HA            000000014f1b29c4     portals.obj
 0003:0f1119c8       ?c_peak_portals@@3HA       000000014f1b29c8     portals.obj
 0003:0f1119cc       ?c_solid@@3HA              000000014f1b29cc     portals.obj
 0003:0f1119d0       ?c_tinyportals@@3HA        000000014f1b29d0     portals.obj
 0003:0f1119d4       ?c_inside@@3HA             000000014f1b29d4     portals.obj
 0003:0f1119d8       ?c_areas@@3HA              000000014f1b29d8     portals.obj
 0003:0f1119dc       ?c_badportals@@3HA         000000014f1b29dc     portals.obj
 0003:0f1119e0       ?c_floodedleafs@@3HA       000000014f1b29e0     portals.obj
 0003:0f1119e4       ?c_active_portals@@3HA     000000014f1b29e4     portals.obj
 0003:0f1119e8       ?num_visclusters@@3HA      000000014f1b29e8     prtfile.obj
 0003:0f1119ec       ?num_solidfaces@@3HA       000000014f1b29ec     prtfile.obj
 0003:0f1119f0       ?pf@@3PEAU_iobuf@@EA       000000014f1b29f0     prtfile.obj
 0003:0f1119f8       ?num_visportals@@3HA       000000014f1b29f8     prtfile.obj
 0003:0f141a10       ?c_cant@@3HA               000000014f1e2a10     tjunction.obj
 0003:0f141a14       ?c_totalVerts@@3HA         000000014f1e2a14     tjunction.obj
 0003:0f141a18       ?c_natural@@3HA            000000014f1e2a18     tjunction.obj
 0003:0f141a1c       ?c_degenerateEdges@@3HA    000000014f1e2a1c     tjunction.obj
 0003:0f141a20       ?originalEdges@@3PAUoriginalEdge_t@@A 000000014f1e2a20     tjunction.obj
 0003:0f2c1a20       ?c_rotate@@3HA             000000014f362a20     tjunction.obj
 0003:0f2c1a24       ?numEdgeLines@@3HA         000000014f362a24     tjunction.obj
 0003:0f2c1a28       ?c_addedVerts@@3HA         000000014f362a28     tjunction.obj
 0003:0f2c1a2c       ?numOriginalEdges@@3HA     000000014f362a2c     tjunction.obj
 0003:0f2c1a30       ?edgeLines@@3PAUedgeLine_s@@A 000000014f362a30     tjunction.obj
 0003:0f841a30       ?noDrawSurfaceFlags@@3HA   000000014f8e2a30     light_trace.obj
 0003:0f841a34       ?noDrawContentFlags@@3HA   000000014f8e2a34     light_trace.obj
 0003:0f841a38       ?noDrawCompileFlags@@3HA   000000014f8e2a38     light_trace.obj
 0003:0f841a3c       ?skyLightNumVectors@@3HA   000000014f8e2a3c     light_ydnar.obj
 0003:0f841d40       ?skyLightVectors@@3PEAY02MEA 000000014f8e2d40     light_ydnar.obj
 0003:0f841d48       ?c_flood@@3HA              000000014f8e2d48     visflow.obj
 0003:0f842580       ?numBSPDrawVertsBuffer@@3HA 000000014f8e3580     bspfile_abstract.obj
 0003:0f842584       ?numBSPDrawSurfacesBuffer@@3HA 000000014f8e3584     bspfile_abstract.obj
 0003:0f842588       ?cacheSize@@3NA            000000014f8e3588     diskcache.obj
 0003:0f842590       ?cacheCpuTime@@3NA         000000014f8e3590     diskcache.obj
 0003:0f842598       ?numCacheFiles@@3HA        000000014f8e3598     diskcache.obj
 0003:0f84259c       ?numImages@@3HA            000000014f8e359c     main.obj
 0003:0f8425a0       ?numPicoModels@@3HA        000000014f8e35a0     main.obj
 0003:0f8425a4       ?numShaderInfo@@3HA        000000014f8e35a4     main.obj
 0003:0f8425a8       ?shaderInfo@@3PEAUshaderInfo_s@@EA 000000014f8e35a8     main.obj
 0003:0f8425b0       ?numCustSurfaceParms@@3HA  000000014f8e35b0     main.obj
 0003:0f8425b4       ?force@@3W4qboolean@@A     000000014f8e35b4     main.obj
 0003:0f8425b8       ?infoMode@@3W4qboolean@@A  000000014f8e35b8     main.obj
 0003:0f8425bc       ?useCustomInfoParms@@3W4qboolean@@A 000000014f8e35bc     main.obj
 0003:0f8425c0       ?leaktest@@3W4qboolean@@A  000000014f8e35c0     main.obj
 0003:0f8425c4       ?nodetail@@3W4qboolean@@A  000000014f8e35c4     main.obj
 0003:0f8425c8       ?nosubdivide@@3W4qboolean@@A 000000014f8e35c8     main.obj
 0003:0f8425cc       ?noclipmodel@@3W4qboolean@@A 000000014f8e35cc     main.obj
 0003:0f8425d0       ?notjunc@@3W4qboolean@@A   000000014f8e35d0     main.obj
 0003:0f8425d4       ?fulldetail@@3W4qboolean@@A 000000014f8e35d4     main.obj
 0003:0f8425d8       ?nodetailcollision@@3W4qboolean@@A 000000014f8e35d8     main.obj
 0003:0f8425dc       ?nofoliage@@3W4qboolean@@A 000000014f8e35dc     main.obj
 0003:0f8425e0       ?nowater@@3W4qboolean@@A   000000014f8e35e0     main.obj
 0003:0f8425e4       ?noCurveBrushes@@3W4qboolean@@A 000000014f8e35e4     main.obj
 0003:0f8425e8       ?fakemap@@3W4qboolean@@A   000000014f8e35e8     main.obj
 0003:0f8425ec       ?nofog@@3W4qboolean@@A     000000014f8e35ec     main.obj
 0003:0f8425f0       ?noHint@@3W4qboolean@@A    000000014f8e35f0     main.obj
 0003:0f8425f4       ?renameModelShaders@@3W4qboolean@@A 000000014f8e35f4     main.obj
 0003:0f8425f8       ?skyFixHack@@3W4qboolean@@A 000000014f8e35f8     main.obj
 0003:0f8425fc       ?npDegrees@@3MA            000000014f8e35fc     main.obj
 0003:0f842600       ?bevelSnap@@3HA            000000014f8e3600     main.obj
 0003:0f842604       ?texRange@@3HA             000000014f8e3604     main.obj
 0003:0f842608       ?flat@@3W4qboolean@@A      000000014f8e3608     main.obj
 0003:0f84260c       ?meta@@3W4qboolean@@A      000000014f8e360c     main.obj
 0003:0f842610       ?patchMeta@@3W4qboolean@@A 000000014f8e3610     main.obj
 0003:0f842614       ?broadMerge@@3W4qboolean@@A 000000014f8e3614     main.obj
 0003:0f842618       ?emitFlares@@3W4qboolean@@A 000000014f8e3618     main.obj
 0003:0f84261c       ?debugSurfaces@@3W4qboolean@@A 000000014f8e361c     main.obj
 0003:0f842620       ?debugInset@@3W4qboolean@@A 000000014f8e3620     main.obj
 0003:0f842624       ?debugPortals@@3W4qboolean@@A 000000014f8e3624     main.obj
 0003:0f842628       ?numMapEntities@@3HA       000000014f8e3628     main.obj
 0003:0f84262c       ?mapEntityNum@@3HA         000000014f8e362c     main.obj
 0003:0f842630       ?numMapFogs@@3HA           000000014f8e3630     main.obj
 0003:0f842634       ?numStrippedLights@@3HA    000000014f8e3634     main.obj
 0003:0f842638       ?mapDrawSurfs@@3PEAUmapDrawSurface_s@@EA 000000014f8e3638     main.obj
 0003:0f842640       ?numSurfaceModels@@3HA     000000014f8e3640     main.obj
 0003:0f842644       ?skyboxPresent@@3W4qboolean@@A 000000014f8e3644     main.obj
 0003:0f842648       ?wolfLight@@3W4qboolean@@A 000000014f8e3648     main.obj
 0003:0f84264c       ?loMem@@3W4qboolean@@A     000000014f8e364c     main.obj
 0003:0f842650       ?loMemSky@@3W4qboolean@@A  000000014f8e3650     main.obj
 0003:0f842654       ?diskCache@@3W4qboolean@@A 000000014f8e3654     main.obj
 0003:0f842658       ?noStyles@@3W4qboolean@@A  000000014f8e3658     main.obj
 0003:0f84265c       ?keepLights@@3W4qboolean@@A 000000014f8e365c     main.obj
 0003:0f842660       ?colorNormalize@@3W4qboolean@@A 000000014f8e3660     main.obj
 0003:0f842664       ?noVertexLighting@@3W4qboolean@@A 000000014f8e3664     main.obj
 0003:0f842668       ?noGridLighting@@3W4qboolean@@A 000000014f8e3668     main.obj
 0003:0f84266c       ?noTrace@@3W4qboolean@@A   000000014f8e366c     main.obj
 0003:0f842670       ?noTraceGrid@@3W4qboolean@@A 000000014f8e3670     main.obj
 0003:0f842674       ?noSurfaces@@3W4qboolean@@A 000000014f8e3674     main.obj
 0003:0f842678       ?patchShadows@@3W4qboolean@@A 000000014f8e3678     main.obj
 0003:0f84267c       ?cpmaHack@@3W4qboolean@@A  000000014f8e367c     main.obj
 0003:0f842680       ?deluxemap@@3W4qboolean@@A 000000014f8e3680     main.obj
 0003:0f842684       ?debugDeluxemap@@3W4qboolean@@A 000000014f8e3684     main.obj
 0003:0f842688       ?deluxemode@@3HA           000000014f8e3688     main.obj
 0003:0f84268c       ?fast@@3W4qboolean@@A      000000014f8e368c     main.obj
 0003:0f842690       ?faster@@3W4qboolean@@A    000000014f8e3690     main.obj
 0003:0f842694       ?fastgrid@@3W4qboolean@@A  000000014f8e3694     main.obj
 0003:0f842698       ?fastbounce@@3W4qboolean@@A 000000014f8e3698     main.obj
 0003:0f84269c       ?cheap@@3W4qboolean@@A     000000014f8e369c     main.obj
 0003:0f8426a0       ?cheapgrid@@3W4qboolean@@A 000000014f8e36a0     main.obj
 0003:0f8426a4       ?bounce@@3HA               000000014f8e36a4     main.obj
 0003:0f8426a8       ?bounceOnly@@3W4qboolean@@A 000000014f8e36a8     main.obj
 0003:0f8426ac       ?bouncing@@3W4qboolean@@A  000000014f8e36ac     main.obj
 0003:0f8426b0       ?bouncegrid@@3W4qboolean@@A 000000014f8e36b0     main.obj
 0003:0f8426b4       ?normalmap@@3W4qboolean@@A 000000014f8e36b4     main.obj
 0003:0f8426b8       ?trisoup@@3W4qboolean@@A   000000014f8e36b8     main.obj
 0003:0f8426bc       ?shade@@3W4qboolean@@A     000000014f8e36bc     main.obj
 0003:0f8426c0       ?shadeAngleDegrees@@3MA    000000014f8e36c0     main.obj
 0003:0f8426c4       ?superSample@@3HA          000000014f8e36c4     main.obj
 0003:0f8426c8       ?filter@@3W4qboolean@@A    000000014f8e36c8     main.obj
 0003:0f8426cc       ?dark@@3W4qboolean@@A      000000014f8e36cc     main.obj
 0003:0f8426d0       ?sunOnly@@3W4qboolean@@A   000000014f8e36d0     main.obj
 0003:0f8426d4       ?skyLightAO@@3W4qboolean@@A 000000014f8e36d4     main.obj
 0003:0f8426d8       ?skyLightSurfaces@@3W4qboolean@@A 000000014f8e36d8     main.obj
 0003:0f8426dc       ?approximateTolerance@@3HA 000000014f8e36dc     main.obj
 0003:0f8426e0       ?noCollapse@@3W4qboolean@@A 000000014f8e36e0     main.obj
 0003:0f8426e4       ?exportLightmaps@@3W4qboolean@@A 000000014f8e36e4     main.obj
 0003:0f8426e8       ?externalLightmaps@@3W4qboolean@@A 000000014f8e36e8     main.obj
 0003:0f8426ec       ?dirty@@3W4qboolean@@A     000000014f8e36ec     main.obj
 0003:0f8426f0       ?dirtDebug@@3W4qboolean@@A 000000014f8e36f0     main.obj
 0003:0f8426f4       ?dirtMode@@3HA             000000014f8e36f4     main.obj
 0003:0f8426f8       ?noDeviance@@3W4qboolean@@A 000000014f8e36f8     main.obj
 0003:0f8426fc       ?devianceJitter@@3MA       000000014f8e36fc     main.obj
 0003:0f842700       ?devianceSamples@@3HA      000000014f8e3700     main.obj
 0003:0f842704       ?debugnormals@@3W4qboolean@@A 000000014f8e3704     main.obj
 0003:0f842708       ?floodlighty@@3W4qboolean@@A 000000014f8e3708     main.obj
 0003:0f84270c       ?floodlight_lowquality@@3W4qboolean@@A 000000014f8e370c     main.obj
 0003:0f842710       ?dump@@3W4qboolean@@A      000000014f8e3710     main.obj
 0003:0f842714       ?debug@@3W4qboolean@@A     000000014f8e3714     main.obj
 0003:0f842718       ?debugUnused@@3W4qboolean@@A 000000014f8e3718     main.obj
 0003:0f84271c       ?debugAxis@@3W4qboolean@@A 000000014f8e371c     main.obj
 0003:0f842720       ?debugCluster@@3W4qboolean@@A 000000014f8e3720     main.obj
 0003:0f842724       ?debugOrigin@@3W4qboolean@@A 000000014f8e3724     main.obj
 0003:0f842728       ?lightmapBorder@@3W4qboolean@@A 000000014f8e3728     main.obj
 0003:0f84272c       ?maxMapDistance@@3MA       000000014f8e372c     main.obj
 0003:0f842730       ?gridMix@@3MA              000000014f8e3730     main.obj
 0003:0f842734       ?numDiffuseSurfaces@@3HA   000000014f8e3734     main.obj
 0003:0f842738       ?surfaceInfos@@3PEAUsurfaceInfo_s@@EA 000000014f8e3738     main.obj
 0003:0f842740       ?sortSurfaces@@3PEAHEA     000000014f8e3740     main.obj
 0003:0f842748       ?numLightSurfaces@@3HA     000000014f8e3748     main.obj
 0003:0f84274c       ?numRawSuperLuxels@@3HA    000000014f8e374c     main.obj
 0003:0f842750       ?lightSurfaces@@3PEAHEA    000000014f8e3750     main.obj
 0003:0f842758       ?numRawLightmaps@@3HA      000000014f8e3758     main.obj
 0003:0f84275c       ?numLightmapShaders@@3HA   000000014f8e375c     main.obj
 0003:0f842760       ?rawLightmaps@@3PEAUrawLightmap_s@@EA 000000014f8e3760     main.obj
 0003:0f842768       ?sortLightmaps@@3PEAHEA    000000014f8e3768     main.obj
 0003:0f842770       ?numSolidLightmaps@@3HA    000000014f8e3770     main.obj
 0003:0f842774       ?numOutLightmaps@@3HA      000000014f8e3774     main.obj
 0003:0f842778       ?numBSPLightmaps@@3HA      000000014f8e3778     main.obj
 0003:0f84277c       ?numExtLightmaps@@3HA      000000014f8e377c     main.obj
 0003:0f842780       ?outLightmaps@@3PEAUoutLightmap_s@@EA 000000014f8e3780     main.obj
 0003:0f842788       ?numSurfacesFloodlighten@@3HA 000000014f8e3788     main.obj
 0003:0f84278c       ?numRawGridPoints@@3HA     000000014f8e378c     main.obj
 0003:0f842790       ?rawGridPoints@@3PEAUrawGridPoint_s@@EA 000000014f8e3790     main.obj
 0003:0f842798       ?numSurfsVertexLit@@3HA    000000014f8e3798     main.obj
 0003:0f84279c       ?numSurfsVertexForced@@3HA 000000014f8e379c     main.obj
 0003:0f8427a0       ?numSurfsVertexApproximated@@3HA 000000014f8e37a0     main.obj
 0003:0f8427a4       ?numSurfsLightmapped@@3HA  000000014f8e37a4     main.obj
 0003:0f8427a8       ?numPlanarsLightmapped@@3HA 000000014f8e37a8     main.obj
 0003:0f8427ac       ?numNonPlanarsLightmapped@@3HA 000000014f8e37ac     main.obj
 0003:0f8427b0       ?numPatchesLightmapped@@3HA 000000014f8e37b0     main.obj
 0003:0f8427b4       ?numPlanarPatchesLightmapped@@3HA 000000014f8e37b4     main.obj
 0003:0f8427b8       ?numLuxels@@3HA            000000014f8e37b8     main.obj
 0003:0f8427bc       ?numLuxelsMapped@@3HA      000000014f8e37bc     main.obj
 0003:0f8427c0       ?numLuxelsOccluded@@3HA    000000014f8e37c0     main.obj
 0003:0f8427c4       ?numLuxelsIlluminated@@3HA 000000014f8e37c4     main.obj
 0003:0f8427c8       ?numVertsIlluminated@@3HA  000000014f8e37c8     main.obj
 0003:0f8427cc       ?numEntities@@3HA          000000014f8e37cc     main.obj
 0003:0f8427d0       ?numBSPEntities@@3HA       000000014f8e37d0     main.obj
 0003:0f8427d4       ?numBSPModels@@3HA         000000014f8e37d4     main.obj
 0003:0f8427d8       ?numBSPShaders@@3HA        000000014f8e37d8     main.obj
 0003:0f8427dc       ?bspEntDataSize@@3HA       000000014f8e37dc     main.obj
 0003:0f8427e0       ?numBSPLeafs@@3HA          000000014f8e37e0     main.obj
 0003:0f8427e4       ?numBSPPlanes@@3HA         000000014f8e37e4     main.obj
 0003:0f8427e8       ?numBSPNodes@@3HA          000000014f8e37e8     main.obj
 0003:0f8427ec       ?numBSPLeafSurfaces@@3HA   000000014f8e37ec     main.obj
 0003:0f8427f0       ?numBSPLeafBrushes@@3HA    000000014f8e37f0     main.obj
 0003:0f8427f4       ?numBSPBrushes@@3HA        000000014f8e37f4     main.obj
 0003:0f8427f8       ?numBSPBrushSides@@3HA     000000014f8e37f8     main.obj
 0003:0f8427fc       ?numBSPLightBytes@@3HA     000000014f8e37fc     main.obj
 0003:0f842800       ?bspLightBytes@@3PEAEEA    000000014f8e3800     main.obj
 0003:0f842808       ?numBSPGridPoints@@3HA     000000014f8e3808     main.obj
 0003:0f84280c       ?numBSPVisBytes@@3HA       000000014f8e380c     main.obj
 0003:0f842810       ?bspGridPoints@@3PEAUbspGridPoint_s@@EA 000000014f8e3810     main.obj
 0003:0f842818       ?numBSPDrawVerts@@3HA      000000014f8e3818     main.obj
 0003:0f84281c       ?numBSPDrawIndexes@@3HA    000000014f8e381c     main.obj
 0003:0f842820       ?bspDrawVerts@@3PEAUbspDrawVert_t@@EA 000000014f8e3820     main.obj
 0003:0f842828       ?numBSPDrawSurfaces@@3HA   000000014f8e3828     main.obj
 0003:0f84282c       ?numBSPFogs@@3HA           000000014f8e382c     main.obj
 0003:0f842830       ?bspDrawSurfaces@@3PEAUbspDrawSurface_t@@EA 000000014f8e3830     main.obj
 0003:0f842840       ?numSurfaceExtras@@3HA     000000014f8e3840     surface_extra.obj
 0003:0f842844       ?maxSurfaceExtras@@3HA     000000014f8e3844     surface_extra.obj
 0003:0f842850       ?importRtlights@@3W4qboolean@@A 000000014f8e3850     decorations.obj
 0003:0f842854       ?importRtlightsSkipCubemapped@@3W4qboolean@@A 000000014f8e3854     decorations.obj
 0003:0f842858       ?importRtlightsSpawnflags@@3HA 000000014f8e3858     decorations.obj
 0003:0f84285c       ?importRtlightsShadowDeviance@@3MA 000000014f8e385c     decorations.obj
 0003:0f842860       ?importRtlightsShadowSamples@@3MA 000000014f8e3860     decorations.obj
 0003:0f842864       ?importRtlightsSkipStylesNum@@3HA 000000014f8e3864     decorations.obj
 0003:0f842868       ?numAlphaFixedVerts@@3HA   000000014f8e3868     surface.obj
 0003:0f842870       ?alphaFixEntity@@3PEAUentity_t@@EA 000000014f8e3870     surface.obj
 0003:0f842878       ?alphaFixMutex@@3PEAUThreadMutex_s@@EA 000000014f8e3878     surface.obj
 0003:0f8428a0       ?c_broken@@3HA             000000014f8e38a0     tjunction.obj
 0003:0f8428a4       ?iterations@@3HA           000000014f8e38a4     light_bounce.obj
 0003:0f8428a8       ?numTraceInfos@@3HA        000000014f8e38a8     light_trace.obj
 0003:0f8428ac       ?maxTraceInfos@@3HA        000000014f8e38ac     light_trace.obj
 0003:0f8428b0       ?firstTraceInfo@@3HA       000000014f8e38b0     light_trace.obj
 0003:0f8428b4       ?numTraceWindings@@3HA     000000014f8e38b4     light_trace.obj
 0003:0f8428b8       ?traceInfos@@3PEAUtraceInfo_s@@EA 000000014f8e38b8     light_trace.obj
 0003:0f8428c0       ?maxTraceWindings@@3HA     000000014f8e38c0     light_trace.obj
 0003:0f8428c4       ?numTraceTriangles@@3HA    000000014f8e38c4     light_trace.obj
 0003:0f8428c8       ?traceWindings@@3PEAUtraceWinding_s@@EA 000000014f8e38c8     light_trace.obj
 0003:0f8428d0       ?maxTraceTriangles@@3HA    000000014f8e38d0     light_trace.obj
 0003:0f8428d4       ?headNodeNum@@3HA          000000014f8e38d4     light_trace.obj
 0003:0f8428d8       ?traceTriangles@@3PEAUtraceTriangle_s@@EA 000000014f8e38d8     light_trace.obj
 0003:0f8428e0       ?skyboxNodeNum@@3HA        000000014f8e38e0     light_trace.obj
 0003:0f8428e4       ?maxTraceDepth@@3HA        000000014f8e38e4     light_trace.obj
 0003:0f8428e8       ?numTraceLeafNodes@@3HA    000000014f8e38e8     light_trace.obj
 0003:0f8428ec       ?numTraceNodes@@3HA        000000014f8e38ec     light_trace.obj
 0003:0f8428f0       ?maxTraceNodes@@3HA        000000014f8e38f0     light_trace.obj
 0003:0f8428f8       ?traceNodes@@3PEAUtraceNode_s@@EA 000000014f8e38f8     light_trace.obj
 0003:0f843118       __native_startup_state     000000014f8e4118     <common>
 0003:0f843120       __native_startup_lock      000000014f8e4120     <common>
 0003:0f843128       __dyn_tls_init_callback    000000014f8e4128     <common>
 0003:0f843130       __onexitend                000000014f8e4130     <common>
 0003:0f843138       __onexitbegin              000000014f8e4138     <common>
 0003:0f843140       winsockdata                000000014f8e4140     <common>
 0003:0f8432e0       my_tcpip_address           000000014f8e42e0     <common>

 entry point at        0001:00084478

 Static symbols

 0001:00001430       ?CopyBrushSidesLump@@YAXPEAUibspHeader_t@@@Z 0000000140002430 f    CIL library: CIL module
 0001:000014d0       ?AddBrushSidesLump@@YAXPEAU_iobuf@@PEAUibspHeader_t@@@Z 00000001400024d0 f    CIL library: CIL module
 0001:000015c0       ?CopyDrawSurfacesLump@@YAXPEAUibspHeader_t@@@Z 00000001400025c0 f    CIL library: CIL module
 0001:00001760       ?AddDrawSurfacesLump@@YAXPEAU_iobuf@@PEAUibspHeader_t@@@Z 0000000140002760 f    CIL library: CIL module
 0001:00001d50       ?CopyDrawVertsLump@@YAXPEAUibspHeader_t@@@Z 0000000140002d50 f    CIL library: CIL module
 0001:00002060       ?AddDrawVertsLump@@YAXPEAU_iobuf@@PEAUibspHeader_t@@@Z 0000000140003060 f    CIL library: CIL module
 0001:000023b0       ?CopyLightGridLumps@@YAXPEAUibspHeader_t@@@Z 00000001400033b0 f    CIL library: CIL module
 0001:00002500       ?AddLightGridLumps@@YAXPEAU_iobuf@@PEAUibspHeader_t@@@Z 0000000140003500 f    CIL library: CIL module
 0001:000031e0       ?CopyLightGridLumps@@YAXPEAUrbspHeader_t@@@Z 00000001400041e0 f    CIL library: CIL module
 0001:000032f0       ?AddLightGridLumps@@YAXPEAU_iobuf@@PEAUrbspHeader_t@@@Z 00000001400042f0 f    CIL library: CIL module
 0001:000046d0       ?LoadDDSBuffer@@YAXPEAEHPEAPEAEPEAH2@Z 00000001400056d0 f    CIL library: CIL module
 0001:00004820       ?LoadPNGBuffer@@YAXPEAEHPEAPEAEPEAH2@Z 0000000140005820 f    CIL library: CIL module
 0001:00004b10       ?ImageInit@@YAXXZ          0000000140005b10 f    CIL library: CIL module
 0001:000052c0       ?ExitQ3Map@@YAXXZ          00000001400062c0 f    CIL library: CIL module
 0001:00005320       ?MD4BlockChecksum@@YAHPEAXH@Z 0000000140006320 f    CIL library: CIL module
 0001:00011f00       ?AllocShaderInfo@@YAPEAUshaderInfo_s@@XZ 0000000140012f00 f    CIL library: CIL module
 0001:000123e0       ?LoadShaderImages@@YAXPEAUshaderInfo_s@@@Z 00000001400133e0 f    CIL library: CIL module
 0001:00012bc0       ?ParseShaderFile@@YAXPEBD@Z 0000000140013bc0 f    CIL library: CIL module
 0001:00015250       ?ParseCustomInfoParms@@YAXXZ 0000000140016250 f    CIL library: CIL module
 0001:00015720       ?AllocSurfaceExtra@@YAPEAUsurfaceExtra_s@@XZ 0000000140016720 f    CIL library: CIL module
 0001:000189f0       ?MD4Transform@@YAXQEAKQEAE@Z 00000001400199f0 f    CIL library: CIL module
 0001:0001b0d0       ?unzlocal_SearchCentralDir@@YAKPEAU_iobuf@@@Z 000000014001c0d0 f    CIL library: CIL module
 0001:0001b450       ?unzlocal_GetCurrentFileInfoInternal@@YAHPEAXPEAUunz_file_info_s@@PEAUunz_file_info_internal_s@@PEADK0K3K@Z 000000014001c450 f    CIL library: CIL module
 0001:0001b8d0       ?unzlocal_CheckCurrentFileCoherencyHeader@@YAHPEAUunz_s@@PEAIPEAK1@Z 000000014001c8d0 f    CIL library: CIL module
 0001:0001cf70       ?huft_build@@YAHPEAIIIPEBI1PEAPEAUinflate_huft_s@@0PEAU1@00@Z 000000014001df70 f    CIL library: CIL module
 0001:0001e780       ?vfsInitPakFile@@YAXPEBD@Z 000000014001f780 f    CIL library: CIL module
 0001:00020c50       ?FixBrushSides@@YAXPEAUentity_t@@@Z 0000000140021c50 f    CIL library: CIL module
 0001:00022ab0       ?MakeTextureMatrix@@YA?AW4qboolean@@PEAUdecalProjector_s@@QEAMPEAUbspDrawVert_t@@22@Z 0000000140023ab0 f    CIL library: CIL module
 0001:00023640       ?TransformDecalProjector@@YAXPEAUdecalProjector_s@@QEAY02MQEAM0@Z 0000000140024640 f    CIL library: CIL module
 0001:00023a50       ?MakeDecalProjector@@YAHPEAUshaderInfo_s@@QEAMMHPEAPEAUbspDrawVert_t@@MMH@Z 0000000140024a50 f    CIL library: CIL module
 0001:00024720       ?ProjectDecalOntoWinding@@YAXPEAUdecalProjector_s@@PEAUmapDrawSurface_s@@PEAUwinding_t@@@Z 0000000140025720 f    CIL library: CIL module
 0001:00024ca0       ?ProjectDecalOntoPatch@@YAXPEAUdecalProjector_s@@PEAUmapDrawSurface_s@@@Z 0000000140025ca0 f    CIL library: CIL module
 0001:00025050       ?ProjectDecalOntoTriangles@@YAXPEAUdecalProjector_s@@PEAUmapDrawSurface_s@@@Z 0000000140026050 f    CIL library: CIL module
 0001:00028000       ?SelectSplitPlaneNum@@YAXPEAUnode_s@@PEAUface_s@@PEAH2@Z 0000000140029000 f    CIL library: CIL module
 0001:0002c140       ?ParseRawBrush@@YAXW4qboolean@@@Z 000000014002d140 f    CIL library: CIL module
 0001:0002cc50       ?ParseBrush@@YAXW4qboolean@@@Z 000000014002dc50 f    CIL library: CIL module
 0001:0002d860       ?ParseMapEntity@@YA?AW4qboolean@@W41@0@Z 000000014002e860 f    CIL library: CIL module
 0001:0002e320       ?ExpandLongestCurve@@YAXPEAMQEAM11@Z 000000014002f320 f    CIL library: CIL module
 0001:0002e6a0       ?ExpandMaxIterations@@YAXPEAHHQEAM11@Z 000000014002f6a0 f    CIL library: CIL module
 0001:0002f610       ?GrowGroup_r@@YAXPEAUparseMesh_s@@HHPEAPEAU1@PEAE2@Z 0000000140030610 f    CIL library: CIL module
 0001:00034640       ?AddSurfaceFlare@@YAXPEAUmapDrawSurface_s@@QEAM@Z 0000000140035640 f    CIL library: CIL module
 0001:000347e0       ?SubdivideFace_r@@YAXPEAUentity_t@@PEAUbrush_s@@PEAUside_s@@PEAUwinding_t@@HM@Z 00000001400357e0 f    CIL library: CIL module
 0001:00035e30       ?FilterPatchIntoTree@@YAHPEAUmapDrawSurface_s@@PEAUtree_t@@@Z 0000000140036e30 f    CIL library: CIL module
 0001:00036240       ?FilterTrianglesIntoTree@@YAHPEAUmapDrawSurface_s@@PEAUtree_t@@@Z 0000000140037240 f    CIL library: CIL module
 0001:00036460       ?FilterFoliageIntoTree@@YAHPEAUmapDrawSurface_s@@PEAUtree_t@@@Z 0000000140037460 f    CIL library: CIL module
 0001:000374b0       ?OptimizeTriangleSurface@@YAXPEAUmapDrawSurface_s@@@Z 00000001400384b0 f    CIL library: CIL module
 0001:00037750       ?EmitTriangleSurface@@YAXPEAUmapDrawSurface_s@@@Z 0000000140038750 f    CIL library: CIL module
 0001:00037d90       ?MakeDebugPortalSurfs_r@@YAXPEAUnode_s@@PEAUshaderInfo_s@@@Z 0000000140038d90 f    CIL library: CIL module
 0001:00039120       ?VolumeColorMods@@YAXPEAUentity_t@@PEAUmapDrawSurface_s@@@Z 000000014003a120 f    CIL library: CIL module
 0001:0003a4f0       ?SubdivideFoliageTriangle_r@@YAXPEAUmapDrawSurface_s@@PEAUfoliage_s@@PEAPEAUbspDrawVert_t@@@Z 000000014003b4f0 f    CIL library: CIL module
 0001:0003b1b0       ?FindMetaVertex@@YAHPEAUbspDrawVert_t@@@Z 000000014003c1b0 f    CIL library: CIL module
 0001:0003b2c0       ?AddMetaTriangle@@YAHXZ    000000014003c2c0 f    CIL library: CIL module
 0001:0003b600       ?SurfaceToMetaTriangles@@YAXPEAUmapDrawSurface_s@@@Z 000000014003c600 f    CIL library: CIL module
 0001:0003d1c0       ?AddMetaTriangleToSurface@@YAHPEAUmapDrawSurface_s@@PEAUmetaTriangle_s@@W4qboolean@@@Z 000000014003e1c0 f    CIL library: CIL module
 0001:0003d800       ?MetaTrianglesToSurface@@YAXHPEAUmetaTriangle_s@@PEAH1@Z 000000014003e800 f    CIL library: CIL module
 0001:0003dbd0       ?CompareMetaTriangles@@YAHPEBX0@Z 000000014003ebd0 f    CIL library: CIL module
 0001:00040910       ?CreateSunLight@@YAXPEAUsun_s@@@Z 0000000140041910 f    CIL library: CIL module
 0001:00040c30       ?CreateSkyLights@@YAXQEAMMHMH@Z 0000000140041c30 f    CIL library: CIL module
 0001:00046e20       ?RadClipWindingEpsilon@@YAXPEAUradWinding_t@@QEAMMM00PEAUclipWork_t@@@Z 0000000140047e20 f    CIL library: CIL module
 0001:00047370       ?RadSample@@YAXHPEAUbspDrawSurface_t@@PEAUrawLightmap_s@@PEAUshaderInfo_s@@PEAUradWinding_t@@QEAM4PEAH@Z 0000000140048370 f    CIL library: CIL module
 0001:00047a70       ?RadSubdivideDiffuseLight@@YAXHPEAUbspDrawSurface_t@@PEAUrawLightmap_s@@PEAUshaderInfo_s@@MMW4qboolean@@PEAUradWinding_t@@PEAUclipWork_t@@@Z 0000000140048a70 f    CIL library: CIL module
 0001:00049140       ?AddTraceInfo@@YAHPEAUtraceInfo_s@@@Z 000000014004a140 f    CIL library: CIL module
 0001:00049250       ?AllocTraceNode@@YAHXZ     000000014004a250 f    CIL library: CIL module
 0001:00049340       ?AddTraceWinding@@YAHPEAUtraceWinding_s@@@Z 000000014004a340 f    CIL library: CIL module
 0001:00049430       ?AddTraceTriangle@@YAHPEAUtraceTriangle_s@@@Z 000000014004a430 f    CIL library: CIL module
 0001:000495a0       ?AddItemToTraceNode@@YAHPEAUtraceNode_s@@H@Z 000000014004a5a0 f    CIL library: CIL module
 0001:00049660       ?SetupTraceNodes_r@@YAHH@Z 000000014004a660 f    CIL library: CIL module
 0001:00049c80       ?FilterTraceWindingIntoNodes_r@@YAXPEAUtraceWinding_s@@H@Z 000000014004ac80 f    CIL library: CIL module
 0001:00049ec0       ?SubdivideTraceNode_r@@YAXHH@Z 000000014004aec0 f    CIL library: CIL module
 0001:0004a3f0       ?TriangulateTraceNode_r@@YAHH@Z 000000014004b3f0 f    CIL library: CIL module
 0001:0004a670       ?PopulateWithBSPModel@@YAXPEAUbspModel_t@@QEAM@Z 000000014004b670 f    CIL library: CIL module
 0001:0004ad70       ?PopulateWithPicoModel@@YAXDPEAUpicoModel_s@@QEAMH@Z 000000014004bd70 f    CIL library: CIL module
 0001:0004afa0       ?PopulateTraceNodes@@YAXXZ 000000014004bfa0 f    CIL library: CIL module
 0001:0004c180       ?TraceLine_r@@YA?AW4qboolean@@HQEAM0PEAUtrace_t@@@Z 000000014004d180 f    CIL library: CIL module
 0001:0004d1e0       ?CalcTangentVectors@@YA?AW4qboolean@@HPEAPEAUbspDrawVert_t@@PEAY02M1@Z 000000014004e1e0 f    CIL library: CIL module
 0001:0004d5b0       ?PerturbNormal@@YAXPEAUbspDrawVert_t@@PEAUshaderInfo_s@@QEAMQEAY02M3@Z 000000014004e5b0 f    CIL library: CIL module
 0001:0004d710       ?MapSingleLuxel@@YAHPEAUrawLightmap_s@@PEAUsurfaceInfo_s@@PEAUbspDrawVert_t@@QEAMMQEAY02M44@Z 000000014004e710 f    CIL library: CIL module
 0001:0004e2a0       ?MapTriangle_r@@YAXPEAUrawLightmap_s@@PEAUsurfaceInfo_s@@QEAPEAUbspDrawVert_t@@QEAMQEAY02M44@Z 000000014004f2a0 f    CIL library: CIL module
 0001:0004e510       ?MapTriangle@@YA?AW4qboolean@@PEAUrawLightmap_s@@PEAUsurfaceInfo_s@@QEAPEAUbspDrawVert_t@@W41@@Z 000000014004f510 f    CIL library: CIL module
 0001:0004e820       ?MapQuad_r@@YAXPEAUrawLightmap_s@@PEAUsurfaceInfo_s@@QEAPEAUbspDrawVert_t@@QEAMQEAY02M4@Z 000000014004f820 f    CIL library: CIL module
 0001:0004eb60       ?MapQuad@@YA?AW4qboolean@@PEAUrawLightmap_s@@PEAUsurfaceInfo_s@@QEAPEAUbspDrawVert_t@@@Z 000000014004fb60 f    CIL library: CIL module
 0001:000520b0       ?SubmapRawLuxel@@YA?AW4qboolean@@PEAUrawLightmap_s@@HHMMPEAHQEAM2@Z 00000001400530b0 f    CIL library: CIL module
 0001:00052430       ?SubsampleRawLuxel_r@@YAXPEAUrawLightmap_s@@PEAUtrace_t@@QEAMHHMPEAM@Z 0000000140053430 f    CIL library: CIL module
 0001:00058650       ?CompareLightSurface@@YAHPEBX0@Z 0000000140059650 f    CIL library: CIL module
 0001:00059f80       ?CompareSurfaceInfo@@YAHPEBX0@Z 000000014005af80 f    CIL library: CIL module
 0001:0005aeb0       ?CompareBSPLuxels@@YA?AW4qboolean@@PEAUrawLightmap_s@@H0H@Z 000000014005beb0 f    CIL library: CIL module
 0001:0005b260       ?MergeBSPLuxels@@YA?AW4qboolean@@PEAUrawLightmap_s@@H0H@Z 000000014005c260 f    CIL library: CIL module
 0001:0005b4e0       ?ApproximateLuxel@@YA?AW4qboolean@@PEAUrawLightmap_s@@PEAUbspDrawVert_t@@@Z 000000014005c4e0 f    CIL library: CIL module
 0001:0005b6e0       ?ApproximateTriangle_r@@YA?AW4qboolean@@PEAUrawLightmap_s@@QEAPEAUbspDrawVert_t@@@Z 000000014005c6e0 f    CIL library: CIL module
 0001:0005b8f0       ?ApproximateLightmap@@YA?AW4qboolean@@PEAUrawLightmap_s@@@Z 000000014005c8f0 f    CIL library: CIL module
 0001:0005bd90       ?TestOutLightmapStamp@@YA?AW4qboolean@@PEAUrawLightmap_s@@HPEAUoutLightmap_s@@HH@Z 000000014005cd90 f    CIL library: CIL module
 0001:0005bf20       ?SetupOutLightmap@@YAXPEAUrawLightmap_s@@PEAUoutLightmap_s@@@Z 000000014005cf20 f    CIL library: CIL module
 0001:0005c080       ?FindOutLightmaps@@YAXPEAUrawLightmap_s@@@Z 000000014005d080 f    CIL library: CIL module
 0001:0005c9b0       ?CompareRawLightmap@@YAHPEBX0@Z 000000014005d9b0 f    CIL library: CIL module
 0001:00065bd0       ?ConvertCollapsedSurface@@YAXPEAU_iobuf@@PEAUbspModel_t@@HHHQEAM@Z 0000000140066bd0 f    CIL library: CIL module
 0001:000668a0       ?ConvertSurface@@YAXPEAU_iobuf@@PEAUbspModel_t@@HPEAUbspDrawSurface_t@@HQEAM@Z 00000001400678a0 f    CIL library: CIL module
 0001:00066f10       ?ConvertModel@@YAXPEAU_iobuf@@PEAUbspModel_t@@HQEAMH@Z 0000000140067f10 f    CIL library: CIL module
 0001:00067030       ?ConvertShader@@YAXPEAU_iobuf@@PEAUbspShader_t@@H@Z 0000000140068030 f    CIL library: CIL module
 0001:00067740       ?ConvertBrush@@YAXPEAU_iobuf@@HPEAUbspBrush_t@@QEAM@Z 0000000140068740 f    CIL library: CIL module
 0001:00067ac0       ?ConvertPatch@@YAXPEAU_iobuf@@HPEAUbspDrawSurface_t@@QEAM@Z 0000000140068ac0 f    CIL library: CIL module
 0001:00067ce0       ?ConvertModel@@YAXPEAU_iobuf@@PEAUbspModel_t@@HQEAM@Z 0000000140068ce0 f    CIL library: CIL module
 0001:0006a0a0       DDSDecodePixelFormat       000000014006b0a0 f   ddslib:ddslib.obj
 0001:0006a160       DDSGetColorBlockColors     000000014006b160 f   ddslib:ddslib.obj
 0001:0006a330       DDSDecodeColorBlock        000000014006b330 f   ddslib:ddslib.obj
 0001:0006a410       DDSDecodeAlphaExplicit     000000014006b410 f   ddslib:ddslib.obj
 0001:0006a510       DDSDecodeAlpha3BitLinear   000000014006b510 f   ddslib:ddslib.obj
 0001:0006a810       DDSDecompressDXT1          000000014006b810 f   ddslib:ddslib.obj
 0001:0006a920       DDSDecompressDXT3          000000014006b920 f   ddslib:ddslib.obj
 0001:0006aaa0       DDSDecompressDXT5          000000014006baa0 f   ddslib:ddslib.obj
 0001:0006ac20       DDSDecompressDXT2          000000014006bc20 f   ddslib:ddslib.obj
 0001:0006ac30       DDSDecompressDXT4          000000014006bc30 f   ddslib:ddslib.obj
 0001:0006ac40       DDSDecompressARGB8888      000000014006bc40 f   ddslib:ddslib.obj
 0001:0006b070       ?default_decompress_parms@@YAXPEAUjpeg_decompress_struct@@@Z 000000014006c070 f   jpeg6:jdapimin.obj
 0001:0006b490       ?output_pass_setup@@YAEPEAUjpeg_decompress_struct@@@Z 000000014006c490 f   jpeg6:jdapistd.obj
 0001:0006b690       ?init_source@@YAXPEAUjpeg_decompress_struct@@@Z 000000014006c690 f   jpeg6:jdatasrc.obj
 0001:0006b6a0       ?fill_input_buffer@@YAEPEAUjpeg_decompress_struct@@@Z 000000014006c6a0 f   jpeg6:jdatasrc.obj
 0001:0006b700       ?skip_input_data@@YAXPEAUjpeg_decompress_struct@@J@Z 000000014006c700 f   jpeg6:jdatasrc.obj
 0001:0006b800       ?error_exit@@YAXPEAUjpeg_common_struct@@@Z 000000014006c800 f   jpeg6:jerror.obj
 0001:0006b830       ?output_message@@YAXPEAUjpeg_common_struct@@@Z 000000014006c830 f   jpeg6:jerror.obj
 0001:0006b860       ?emit_message@@YAXPEAUjpeg_common_struct@@H@Z 000000014006c860 f   jpeg6:jerror.obj
 0001:0006b8a0       ?format_message@@YAXPEAUjpeg_common_struct@@PEAD@Z 000000014006c8a0 f   jpeg6:jerror.obj
 0001:0006b980       ?reset_error_mgr@@YAXPEAUjpeg_common_struct@@@Z 000000014006c980 f   jpeg6:jerror.obj
 0001:0006ba20       ?initial_setup@@YAXPEAUjpeg_decompress_struct@@@Z 000000014006ca20 f   jpeg6:jdinput.obj
 0001:0006bc30       ?per_scan_setup@@YAXPEAUjpeg_decompress_struct@@@Z 000000014006cc30 f   jpeg6:jdinput.obj
 0001:0006be10       ?latch_quant_tables@@YAXPEAUjpeg_decompress_struct@@@Z 000000014006ce10 f   jpeg6:jdinput.obj
 0001:0006bee0       ?start_input_pass@@YAXPEAUjpeg_decompress_struct@@@Z 000000014006cee0 f   jpeg6:jdinput.obj
 0001:0006bf30       ?consume_markers@@YAHPEAUjpeg_decompress_struct@@@Z 000000014006cf30 f   jpeg6:jdinput.obj
 0001:0006c040       ?reset_input_controller@@YAXPEAUjpeg_decompress_struct@@@Z 000000014006d040 f   jpeg6:jdinput.obj
 0001:0006c090       ?finish_input_pass@@YAXPEAUjpeg_decompress_struct@@@Z 000000014006d090 f   jpeg6:jdinput.obj
 0001:0006c110       ?get_soi@@YAEPEAUjpeg_decompress_struct@@@Z 000000014006d110 f   jpeg6:jdmarker.obj
 0001:0006c1d0       ?get_sof@@YAEPEAUjpeg_decompress_struct@@EE@Z 000000014006d1d0 f   jpeg6:jdmarker.obj
 0001:0006c520       ?get_sos@@YAEPEAUjpeg_decompress_struct@@@Z 000000014006d520 f   jpeg6:jdmarker.obj
 0001:0006c850       ?get_app0@@YAEPEAUjpeg_decompress_struct@@@Z 000000014006d850 f   jpeg6:jdmarker.obj
 0001:0006cb30       ?get_app14@@YAEPEAUjpeg_decompress_struct@@@Z 000000014006db30 f   jpeg6:jdmarker.obj
 0001:0006cd20       ?get_dac@@YAEPEAUjpeg_decompress_struct@@@Z 000000014006dd20 f   jpeg6:jdmarker.obj
 0001:0006ced0       ?get_dht@@YAEPEAUjpeg_decompress_struct@@@Z 000000014006ded0 f   jpeg6:jdmarker.obj
 0001:0006d200       ?get_dqt@@YAEPEAUjpeg_decompress_struct@@@Z 000000014006e200 f   jpeg6:jdmarker.obj
 0001:0006d480       ?get_dri@@YAEPEAUjpeg_decompress_struct@@@Z 000000014006e480 f   jpeg6:jdmarker.obj
 0001:0006d5a0       ?skip_variable@@YAEPEAUjpeg_decompress_struct@@@Z 000000014006e5a0 f   jpeg6:jdmarker.obj
 0001:0006d670       ?next_marker@@YAEPEAUjpeg_decompress_struct@@@Z 000000014006e670 f   jpeg6:jdmarker.obj
 0001:0006d7e0       ?first_marker@@YAEPEAUjpeg_decompress_struct@@@Z 000000014006e7e0 f   jpeg6:jdmarker.obj
 0001:0006d8b0       ?read_markers@@YAHPEAUjpeg_decompress_struct@@@Z 000000014006e8b0 f   jpeg6:jdmarker.obj
 0001:0006dbd0       ?read_restart_marker@@YAEPEAUjpeg_decompress_struct@@@Z 000000014006ebd0 f   jpeg6:jdmarker.obj
 0001:0006dda0       ?reset_marker_reader@@YAXPEAUjpeg_decompress_struct@@@Z 000000014006eda0 f   jpeg6:jdmarker.obj
 0001:0006de90       ?out_of_memory@@YAXPEAUjpeg_common_struct@@H@Z 000000014006ee90 f   jpeg6:jmemmgr.obj
 0001:0006deb0       ?alloc_small@@YAPEAXPEAUjpeg_common_struct@@H_K@Z 000000014006eeb0 f   jpeg6:jmemmgr.obj
 0001:0006e030       ?alloc_large@@YAPEAXPEAUjpeg_common_struct@@H_K@Z 000000014006f030 f   jpeg6:jmemmgr.obj
 0001:0006e110       ?alloc_sarray@@YAPEAPEAEPEAUjpeg_common_struct@@HII@Z 000000014006f110 f   jpeg6:jmemmgr.obj
 0001:0006e200       ?alloc_barray@@YAPEAPEAY0EA@FPEAUjpeg_common_struct@@HII@Z 000000014006f200 f   jpeg6:jmemmgr.obj
 0001:0006e310       ?request_virt_sarray@@YAPEAUjvirt_sarray_control@@PEAUjpeg_common_struct@@HEIII@Z 000000014006f310 f   jpeg6:jmemmgr.obj
 0001:0006e3c0       ?request_virt_barray@@YAPEAUjvirt_barray_control@@PEAUjpeg_common_struct@@HEIII@Z 000000014006f3c0 f   jpeg6:jmemmgr.obj
 0001:0006e470       ?realize_virt_arrays@@YAXPEAUjpeg_common_struct@@@Z 000000014006f470 f   jpeg6:jmemmgr.obj
 0001:0006e650       ?do_sarray_io@@YAXPEAUjpeg_common_struct@@PEAUjvirt_sarray_control@@E@Z 000000014006f650 f   jpeg6:jmemmgr.obj
 0001:0006e710       ?do_barray_io@@YAXPEAUjpeg_common_struct@@PEAUjvirt_barray_control@@E@Z 000000014006f710 f   jpeg6:jmemmgr.obj
 0001:0006e7d0       ?access_virt_sarray@@YAPEAPEAEPEAUjpeg_common_struct@@PEAUjvirt_sarray_control@@IIE@Z 000000014006f7d0 f   jpeg6:jmemmgr.obj
 0001:0006e930       ?access_virt_barray@@YAPEAPEAY0EA@FPEAUjpeg_common_struct@@PEAUjvirt_barray_control@@IIE@Z 000000014006f930 f   jpeg6:jmemmgr.obj
 0001:0006ea90       ?free_pool@@YAXPEAUjpeg_common_struct@@H@Z 000000014006fa90 f   jpeg6:jmemmgr.obj
 0001:0006ebe0       ?self_destruct@@YAXPEAUjpeg_common_struct@@@Z 000000014006fbe0 f   jpeg6:jmemmgr.obj
 0001:0006ee60       ?use_merged_upsample@@YAEPEAUjpeg_decompress_struct@@@Z 000000014006fe60 f   jpeg6:jdmaster.obj
 0001:0006ef20       ?prepare_range_limit_table@@YAXPEAUjpeg_decompress_struct@@@Z 000000014006ff20 f   jpeg6:jdmaster.obj
 0001:0006efd0       ?master_selection@@YAXPEAUjpeg_decompress_struct@@@Z 000000014006ffd0 f   jpeg6:jdmaster.obj
 0001:0006f180       ?prepare_for_output_pass@@YAXPEAUjpeg_decompress_struct@@@Z 0000000140070180 f   jpeg6:jdmaster.obj
 0001:0006f2d0       ?finish_output_pass@@YAXPEAUjpeg_decompress_struct@@@Z 00000001400702d0 f   jpeg6:jdmaster.obj
 0001:0006f440       ?dummy_consume_data@@YAHPEAUjpeg_decompress_struct@@@Z 0000000140070440 f   jpeg6:jmemnobs.obj
 0001:0006f450       ?alloc_funny_pointers@@YAXPEAUjpeg_decompress_struct@@@Z 0000000140070450 f   jpeg6:jdmainct.obj
 0001:0006f550       ?make_funny_pointers@@YAXPEAUjpeg_decompress_struct@@@Z 0000000140070550 f   jpeg6:jdmainct.obj
 0001:0006f6f0       ?set_wraparound_pointers@@YAXPEAUjpeg_decompress_struct@@@Z 00000001400706f0 f   jpeg6:jdmainct.obj
 0001:0006f800       ?set_bottom_pointers@@YAXPEAUjpeg_decompress_struct@@@Z 0000000140070800 f   jpeg6:jdmainct.obj
 0001:0006f8d0       ?process_data_simple_main@@YAXPEAUjpeg_decompress_struct@@PEAPEAEPEAII@Z 00000001400708d0 f   jpeg6:jdmainct.obj
 0001:0006f980       ?process_data_context_main@@YAXPEAUjpeg_decompress_struct@@PEAPEAEPEAII@Z 0000000140070980 f   jpeg6:jdmainct.obj
 0001:0006fb10       ?start_pass_main@@YAXPEAUjpeg_decompress_struct@@W4J_BUF_MODE@@@Z 0000000140070b10 f   jpeg6:jdmainct.obj
 0001:0006fcc0       ?start_iMCU_row@@YAXPEAUjpeg_decompress_struct@@@Z 0000000140070cc0 f   jpeg6:jdcoefct.obj
 0001:0006fd20       ?start_input_pass@@YAXPEAUjpeg_decompress_struct@@@Z 0000000140070d20 f   jpeg6:jdcoefct.obj
 0001:0006fd30       ?start_output_pass@@YAXPEAUjpeg_decompress_struct@@@Z 0000000140070d30 f   jpeg6:jdcoefct.obj
 0001:0006fd40       ?decompress_onepass@@YAHPEAUjpeg_decompress_struct@@PEAPEAPEAE@Z 0000000140070d40 f   jpeg6:jdcoefct.obj
 0001:00070580       ?process_restart@@YAEPEAUjpeg_decompress_struct@@@Z 0000000140071580 f   jpeg6:jdhuff.obj
 0001:00070620       ?decode_mcu@@YAEPEAUjpeg_decompress_struct@@PEAPEAY0EA@F@Z 0000000140071620 f   jpeg6:jdhuff.obj
 0001:00070af0       ?start_pass_huff_decoder@@YAXPEAUjpeg_decompress_struct@@@Z 0000000140071af0 f   jpeg6:jdhuff.obj
 0001:00070cb0       ?start_pass@@YAXPEAUjpeg_decompress_struct@@@Z 0000000140071cb0 f   jpeg6:jddctmgr.obj
 0001:00071070       ?post_process_1pass@@YAXPEAUjpeg_decompress_struct@@PEAPEAPEAEPEAIIPEAPEAE2I@Z 0000000140072070 f   jpeg6:jdpostct.obj
 0001:00071120       ?start_pass_dpost@@YAXPEAUjpeg_decompress_struct@@W4J_BUF_MODE@@@Z 0000000140072120 f   jpeg6:jdpostct.obj
 0001:00071270       ?start_pass_upsample@@YAXPEAUjpeg_decompress_struct@@@Z 0000000140072270 f   jpeg6:jdsample.obj
 0001:00071290       ?sep_upsample@@YAXPEAUjpeg_decompress_struct@@PEAPEAPEAEPEAIIPEAPEAE2I@Z 0000000140072290 f   jpeg6:jdsample.obj
 0001:000713e0       ?fullsize_upsample@@YAXPEAUjpeg_decompress_struct@@PEAUjpeg_component_info@@PEAPEAEPEAPEAPEAE@Z 00000001400723e0 f   jpeg6:jdsample.obj
 0001:000713f0       ?noop_upsample@@YAXPEAUjpeg_decompress_struct@@PEAUjpeg_component_info@@PEAPEAEPEAPEAPEAE@Z 00000001400723f0 f   jpeg6:jdsample.obj
 0001:00071400       ?int_upsample@@YAXPEAUjpeg_decompress_struct@@PEAUjpeg_component_info@@PEAPEAEPEAPEAPEAE@Z 0000000140072400 f   jpeg6:jdsample.obj
 0001:00071560       ?h2v1_upsample@@YAXPEAUjpeg_decompress_struct@@PEAUjpeg_component_info@@PEAPEAEPEAPEAPEAE@Z 0000000140072560 f   jpeg6:jdsample.obj
 0001:000715d0       ?h2v2_upsample@@YAXPEAUjpeg_decompress_struct@@PEAUjpeg_component_info@@PEAPEAEPEAPEAPEAE@Z 00000001400725d0 f   jpeg6:jdsample.obj
 0001:00071690       ?h2v1_fancy_upsample@@YAXPEAUjpeg_decompress_struct@@PEAUjpeg_component_info@@PEAPEAEPEAPEAPEAE@Z 0000000140072690 f   jpeg6:jdsample.obj
 0001:00071780       ?h2v2_fancy_upsample@@YAXPEAUjpeg_decompress_struct@@PEAUjpeg_component_info@@PEAPEAEPEAPEAPEAE@Z 0000000140072780 f   jpeg6:jdsample.obj
 0001:00071b40       ?build_ycc_rgb_table@@YAXPEAUjpeg_decompress_struct@@@Z 0000000140072b40 f   jpeg6:jdcolor.obj
 0001:00071c40       ?ycc_rgb_convert@@YAXPEAUjpeg_decompress_struct@@PEAPEAPEAEIPEAPEAEH@Z 0000000140072c40 f   jpeg6:jdcolor.obj
 0001:00071de0       ?null_convert@@YAXPEAUjpeg_decompress_struct@@PEAPEAPEAEIPEAPEAEH@Z 0000000140072de0 f   jpeg6:jdcolor.obj
 0001:00071ea0       ?grayscale_convert@@YAXPEAUjpeg_decompress_struct@@PEAPEAPEAEIPEAPEAEH@Z 0000000140072ea0 f   jpeg6:jdcolor.obj
 0001:00071ee0       ?ycck_cmyk_convert@@YAXPEAUjpeg_decompress_struct@@PEAPEAPEAEIPEAPEAEH@Z 0000000140072ee0 f   jpeg6:jdcolor.obj
 0001:00075fb0       ?term_source@@YAXPEAUjpeg_decompress_struct@@@Z 0000000140076fb0 f   picomodel:picointernal.obj
 0001:00075fb0       ?start_pass_dcolor@@YAXPEAUjpeg_decompress_struct@@@Z 0000000140076fb0 f   picomodel:picointernal.obj
 0001:00076aa0       _obj_canload               0000000140077aa0 f   picomodel:pm_obj.obj
 0001:00076c00       SizeObjVertexData          0000000140077c00 f   picomodel:pm_obj.obj
 0001:00076cc0       FreeObjVertexData          0000000140077cc0 f   picomodel:pm_obj.obj
 0001:00076ce0       _obj_load                  0000000140077ce0 f   picomodel:pm_obj.obj
 0001:00077bf0       _terrain_canload           0000000140078bf0 f   picomodel:pm_terrain.obj
 0001:00077c60       _terrain_load              0000000140078c60 f   picomodel:pm_terrain.obj
 0001:00078440       lwo_lwIDToStr              0000000140079440 f   picomodel:pm_lwo.obj
 0001:00078490       _lwo_canload               0000000140079490 f   picomodel:pm_lwo.obj
 0001:00078500       _lwo_load                  0000000140079500 f   picomodel:pm_lwo.obj
 0001:00078e00       _fm_canload                0000000140079e00 f   picomodel:pm_fm.obj
 0001:00078f30       _fm_load                   0000000140079f30 f   picomodel:pm_fm.obj
 0001:00079a10       _md2_canload               000000014007aa10 f   picomodel:pm_md2.obj
 0001:00079a60       _md2_load                  000000014007aa60 f   picomodel:pm_md2.obj
 0001:0007a4d0       _mdc_canload               000000014007b4d0 f   picomodel:pm_mdc.obj
 0001:0007a520       _mdc_load                  000000014007b520 f   picomodel:pm_mdc.obj
 0001:0007ae00       _ms3d_canload              000000014007be00 f   picomodel:pm_ms3d.obj
 0001:0007ae80       GetWord                    000000014007be80 f   picomodel:pm_ms3d.obj
 0001:0007aec0       _ms3d_load                 000000014007bec0 f   picomodel:pm_ms3d.obj
 0001:0007b5f0       _ase_get_material          000000014007c5f0 f   picomodel:pm_ase.obj
 0001:0007b610       _ase_get_submaterial       000000014007c610 f   picomodel:pm_ase.obj
 0001:0007b6c0       _ase_add_material          000000014007c6c0 f   picomodel:pm_ase.obj
 0001:0007b700       _ase_add_submaterial       000000014007c700 f   picomodel:pm_ase.obj
 0001:0007b780       _ase_free_materials        000000014007c780 f   picomodel:pm_ase.obj
 0001:0007b800       _ase_canload               000000014007c800 f   picomodel:pm_ase.obj
 0001:0007b890       _ase_submit_triangles      000000014007c890 f   picomodel:pm_ase.obj
 0001:0007be00       _ase_load                  000000014007ce00 f   picomodel:pm_ase.obj
 0001:0007d460       _3ds_canload               000000014007e460 f   picomodel:pm_3ds.obj
 0001:0007d4c0       GetChunk                   000000014007e4c0 f   picomodel:pm_3ds.obj
 0001:0007d520       GetASCIIZ                  000000014007e520 f   picomodel:pm_3ds.obj
 0001:0007d5b0       GetByte                    000000014007e5b0 f   picomodel:pm_3ds.obj
 0001:0007d5d0       GetWord                    000000014007e5d0 f   picomodel:pm_3ds.obj
 0001:0007d610       GetFloat                   000000014007e610 f   picomodel:pm_3ds.obj
 0001:0007d640       GetMeshVertices            000000014007e640 f   picomodel:pm_3ds.obj
 0001:0007d6d0       GetMeshFaces               000000014007e6d0 f   picomodel:pm_3ds.obj
 0001:0007d790       GetMeshTexCoords           000000014007e790 f   picomodel:pm_3ds.obj
 0001:0007d820       GetMeshShader              000000014007e820 f   picomodel:pm_3ds.obj
 0001:0007d9f0       GetDiffuseColor            000000014007e9f0 f   picomodel:pm_3ds.obj
 0001:0007da40       DoNextEditorDataChunk      000000014007ea40 f   picomodel:pm_3ds.obj
 0001:0007dcc0       DoNextChunk                000000014007ecc0 f   picomodel:pm_3ds.obj
 0001:0007dd80       _3ds_load                  000000014007ed80 f   picomodel:pm_3ds.obj
 0001:0007de90       _md3_canload               000000014007ee90 f   picomodel:pm_md3.obj
 0001:0007dee0       _md3_load                  000000014007eee0 f   picomodel:pm_md3.obj
 0001:000814b0       compare_shaders            00000001400824b0 f   picomodel:surface.obj
 0001:000814b0       compare_textures           00000001400824b0 f   picomodel:surface.obj
 0001:000814e0       add_texture                00000001400824e0 f   picomodel:surface.obj
 0001:000821f0       compare_keys               00000001400831f0 f   picomodel:envelope.obj
 0001:00082ca0       add_clip                   0000000140083ca0 f   picomodel:lwob.obj
 0001:00082d50       add_tvel                   0000000140083d50 f   picomodel:lwob.obj
 0001:00082ed0       get_texture                0000000140083ed0 f   picomodel:lwob.obj
 0001:000841a8       pre_cpp_init               00000001400851a8 f   MSVCRT:crtexe.obj
 0001:00084210       __tmainCRTStartup          0000000140085210 f   MSVCRT:crtexe.obj
 0001:00084390       pre_c_init                 0000000140085390 f   MSVCRT:crtexe.obj
 0001:00084830       _onexit$fin$0              0000000140085830 f   MSVCRT:atonexit.obj
 0001:00084849       __tmainCRTStartup$filt$0   0000000140085849 f   MSVCRT:crtexe.obj
 0001:00084870       _IsNonwritableInCurrentImage$filt$0 0000000140085870 f   MSVCRT:pesect.obj
